
coremark.exe:     file format elf64-littleaarch64


Disassembly of section .init:

0000000000400280 <_init>:
  400280:	a9bf7bfd 	stp	x29, x30, [sp, #-16]!
  400284:	910003fd 	mov	x29, sp
  400288:	940000c8 	bl	4005a8 <call_weak_fn>
  40028c:	a8c17bfd 	ldp	x29, x30, [sp], #16
  400290:	d65f03c0 	ret

Disassembly of section .plt:

00000000004002a0 <.plt>:
  4002a0:	f0000450 	adrp	x16, 48b000 <_GLOBAL_OFFSET_TABLE_+0xc8>
  4002a4:	f9400211 	ldr	x17, [x16]
  4002a8:	91000210 	add	x16, x16, #0x0
  4002ac:	d61f0220 	br	x17
  4002b0:	f0000450 	adrp	x16, 48b000 <_GLOBAL_OFFSET_TABLE_+0xc8>
  4002b4:	f9400611 	ldr	x17, [x16, #8]
  4002b8:	91002210 	add	x16, x16, #0x8
  4002bc:	d61f0220 	br	x17
  4002c0:	f0000450 	adrp	x16, 48b000 <_GLOBAL_OFFSET_TABLE_+0xc8>
  4002c4:	f9400a11 	ldr	x17, [x16, #16]
  4002c8:	91004210 	add	x16, x16, #0x10
  4002cc:	d61f0220 	br	x17
  4002d0:	f0000450 	adrp	x16, 48b000 <_GLOBAL_OFFSET_TABLE_+0xc8>
  4002d4:	f9400e11 	ldr	x17, [x16, #24]
  4002d8:	91006210 	add	x16, x16, #0x18
  4002dc:	d61f0220 	br	x17
  4002e0:	f0000450 	adrp	x16, 48b000 <_GLOBAL_OFFSET_TABLE_+0xc8>
  4002e4:	f9401211 	ldr	x17, [x16, #32]
  4002e8:	91008210 	add	x16, x16, #0x20
  4002ec:	d61f0220 	br	x17
  4002f0:	f0000450 	adrp	x16, 48b000 <_GLOBAL_OFFSET_TABLE_+0xc8>
  4002f4:	f9401611 	ldr	x17, [x16, #40]
  4002f8:	9100a210 	add	x16, x16, #0x28
  4002fc:	d61f0220 	br	x17
  400300:	f0000450 	adrp	x16, 48b000 <_GLOBAL_OFFSET_TABLE_+0xc8>
  400304:	f9401a11 	ldr	x17, [x16, #48]
  400308:	9100c210 	add	x16, x16, #0x30
  40030c:	d61f0220 	br	x17

Disassembly of section .text:

0000000000400340 <abort>:
  400340:	a9ac7bfd 	stp	x29, x30, [sp, #-320]!
  400344:	d0000440 	adrp	x0, 48a000 <__FRAME_END__+0xfbac>
  400348:	91268000 	add	x0, x0, #0x9a0
  40034c:	910003fd 	mov	x29, sp
  400350:	a90153f3 	stp	x19, x20, [sp, #16]
  400354:	90000473 	adrp	x19, 48c000 <_dl_main_map+0xa0>
  400358:	913ce273 	add	x19, x19, #0xf38
  40035c:	f9400001 	ldr	x1, [x0]
  400360:	f9009fe1 	str	x1, [sp, #312]
  400364:	d2800001 	mov	x1, #0x0                   	// #0
  400368:	d53bd054 	mrs	x20, tpidr_el0
  40036c:	d11c0294 	sub	x20, x20, #0x700
  400370:	f9400660 	ldr	x0, [x19, #8]
  400374:	eb14001f 	cmp	x0, x20
  400378:	54000160 	b.eq	4003a4 <abort+0x64>  // b.none
  40037c:	52800020 	mov	w0, #0x1                   	// #1
  400380:	885ffe61 	ldaxr	w1, [x19]
  400384:	35000061 	cbnz	w1, 400390 <abort+0x50>
  400388:	88027e60 	stxr	w2, w0, [x19]
  40038c:	35ffffa2 	cbnz	w2, 400380 <abort+0x40>
  400390:	7100003f 	cmp	w1, #0x0
  400394:	54000060 	b.eq	4003a0 <abort+0x60>  // b.none
  400398:	aa1303e0 	mov	x0, x19
  40039c:	94004091 	bl	4105e0 <__lll_lock_wait_private>
  4003a0:	f9000674 	str	x20, [x19, #8]
  4003a4:	b9400660 	ldr	w0, [x19, #4]
  4003a8:	b9401261 	ldr	w1, [x19, #16]
  4003ac:	11000400 	add	w0, w0, #0x1
  4003b0:	b9000660 	str	w0, [x19, #4]
  4003b4:	35000201 	cbnz	w1, 4003f4 <abort+0xb4>
  4003b8:	910083e1 	add	x1, sp, #0x20
  4003bc:	52800022 	mov	w2, #0x1                   	// #1
  4003c0:	d2800200 	mov	x0, #0x10                  	// #16
  4003c4:	b9001262 	str	w2, [x19, #16]
  4003c8:	d1000400 	sub	x0, x0, #0x1
  4003cc:	b100041f 	cmn	x0, #0x1
  4003d0:	54000060 	b.eq	4003dc <abort+0x9c>  // b.none
  4003d4:	f820783f 	str	xzr, [x1, x0, lsl #3]
  4003d8:	17fffffc 	b	4003c8 <abort+0x88>
  4003dc:	f94013e3 	ldr	x3, [sp, #32]
  4003e0:	d2800002 	mov	x2, #0x0                   	// #0
  4003e4:	52800020 	mov	w0, #0x1                   	// #1
  4003e8:	b27b0063 	orr	x3, x3, #0x20
  4003ec:	f90013e3 	str	x3, [sp, #32]
  4003f0:	94001bf2 	bl	4073b8 <__sigprocmask>
  4003f4:	b9401260 	ldr	w0, [x19, #16]
  4003f8:	7100041f 	cmp	w0, #0x1
  4003fc:	540004a1 	b.ne	400490 <abort+0x150>  // b.any
  400400:	b9400660 	ldr	w0, [x19, #4]
  400404:	b900127f 	str	wzr, [x19, #16]
  400408:	51000400 	sub	w0, w0, #0x1
  40040c:	b9000660 	str	w0, [x19, #4]
  400410:	350001a0 	cbnz	w0, 400444 <abort+0x104>
  400414:	f900067f 	str	xzr, [x19, #8]
  400418:	885f7e60 	ldxr	w0, [x19]
  40041c:	8801fe7f 	stlxr	w1, wzr, [x19]
  400420:	35ffffc1 	cbnz	w1, 400418 <abort+0xd8>
  400424:	7100041f 	cmp	w0, #0x1
  400428:	540000ed 	b.le	400444 <abort+0x104>
  40042c:	aa1303e0 	mov	x0, x19
  400430:	d2801021 	mov	x1, #0x81                  	// #129
  400434:	d2800022 	mov	x2, #0x1                   	// #1
  400438:	d2800003 	mov	x3, #0x0                   	// #0
  40043c:	d2800c48 	mov	x8, #0x62                  	// #98
  400440:	d4000001 	svc	#0x0
  400444:	528000c0 	mov	w0, #0x6                   	// #6
  400448:	94001b94 	bl	407298 <raise>
  40044c:	f9400660 	ldr	x0, [x19, #8]
  400450:	eb14001f 	cmp	x0, x20
  400454:	54000160 	b.eq	400480 <abort+0x140>  // b.none
  400458:	52800020 	mov	w0, #0x1                   	// #1
  40045c:	885ffe61 	ldaxr	w1, [x19]
  400460:	35000061 	cbnz	w1, 40046c <abort+0x12c>
  400464:	88027e60 	stxr	w2, w0, [x19]
  400468:	35ffffa2 	cbnz	w2, 40045c <abort+0x11c>
  40046c:	7100003f 	cmp	w1, #0x0
  400470:	54000060 	b.eq	40047c <abort+0x13c>  // b.none
  400474:	aa1303e0 	mov	x0, x19
  400478:	9400405a 	bl	4105e0 <__lll_lock_wait_private>
  40047c:	f9000674 	str	x20, [x19, #8]
  400480:	b9400660 	ldr	w0, [x19, #4]
  400484:	11000400 	add	w0, w0, #0x1
  400488:	b9000660 	str	w0, [x19, #4]
  40048c:	14000003 	b	400498 <abort+0x158>
  400490:	7100081f 	cmp	w0, #0x2
  400494:	54000261 	b.ne	4004e0 <abort+0x1a0>  // b.any
  400498:	52800063 	mov	w3, #0x3                   	// #3
  40049c:	910283f4 	add	x20, sp, #0xa0
  4004a0:	52800001 	mov	w1, #0x0                   	// #0
  4004a4:	91002280 	add	x0, x20, #0x8
  4004a8:	d2801202 	mov	x2, #0x90                  	// #144
  4004ac:	b9001263 	str	w3, [x19, #16]
  4004b0:	97ffff88 	bl	4002d0 <.plt+0x30>
  4004b4:	f90053ff 	str	xzr, [sp, #160]
  4004b8:	d2800200 	mov	x0, #0x10                  	// #16
  4004bc:	92800001 	mov	x1, #0xffffffffffffffff    	// #-1
  4004c0:	f8207a81 	str	x1, [x20, x0, lsl #3]
  4004c4:	f1000400 	subs	x0, x0, #0x1
  4004c8:	54ffffc1 	b.ne	4004c0 <abort+0x180>  // b.any
  4004cc:	aa1403e1 	mov	x1, x20
  4004d0:	d2800002 	mov	x2, #0x0                   	// #0
  4004d4:	528000c0 	mov	w0, #0x6                   	// #6
  4004d8:	b9012bff 	str	wzr, [sp, #296]
  4004dc:	9400a0c3 	bl	4287e8 <__sigaction>
  4004e0:	b9401260 	ldr	w0, [x19, #16]
  4004e4:	71000c1f 	cmp	w0, #0x3
  4004e8:	540000a1 	b.ne	4004fc <abort+0x1bc>  // b.any
  4004ec:	52800081 	mov	w1, #0x4                   	// #4
  4004f0:	528000c0 	mov	w0, #0x6                   	// #6
  4004f4:	b9001261 	str	w1, [x19, #16]
  4004f8:	94001b68 	bl	407298 <raise>
  4004fc:	b9401260 	ldr	w0, [x19, #16]
  400500:	7100101f 	cmp	w0, #0x4
  400504:	54000081 	b.ne	400514 <abort+0x1d4>  // b.any
  400508:	528000a0 	mov	w0, #0x5                   	// #5
  40050c:	b9001260 	str	w0, [x19, #16]
  400510:	d4207d00 	brk	#0x3e8
  400514:	b9401260 	ldr	w0, [x19, #16]
  400518:	7100141f 	cmp	w0, #0x5
  40051c:	540000a1 	b.ne	400530 <abort+0x1f0>  // b.any
  400520:	528000c1 	mov	w1, #0x6                   	// #6
  400524:	52800fe0 	mov	w0, #0x7f                  	// #127
  400528:	b9001261 	str	w1, [x19, #16]
  40052c:	94006567 	bl	419ac8 <_exit>
  400530:	d4207d00 	brk	#0x3e8
  400534:	17ffffff 	b	400530 <abort+0x1f0>

0000000000400538 <_dl_start>:
  400538:	a9bf7bfd 	stp	x29, x30, [sp, #-16]!
  40053c:	910003fd 	mov	x29, sp
  400540:	97ffff80 	bl	400340 <abort>
  400544:	d503201f 	nop

0000000000400548 <fini>:
  400548:	b0000460 	adrp	x0, 48d000 <initial+0x90>
  40054c:	91190000 	add	x0, x0, #0x640
  400550:	91008000 	add	x0, x0, #0x20
  400554:	14011a45 	b	446e68 <check_free.isra.0>

0000000000400558 <_start>:
  400558:	d280001d 	mov	x29, #0x0                   	// #0
  40055c:	d280001e 	mov	x30, #0x0                   	// #0
  400560:	aa0003e5 	mov	x5, x0
  400564:	f94003e1 	ldr	x1, [sp]
  400568:	910023e2 	add	x2, sp, #0x8
  40056c:	910003e6 	mov	x6, sp
  400570:	d2e00000 	movz	x0, #0x0, lsl #48
  400574:	f2c00000 	movk	x0, #0x0, lsl #32
  400578:	f2a00800 	movk	x0, #0x40, lsl #16
  40057c:	f281e580 	movk	x0, #0xf2c
  400580:	d2e00003 	movz	x3, #0x0, lsl #48
  400584:	f2c00003 	movk	x3, #0x0, lsl #32
  400588:	f2a00803 	movk	x3, #0x40, lsl #16
  40058c:	f2858d03 	movk	x3, #0x2c68
  400590:	d2e00004 	movz	x4, #0x0, lsl #48
  400594:	f2c00004 	movk	x4, #0x0, lsl #32
  400598:	f2a00804 	movk	x4, #0x40, lsl #16
  40059c:	f285a604 	movk	x4, #0x2d30
  4005a0:	940007fe 	bl	402598 <__libc_start_main>
  4005a4:	97ffff67 	bl	400340 <abort>

00000000004005a8 <call_weak_fn>:
  4005a8:	d0000440 	adrp	x0, 48a000 <__FRAME_END__+0xfbac>
  4005ac:	f947f000 	ldr	x0, [x0, #4064]
  4005b0:	b4000040 	cbz	x0, 4005b8 <call_weak_fn+0x10>
  4005b4:	d503201f 	nop
  4005b8:	d65f03c0 	ret
  4005bc:	d503201f 	nop

00000000004005c0 <deregister_tm_clones>:
  4005c0:	90000460 	adrp	x0, 48c000 <_dl_main_map+0xa0>
  4005c4:	9126a000 	add	x0, x0, #0x9a8
  4005c8:	90000461 	adrp	x1, 48c000 <_dl_main_map+0xa0>
  4005cc:	9126a021 	add	x1, x1, #0x9a8
  4005d0:	eb00003f 	cmp	x1, x0
  4005d4:	540000c0 	b.eq	4005ec <deregister_tm_clones+0x2c>  // b.none
  4005d8:	f0000281 	adrp	x1, 453000 <_nl_locale_subfreeres+0x1a8>
  4005dc:	f9422421 	ldr	x1, [x1, #1096]
  4005e0:	b4000061 	cbz	x1, 4005ec <deregister_tm_clones+0x2c>
  4005e4:	aa0103f0 	mov	x16, x1
  4005e8:	d61f0200 	br	x16
  4005ec:	d65f03c0 	ret

00000000004005f0 <register_tm_clones>:
  4005f0:	90000460 	adrp	x0, 48c000 <_dl_main_map+0xa0>
  4005f4:	9126a000 	add	x0, x0, #0x9a8
  4005f8:	90000461 	adrp	x1, 48c000 <_dl_main_map+0xa0>
  4005fc:	9126a021 	add	x1, x1, #0x9a8
  400600:	cb000021 	sub	x1, x1, x0
  400604:	d37ffc22 	lsr	x2, x1, #63
  400608:	8b810c41 	add	x1, x2, x1, asr #3
  40060c:	eb8107ff 	cmp	xzr, x1, asr #1
  400610:	9341fc21 	asr	x1, x1, #1
  400614:	540000c0 	b.eq	40062c <register_tm_clones+0x3c>  // b.none
  400618:	f0000282 	adrp	x2, 453000 <_nl_locale_subfreeres+0x1a8>
  40061c:	f9422842 	ldr	x2, [x2, #1104]
  400620:	b4000062 	cbz	x2, 40062c <register_tm_clones+0x3c>
  400624:	aa0203f0 	mov	x16, x2
  400628:	d61f0200 	br	x16
  40062c:	d65f03c0 	ret

0000000000400630 <__do_global_dtors_aux>:
  400630:	a9be7bfd 	stp	x29, x30, [sp, #-32]!
  400634:	910003fd 	mov	x29, sp
  400638:	f9000bf3 	str	x19, [sp, #16]
  40063c:	90000473 	adrp	x19, 48c000 <_dl_main_map+0xa0>
  400640:	3966a260 	ldrb	w0, [x19, #2472]
  400644:	35000140 	cbnz	w0, 40066c <__do_global_dtors_aux+0x3c>
  400648:	97ffffde 	bl	4005c0 <deregister_tm_clones>
  40064c:	f0000280 	adrp	x0, 453000 <_nl_locale_subfreeres+0x1a8>
  400650:	f9422c00 	ldr	x0, [x0, #1112]
  400654:	b4000080 	cbz	x0, 400664 <__do_global_dtors_aux+0x34>
  400658:	f0000360 	adrp	x0, 46f000 <__tens+0x34b0>
  40065c:	91394000 	add	x0, x0, #0xe50
  400660:	940146ac 	bl	452110 <__deregister_frame_info>
  400664:	52800020 	mov	w0, #0x1                   	// #1
  400668:	3926a260 	strb	w0, [x19, #2472]
  40066c:	f9400bf3 	ldr	x19, [sp, #16]
  400670:	a8c27bfd 	ldp	x29, x30, [sp], #32
  400674:	d65f03c0 	ret

0000000000400678 <frame_dummy>:
  400678:	f0000280 	adrp	x0, 453000 <_nl_locale_subfreeres+0x1a8>
  40067c:	f9423000 	ldr	x0, [x0, #1120]
  400680:	b4000140 	cbz	x0, 4006a8 <frame_dummy+0x30>
  400684:	a9bf7bfd 	stp	x29, x30, [sp, #-16]!
  400688:	90000461 	adrp	x1, 48c000 <_dl_main_map+0xa0>
  40068c:	f0000360 	adrp	x0, 46f000 <__tens+0x34b0>
  400690:	910003fd 	mov	x29, sp
  400694:	9126c021 	add	x1, x1, #0x9b0
  400698:	91394000 	add	x0, x0, #0xe50
  40069c:	940145fb 	bl	451e88 <__register_frame_info>
  4006a0:	a8c17bfd 	ldp	x29, x30, [sp], #16
  4006a4:	17ffffd3 	b	4005f0 <register_tm_clones>
  4006a8:	17ffffd2 	b	4005f0 <register_tm_clones>

00000000004006ac <cmp_idx>:
  4006ac:	b40000a2 	cbz	x2, 4006c0 <cmp_idx+0x14>
  4006b0:	79c00402 	ldrsh	w2, [x0, #2]
  4006b4:	79c00420 	ldrsh	w0, [x1, #2]
  4006b8:	4b000040 	sub	w0, w2, w0
  4006bc:	d65f03c0 	ret
  4006c0:	79c00002 	ldrsh	w2, [x0]
  4006c4:	12185c43 	and	w3, w2, #0xffffff00
  4006c8:	d3483c42 	ubfx	x2, x2, #8, #8
  4006cc:	2a020062 	orr	w2, w3, w2
  4006d0:	79000002 	strh	w2, [x0]
  4006d4:	79c00022 	ldrsh	w2, [x1]
  4006d8:	12185c43 	and	w3, w2, #0xffffff00
  4006dc:	d3483c42 	ubfx	x2, x2, #8, #8
  4006e0:	2a020062 	orr	w2, w3, w2
  4006e4:	79000022 	strh	w2, [x1]
  4006e8:	17fffff2 	b	4006b0 <cmp_idx+0x4>

00000000004006ec <calc_func>:
  4006ec:	a9bd7bfd 	stp	x29, x30, [sp, #-48]!
  4006f0:	910003fd 	mov	x29, sp
  4006f4:	a90153f3 	stp	x19, x20, [sp, #16]
  4006f8:	79c00013 	ldrsh	w19, [x0]
  4006fc:	363800b3 	tbz	w19, #7, 400710 <calc_func+0x24>
  400700:	12001a60 	and	w0, w19, #0x7f
  400704:	a94153f3 	ldp	x19, x20, [sp, #16]
  400708:	a8c37bfd 	ldp	x29, x30, [sp], #48
  40070c:	d65f03c0 	ret
  400710:	a9025bf5 	stp	x21, x22, [sp, #32]
  400714:	aa0003f5 	mov	x21, x0
  400718:	aa0103f4 	mov	x20, x1
  40071c:	d3431a61 	ubfx	x1, x19, #3, #4
  400720:	2a011021 	orr	w1, w1, w1, lsl #4
  400724:	72000a60 	ands	w0, w19, #0x7
  400728:	54000180 	b.eq	400758 <calc_func+0x6c>  // b.none
  40072c:	2a1303f6 	mov	w22, w19
  400730:	7100041f 	cmp	w0, #0x1
  400734:	540002c1 	b.ne	40078c <calc_func+0xa0>  // b.any
  400738:	7940c282 	ldrh	w2, [x20, #96]
  40073c:	91010280 	add	x0, x20, #0x40
  400740:	94000579 	bl	401d24 <core_bench_matrix>
  400744:	13003c16 	sxth	w22, w0
  400748:	7940ca81 	ldrh	w1, [x20, #100]
  40074c:	35000201 	cbnz	w1, 40078c <calc_func+0xa0>
  400750:	7900ca80 	strh	w0, [x20, #100]
  400754:	1400000e 	b	40078c <calc_func+0xa0>
  400758:	7100883f 	cmp	w1, #0x22
  40075c:	7940c285 	ldrh	w5, [x20, #96]
  400760:	52800444 	mov	w4, #0x22                  	// #34
  400764:	1a84a024 	csel	w4, w1, w4, ge  // ge = tcont
  400768:	79400683 	ldrh	w3, [x20, #2]
  40076c:	79400282 	ldrh	w2, [x20]
  400770:	f9401281 	ldr	x1, [x20, #32]
  400774:	b9402a80 	ldr	w0, [x20, #40]
  400778:	94000652 	bl	4020c0 <core_bench_state>
  40077c:	13003c16 	sxth	w22, w0
  400780:	7940ce81 	ldrh	w1, [x20, #102]
  400784:	35000041 	cbnz	w1, 40078c <calc_func+0xa0>
  400788:	7900ce80 	strh	w0, [x20, #102]
  40078c:	7940c281 	ldrh	w1, [x20, #96]
  400790:	2a1603e0 	mov	w0, w22
  400794:	94000729 	bl	402438 <crcu16>
  400798:	7900c280 	strh	w0, [x20, #96]
  40079c:	12001ac0 	and	w0, w22, #0x7f
  4007a0:	12185e73 	and	w19, w19, #0xffffff00
  4007a4:	2a130013 	orr	w19, w0, w19
  4007a8:	32190273 	orr	w19, w19, #0x80
  4007ac:	790002b3 	strh	w19, [x21]
  4007b0:	a9425bf5 	ldp	x21, x22, [sp, #32]
  4007b4:	17ffffd4 	b	400704 <calc_func+0x18>

00000000004007b8 <cmp_complex>:
  4007b8:	a9bd7bfd 	stp	x29, x30, [sp, #-48]!
  4007bc:	910003fd 	mov	x29, sp
  4007c0:	a90153f3 	stp	x19, x20, [sp, #16]
  4007c4:	f90013f5 	str	x21, [sp, #32]
  4007c8:	aa0103f5 	mov	x21, x1
  4007cc:	aa0203f3 	mov	x19, x2
  4007d0:	aa0203e1 	mov	x1, x2
  4007d4:	97ffffc6 	bl	4006ec <calc_func>
  4007d8:	13003c14 	sxth	w20, w0
  4007dc:	aa1303e1 	mov	x1, x19
  4007e0:	aa1503e0 	mov	x0, x21
  4007e4:	97ffffc2 	bl	4006ec <calc_func>
  4007e8:	4b20a280 	sub	w0, w20, w0, sxth
  4007ec:	a94153f3 	ldp	x19, x20, [sp, #16]
  4007f0:	f94013f5 	ldr	x21, [sp, #32]
  4007f4:	a8c37bfd 	ldp	x29, x30, [sp], #48
  4007f8:	d65f03c0 	ret

00000000004007fc <copy_info>:
  4007fc:	79c00022 	ldrsh	w2, [x1]
  400800:	79000002 	strh	w2, [x0]
  400804:	79c00421 	ldrsh	w1, [x1, #2]
  400808:	79000401 	strh	w1, [x0, #2]
  40080c:	d65f03c0 	ret

0000000000400810 <core_list_insert_new>:
  400810:	aa0003e6 	mov	x6, x0
  400814:	f9400040 	ldr	x0, [x2]
  400818:	91004007 	add	x7, x0, #0x10
  40081c:	eb0400ff 	cmp	x7, x4
  400820:	54000262 	b.cs	40086c <core_list_insert_new+0x5c>  // b.hs, b.nlast
  400824:	f9400064 	ldr	x4, [x3]
  400828:	91001084 	add	x4, x4, #0x4
  40082c:	eb0400bf 	cmp	x5, x4
  400830:	54000229 	b.ls	400874 <core_list_insert_new+0x64>  // b.plast
  400834:	f9000047 	str	x7, [x2]
  400838:	f94000c2 	ldr	x2, [x6]
  40083c:	f9000002 	str	x2, [x0]
  400840:	f90000c0 	str	x0, [x6]
  400844:	f9400062 	ldr	x2, [x3]
  400848:	f9000402 	str	x2, [x0, #8]
  40084c:	91001042 	add	x2, x2, #0x4
  400850:	f9000062 	str	x2, [x3]
  400854:	f9400402 	ldr	x2, [x0, #8]
  400858:	79c00023 	ldrsh	w3, [x1]
  40085c:	79000043 	strh	w3, [x2]
  400860:	79c00421 	ldrsh	w1, [x1, #2]
  400864:	79000441 	strh	w1, [x2, #2]
  400868:	d65f03c0 	ret
  40086c:	d2800000 	mov	x0, #0x0                   	// #0
  400870:	17fffffe 	b	400868 <core_list_insert_new+0x58>
  400874:	d2800000 	mov	x0, #0x0                   	// #0
  400878:	17fffffc 	b	400868 <core_list_insert_new+0x58>

000000000040087c <core_list_remove>:
  40087c:	aa0003e1 	mov	x1, x0
  400880:	f9400000 	ldr	x0, [x0]
  400884:	f9400422 	ldr	x2, [x1, #8]
  400888:	f9400403 	ldr	x3, [x0, #8]
  40088c:	f9000423 	str	x3, [x1, #8]
  400890:	f9000402 	str	x2, [x0, #8]
  400894:	f9400022 	ldr	x2, [x1]
  400898:	f9400042 	ldr	x2, [x2]
  40089c:	f9000022 	str	x2, [x1]
  4008a0:	f900001f 	str	xzr, [x0]
  4008a4:	d65f03c0 	ret

00000000004008a8 <core_list_undo_remove>:
  4008a8:	f9400403 	ldr	x3, [x0, #8]
  4008ac:	f9400424 	ldr	x4, [x1, #8]
  4008b0:	f9000404 	str	x4, [x0, #8]
  4008b4:	f9000423 	str	x3, [x1, #8]
  4008b8:	f9400023 	ldr	x3, [x1]
  4008bc:	f9000003 	str	x3, [x0]
  4008c0:	f9000020 	str	x0, [x1]
  4008c4:	d65f03c0 	ret

00000000004008c8 <core_list_find>:
  4008c8:	79c00422 	ldrsh	w2, [x1, #2]
  4008cc:	37f80122 	tbnz	w2, #31, 4008f0 <core_list_find+0x28>
  4008d0:	b40000e0 	cbz	x0, 4008ec <core_list_find+0x24>
  4008d4:	f9400401 	ldr	x1, [x0, #8]
  4008d8:	79c00421 	ldrsh	w1, [x1, #2]
  4008dc:	6b02003f 	cmp	w1, w2
  4008e0:	54000060 	b.eq	4008ec <core_list_find+0x24>  // b.none
  4008e4:	f9400000 	ldr	x0, [x0]
  4008e8:	b5ffff60 	cbnz	x0, 4008d4 <core_list_find+0xc>
  4008ec:	d65f03c0 	ret
  4008f0:	b4ffffe0 	cbz	x0, 4008ec <core_list_find+0x24>
  4008f4:	79c00022 	ldrsh	w2, [x1]
  4008f8:	f9400401 	ldr	x1, [x0, #8]
  4008fc:	39400021 	ldrb	w1, [x1]
  400900:	6b02003f 	cmp	w1, w2
  400904:	54ffff40 	b.eq	4008ec <core_list_find+0x24>  // b.none
  400908:	f9400000 	ldr	x0, [x0]
  40090c:	b5ffff60 	cbnz	x0, 4008f8 <core_list_find+0x30>
  400910:	17fffff7 	b	4008ec <core_list_find+0x24>

0000000000400914 <core_list_reverse>:
  400914:	b4000100 	cbz	x0, 400934 <core_list_reverse+0x20>
  400918:	d2800002 	mov	x2, #0x0                   	// #0
  40091c:	14000002 	b	400924 <core_list_reverse+0x10>
  400920:	aa0103e0 	mov	x0, x1
  400924:	f9400001 	ldr	x1, [x0]
  400928:	f9000002 	str	x2, [x0]
  40092c:	aa0003e2 	mov	x2, x0
  400930:	b5ffff81 	cbnz	x1, 400920 <core_list_reverse+0xc>
  400934:	d65f03c0 	ret

0000000000400938 <core_list_mergesort>:
  400938:	a9ba7bfd 	stp	x29, x30, [sp, #-96]!
  40093c:	910003fd 	mov	x29, sp
  400940:	a90153f3 	stp	x19, x20, [sp, #16]
  400944:	a9025bf5 	stp	x21, x22, [sp, #32]
  400948:	a90363f7 	stp	x23, x24, [sp, #48]
  40094c:	a9046bf9 	stp	x25, x26, [sp, #64]
  400950:	a90573fb 	stp	x27, x28, [sp, #80]
  400954:	aa0003f4 	mov	x20, x0
  400958:	aa0103fb 	mov	x27, x1
  40095c:	aa0203fa 	mov	x26, x2
  400960:	52800038 	mov	w24, #0x1                   	// #1
  400964:	b4000914 	cbz	x20, 400a84 <core_list_mergesort+0x14c>
  400968:	5280001c 	mov	w28, #0x0                   	// #0
  40096c:	d2800015 	mov	x21, #0x0                   	// #0
  400970:	d2800019 	mov	x25, #0x0                   	// #0
  400974:	14000028 	b	400a14 <core_list_mergesort+0xdc>
  400978:	aa1403e0 	mov	x0, x20
  40097c:	52800013 	mov	w19, #0x0                   	// #0
  400980:	1400002f 	b	400a3c <core_list_mergesort+0x104>
  400984:	aa1a03e2 	mov	x2, x26
  400988:	f9400681 	ldr	x1, [x20, #8]
  40098c:	f94006e0 	ldr	x0, [x23, #8]
  400990:	d63f0360 	blr	x27
  400994:	7100001f 	cmp	w0, #0x0
  400998:	540000ad 	b.le	4009ac <core_list_mergesort+0x74>
  40099c:	510006d6 	sub	w22, w22, #0x1
  4009a0:	aa1403e0 	mov	x0, x20
  4009a4:	f9400294 	ldr	x20, [x20]
  4009a8:	1400000e 	b	4009e0 <core_list_mergesort+0xa8>
  4009ac:	51000673 	sub	w19, w19, #0x1
  4009b0:	aa1703e0 	mov	x0, x23
  4009b4:	f94002f7 	ldr	x23, [x23]
  4009b8:	1400000a 	b	4009e0 <core_list_mergesort+0xa8>
  4009bc:	aa0003f9 	mov	x25, x0
  4009c0:	1400000a 	b	4009e8 <core_list_mergesort+0xb0>
  4009c4:	710002df 	cmp	w22, #0x0
  4009c8:	fa40ca84 	ccmp	x20, #0x0, #0x4, gt
  4009cc:	54000220 	b.eq	400a10 <core_list_mergesort+0xd8>  // b.none
  4009d0:	35fffdb3 	cbnz	w19, 400984 <core_list_mergesort+0x4c>
  4009d4:	510006d6 	sub	w22, w22, #0x1
  4009d8:	aa1403e0 	mov	x0, x20
  4009dc:	f9400294 	ldr	x20, [x20]
  4009e0:	b4fffef5 	cbz	x21, 4009bc <core_list_mergesort+0x84>
  4009e4:	f90002a0 	str	x0, [x21]
  4009e8:	aa0003f5 	mov	x21, x0
  4009ec:	7100027f 	cmp	w19, #0x0
  4009f0:	54fffead 	b.le	4009c4 <core_list_mergesort+0x8c>
  4009f4:	710002df 	cmp	w22, #0x0
  4009f8:	fa401a84 	ccmp	x20, #0x0, #0x4, ne  // ne = any
  4009fc:	54fffc41 	b.ne	400984 <core_list_mergesort+0x4c>  // b.any
  400a00:	51000673 	sub	w19, w19, #0x1
  400a04:	aa1703e0 	mov	x0, x23
  400a08:	f94002f7 	ldr	x23, [x23]
  400a0c:	17fffff5 	b	4009e0 <core_list_mergesort+0xa8>
  400a10:	b40001f4 	cbz	x20, 400a4c <core_list_mergesort+0x114>
  400a14:	1100079c 	add	w28, w28, #0x1
  400a18:	7100031f 	cmp	w24, #0x0
  400a1c:	54fffaed 	b.le	400978 <core_list_mergesort+0x40>
  400a20:	aa1403e0 	mov	x0, x20
  400a24:	52800013 	mov	w19, #0x0                   	// #0
  400a28:	11000673 	add	w19, w19, #0x1
  400a2c:	f9400000 	ldr	x0, [x0]
  400a30:	b4000060 	cbz	x0, 400a3c <core_list_mergesort+0x104>
  400a34:	6b13031f 	cmp	w24, w19
  400a38:	54ffff81 	b.ne	400a28 <core_list_mergesort+0xf0>  // b.any
  400a3c:	2a1803f6 	mov	w22, w24
  400a40:	aa1403f7 	mov	x23, x20
  400a44:	aa0003f4 	mov	x20, x0
  400a48:	17ffffe9 	b	4009ec <core_list_mergesort+0xb4>
  400a4c:	f90002bf 	str	xzr, [x21]
  400a50:	7100079f 	cmp	w28, #0x1
  400a54:	5400012c 	b.gt	400a78 <core_list_mergesort+0x140>
  400a58:	aa1903e0 	mov	x0, x25
  400a5c:	a94153f3 	ldp	x19, x20, [sp, #16]
  400a60:	a9425bf5 	ldp	x21, x22, [sp, #32]
  400a64:	a94363f7 	ldp	x23, x24, [sp, #48]
  400a68:	a9446bf9 	ldp	x25, x26, [sp, #64]
  400a6c:	a94573fb 	ldp	x27, x28, [sp, #80]
  400a70:	a8c67bfd 	ldp	x29, x30, [sp], #96
  400a74:	d65f03c0 	ret
  400a78:	531f7b18 	lsl	w24, w24, #1
  400a7c:	aa1903f4 	mov	x20, x25
  400a80:	17ffffb9 	b	400964 <core_list_mergesort+0x2c>
  400a84:	d2800000 	mov	x0, #0x0                   	// #0
  400a88:	f900001f 	str	xzr, [x0]
  400a8c:	aa1403f9 	mov	x25, x20
  400a90:	17fffff2 	b	400a58 <core_list_mergesort+0x120>

0000000000400a94 <core_bench_list>:
  400a94:	a9b97bfd 	stp	x29, x30, [sp, #-112]!
  400a98:	910003fd 	mov	x29, sp
  400a9c:	a90153f3 	stp	x19, x20, [sp, #16]
  400aa0:	a9025bf5 	stp	x21, x22, [sp, #32]
  400aa4:	a90363f7 	stp	x23, x24, [sp, #48]
  400aa8:	a9046bf9 	stp	x25, x26, [sp, #64]
  400aac:	a90573fb 	stp	x27, x28, [sp, #80]
  400ab0:	aa0003fa 	mov	x26, x0
  400ab4:	13003c3b 	sxth	w27, w1
  400ab8:	d0000440 	adrp	x0, 48a000 <__FRAME_END__+0xfbac>
  400abc:	f947a400 	ldr	x0, [x0, #3912]
  400ac0:	f9400001 	ldr	x1, [x0]
  400ac4:	f90037e1 	str	x1, [sp, #104]
  400ac8:	d2800001 	mov	x1, #0x0                   	// #0
  400acc:	f9401f54 	ldr	x20, [x26, #56]
  400ad0:	79c00b59 	ldrsh	w25, [x26, #4]
  400ad4:	7900c7fb 	strh	w27, [sp, #98]
  400ad8:	7100033f 	cmp	w25, #0x0
  400adc:	5400064d 	b.le	400ba4 <core_bench_list+0x110>
  400ae0:	52800017 	mov	w23, #0x0                   	// #0
  400ae4:	52800018 	mov	w24, #0x0                   	// #0
  400ae8:	52800016 	mov	w22, #0x0                   	// #0
  400aec:	52800013 	mov	w19, #0x0                   	// #0
  400af0:	910183fc 	add	x28, sp, #0x60
  400af4:	14000011 	b	400b38 <core_bench_list+0xa4>
  400af8:	11000718 	add	w24, w24, #0x1
  400afc:	12003f18 	and	w24, w24, #0xffff
  400b00:	f9400000 	ldr	x0, [x0]
  400b04:	f9400400 	ldr	x0, [x0, #8]
  400b08:	39c00400 	ldrsb	w0, [x0, #1]
  400b0c:	12000000 	and	w0, w0, #0x1
  400b10:	0b000273 	add	w19, w19, w0
  400b14:	12003e73 	and	w19, w19, #0xffff
  400b18:	79c0c7e0 	ldrsh	w0, [sp, #98]
  400b1c:	37f80060 	tbnz	w0, #31, 400b28 <core_bench_list+0x94>
  400b20:	11000400 	add	w0, w0, #0x1
  400b24:	7900c7e0 	strh	w0, [sp, #98]
  400b28:	110006e0 	add	w0, w23, #0x1
  400b2c:	13003c17 	sxth	w23, w0
  400b30:	6b20a33f 	cmp	w25, w0, sxth
  400b34:	540003e0 	b.eq	400bb0 <core_bench_list+0x11c>  // b.none
  400b38:	12001ee0 	and	w0, w23, #0xff
  400b3c:	7900c3e0 	strh	w0, [sp, #96]
  400b40:	aa1c03e1 	mov	x1, x28
  400b44:	aa1403e0 	mov	x0, x20
  400b48:	97ffff60 	bl	4008c8 <core_list_find>
  400b4c:	aa0003f5 	mov	x21, x0
  400b50:	aa1403e0 	mov	x0, x20
  400b54:	97ffff70 	bl	400914 <core_list_reverse>
  400b58:	aa0003f4 	mov	x20, x0
  400b5c:	b4fffcf5 	cbz	x21, 400af8 <core_bench_list+0x64>
  400b60:	110006d6 	add	w22, w22, #0x1
  400b64:	12003ed6 	and	w22, w22, #0xffff
  400b68:	f94006a0 	ldr	x0, [x21, #8]
  400b6c:	79c00001 	ldrsh	w1, [x0]
  400b70:	d3492420 	ubfx	x0, x1, #9, #1
  400b74:	0b000260 	add	w0, w19, w0
  400b78:	12003c00 	and	w0, w0, #0xffff
  400b7c:	f240003f 	tst	x1, #0x1
  400b80:	1a931013 	csel	w19, w0, w19, ne  // ne = any
  400b84:	f94002a0 	ldr	x0, [x21]
  400b88:	b4fffc80 	cbz	x0, 400b18 <core_bench_list+0x84>
  400b8c:	f9400001 	ldr	x1, [x0]
  400b90:	f90002a1 	str	x1, [x21]
  400b94:	f9400281 	ldr	x1, [x20]
  400b98:	f9000001 	str	x1, [x0]
  400b9c:	f9000280 	str	x0, [x20]
  400ba0:	17ffffde 	b	400b18 <core_bench_list+0x84>
  400ba4:	52800018 	mov	w24, #0x0                   	// #0
  400ba8:	52800016 	mov	w22, #0x0                   	// #0
  400bac:	52800013 	mov	w19, #0x0                   	// #0
  400bb0:	531e36d6 	ubfiz	w22, w22, #2, #14
  400bb4:	4b1802d8 	sub	w24, w22, w24
  400bb8:	0b180273 	add	w19, w19, w24
  400bbc:	12003e73 	and	w19, w19, #0xffff
  400bc0:	7100037f 	cmp	w27, #0x0
  400bc4:	5400062c 	b.gt	400c88 <core_bench_list+0x1f4>
  400bc8:	f9400280 	ldr	x0, [x20]
  400bcc:	97ffff2c 	bl	40087c <core_list_remove>
  400bd0:	aa0003f6 	mov	x22, x0
  400bd4:	910183e1 	add	x1, sp, #0x60
  400bd8:	aa1403e0 	mov	x0, x20
  400bdc:	97ffff3b 	bl	4008c8 <core_list_find>
  400be0:	aa0003f5 	mov	x21, x0
  400be4:	b4000600 	cbz	x0, 400ca4 <core_bench_list+0x210>
  400be8:	f9400682 	ldr	x2, [x20, #8]
  400bec:	2a1303e1 	mov	w1, w19
  400bf0:	79400040 	ldrh	w0, [x2]
  400bf4:	94000628 	bl	402494 <crc16>
  400bf8:	12003c13 	and	w19, w0, #0xffff
  400bfc:	f94002b5 	ldr	x21, [x21]
  400c00:	b5ffff55 	cbnz	x21, 400be8 <core_bench_list+0x154>
  400c04:	f9400281 	ldr	x1, [x20]
  400c08:	aa1603e0 	mov	x0, x22
  400c0c:	97ffff27 	bl	4008a8 <core_list_undo_remove>
  400c10:	d2800002 	mov	x2, #0x0                   	// #0
  400c14:	90000001 	adrp	x1, 400000 <__ehdr_start>
  400c18:	911ab021 	add	x1, x1, #0x6ac
  400c1c:	aa1403e0 	mov	x0, x20
  400c20:	97ffff46 	bl	400938 <core_list_mergesort>
  400c24:	aa0003f5 	mov	x21, x0
  400c28:	f9400014 	ldr	x20, [x0]
  400c2c:	b4000114 	cbz	x20, 400c4c <core_bench_list+0x1b8>
  400c30:	f94006a2 	ldr	x2, [x21, #8]
  400c34:	2a1303e1 	mov	w1, w19
  400c38:	79400040 	ldrh	w0, [x2]
  400c3c:	94000616 	bl	402494 <crc16>
  400c40:	12003c13 	and	w19, w0, #0xffff
  400c44:	f9400294 	ldr	x20, [x20]
  400c48:	b5ffff54 	cbnz	x20, 400c30 <core_bench_list+0x19c>
  400c4c:	d0000440 	adrp	x0, 48a000 <__FRAME_END__+0xfbac>
  400c50:	f947a400 	ldr	x0, [x0, #3912]
  400c54:	f94037e1 	ldr	x1, [sp, #104]
  400c58:	f9400002 	ldr	x2, [x0]
  400c5c:	eb020021 	subs	x1, x1, x2
  400c60:	d2800002 	mov	x2, #0x0                   	// #0
  400c64:	54000261 	b.ne	400cb0 <core_bench_list+0x21c>  // b.any
  400c68:	2a1303e0 	mov	w0, w19
  400c6c:	a94153f3 	ldp	x19, x20, [sp, #16]
  400c70:	a9425bf5 	ldp	x21, x22, [sp, #32]
  400c74:	a94363f7 	ldp	x23, x24, [sp, #48]
  400c78:	a9446bf9 	ldp	x25, x26, [sp, #64]
  400c7c:	a94573fb 	ldp	x27, x28, [sp, #80]
  400c80:	a8c77bfd 	ldp	x29, x30, [sp], #112
  400c84:	d65f03c0 	ret
  400c88:	aa1a03e2 	mov	x2, x26
  400c8c:	90000001 	adrp	x1, 400000 <__ehdr_start>
  400c90:	911ee021 	add	x1, x1, #0x7b8
  400c94:	aa1403e0 	mov	x0, x20
  400c98:	97ffff28 	bl	400938 <core_list_mergesort>
  400c9c:	aa0003f4 	mov	x20, x0
  400ca0:	17ffffca 	b	400bc8 <core_bench_list+0x134>
  400ca4:	f9400295 	ldr	x21, [x20]
  400ca8:	b5fffa15 	cbnz	x21, 400be8 <core_bench_list+0x154>
  400cac:	17ffffd6 	b	400c04 <core_bench_list+0x170>
  400cb0:	94006d64 	bl	41c240 <__stack_chk_fail>

0000000000400cb4 <core_list_init>:
  400cb4:	a9b77bfd 	stp	x29, x30, [sp, #-144]!
  400cb8:	910003fd 	mov	x29, sp
  400cbc:	a90153f3 	stp	x19, x20, [sp, #16]
  400cc0:	a9025bf5 	stp	x21, x22, [sp, #32]
  400cc4:	a90363f7 	stp	x23, x24, [sp, #48]
  400cc8:	f90037e1 	str	x1, [sp, #104]
  400ccc:	13003c57 	sxth	w23, w2
  400cd0:	d0000442 	adrp	x2, 48a000 <__FRAME_END__+0xfbac>
  400cd4:	f947a442 	ldr	x2, [x2, #3912]
  400cd8:	f9400043 	ldr	x3, [x2]
  400cdc:	f90047e3 	str	x3, [sp, #136]
  400ce0:	d2800003 	mov	x3, #0x0                   	// #0
  400ce4:	529999b4 	mov	w20, #0xcccd                	// #52429
  400ce8:	72b99994 	movk	w20, #0xcccc, lsl #16
  400cec:	9bb47c14 	umull	x20, w0, w20
  400cf0:	d364fe94 	lsr	x20, x20, #36
  400cf4:	51000a94 	sub	w20, w20, #0x2
  400cf8:	aa0103f5 	mov	x21, x1
  400cfc:	d37c7e96 	ubfiz	x22, x20, #4, #32
  400d00:	8b160036 	add	x22, x1, x22
  400d04:	f90043f6 	str	x22, [sp, #128]
  400d08:	8b344ad8 	add	x24, x22, w20, uxtw #2
  400d0c:	f900003f 	str	xzr, [x1]
  400d10:	f94043e0 	ldr	x0, [sp, #128]
  400d14:	f9000420 	str	x0, [x1, #8]
  400d18:	7900041f 	strh	wzr, [x0, #2]
  400d1c:	f9400420 	ldr	x0, [x1, #8]
  400d20:	128fefe1 	mov	w1, #0xffff8080            	// #-32640
  400d24:	79000001 	strh	w1, [x0]
  400d28:	f94037e0 	ldr	x0, [sp, #104]
  400d2c:	91004000 	add	x0, x0, #0x10
  400d30:	f90037e0 	str	x0, [sp, #104]
  400d34:	f94043e0 	ldr	x0, [sp, #128]
  400d38:	91001000 	add	x0, x0, #0x4
  400d3c:	f90043e0 	str	x0, [sp, #128]
  400d40:	528fffe0 	mov	w0, #0x7fff                	// #32767
  400d44:	7900f7e0 	strh	w0, [sp, #122]
  400d48:	12800000 	mov	w0, #0xffffffff            	// #-1
  400d4c:	7900f3e0 	strh	w0, [sp, #120]
  400d50:	aa1803e5 	mov	x5, x24
  400d54:	aa1603e4 	mov	x4, x22
  400d58:	910203e3 	add	x3, sp, #0x80
  400d5c:	9101a3e2 	add	x2, sp, #0x68
  400d60:	9101e3e1 	add	x1, sp, #0x78
  400d64:	aa1503e0 	mov	x0, x21
  400d68:	97fffeaa 	bl	400810 <core_list_insert_new>
  400d6c:	34000354 	cbz	w20, 400dd4 <core_list_init+0x120>
  400d70:	a9046bf9 	stp	x25, x26, [sp, #64]
  400d74:	f9002bfb 	str	x27, [sp, #80]
  400d78:	52800013 	mov	w19, #0x0                   	// #0
  400d7c:	910203fb 	add	x27, sp, #0x80
  400d80:	9101a3fa 	add	x26, sp, #0x68
  400d84:	9101e3f9 	add	x25, sp, #0x78
  400d88:	12003e61 	and	w1, w19, #0xffff
  400d8c:	4a170020 	eor	w0, w1, w23
  400d90:	531d0c00 	ubfiz	w0, w0, #3, #4
  400d94:	12000821 	and	w1, w1, #0x7
  400d98:	2a010000 	orr	w0, w0, w1
  400d9c:	2a002000 	orr	w0, w0, w0, lsl #8
  400da0:	7900f3e0 	strh	w0, [sp, #120]
  400da4:	aa1803e5 	mov	x5, x24
  400da8:	aa1603e4 	mov	x4, x22
  400dac:	aa1b03e3 	mov	x3, x27
  400db0:	aa1a03e2 	mov	x2, x26
  400db4:	aa1903e1 	mov	x1, x25
  400db8:	aa1503e0 	mov	x0, x21
  400dbc:	97fffe95 	bl	400810 <core_list_insert_new>
  400dc0:	11000673 	add	w19, w19, #0x1
  400dc4:	6b13029f 	cmp	w20, w19
  400dc8:	54fffe01 	b.ne	400d88 <core_list_init+0xd4>  // b.any
  400dcc:	a9446bf9 	ldp	x25, x26, [sp, #64]
  400dd0:	f9402bfb 	ldr	x27, [sp, #80]
  400dd4:	f94002a0 	ldr	x0, [x21]
  400dd8:	f9400001 	ldr	x1, [x0]
  400ddc:	b4000301 	cbz	x1, 400e3c <core_list_init+0x188>
  400de0:	529999a1 	mov	w1, #0xcccd                	// #52429
  400de4:	72b99981 	movk	w1, #0xcccc, lsl #16
  400de8:	9ba17e94 	umull	x20, w20, w1
  400dec:	d362fe94 	lsr	x20, x20, #34
  400df0:	52800021 	mov	w1, #0x1                   	// #1
  400df4:	1400000d 	b	400e28 <core_list_init+0x174>
  400df8:	12003c23 	and	w3, w1, #0xffff
  400dfc:	f9400404 	ldr	x4, [x0, #8]
  400e00:	11000462 	add	w2, w3, #0x1
  400e04:	53180842 	ubfiz	w2, w2, #8, #3
  400e08:	4a170063 	eor	w3, w3, w23
  400e0c:	2a030042 	orr	w2, w2, w3
  400e10:	12003442 	and	w2, w2, #0x3fff
  400e14:	79000482 	strh	w2, [x4, #2]
  400e18:	f9400000 	ldr	x0, [x0]
  400e1c:	11000421 	add	w1, w1, #0x1
  400e20:	f9400002 	ldr	x2, [x0]
  400e24:	b40000c2 	cbz	x2, 400e3c <core_list_init+0x188>
  400e28:	6b01029f 	cmp	w20, w1
  400e2c:	54fffe69 	b.ls	400df8 <core_list_init+0x144>  // b.plast
  400e30:	f9400402 	ldr	x2, [x0, #8]
  400e34:	79000441 	strh	w1, [x2, #2]
  400e38:	17fffff8 	b	400e18 <core_list_init+0x164>
  400e3c:	d2800002 	mov	x2, #0x0                   	// #0
  400e40:	90000001 	adrp	x1, 400000 <__ehdr_start>
  400e44:	911ab021 	add	x1, x1, #0x6ac
  400e48:	aa1503e0 	mov	x0, x21
  400e4c:	97fffebb 	bl	400938 <core_list_mergesort>
  400e50:	d0000441 	adrp	x1, 48a000 <__FRAME_END__+0xfbac>
  400e54:	f947a421 	ldr	x1, [x1, #3912]
  400e58:	f94047e2 	ldr	x2, [sp, #136]
  400e5c:	f9400023 	ldr	x3, [x1]
  400e60:	eb030042 	subs	x2, x2, x3
  400e64:	d2800003 	mov	x3, #0x0                   	// #0
  400e68:	540000c1 	b.ne	400e80 <core_list_init+0x1cc>  // b.any
  400e6c:	a94153f3 	ldp	x19, x20, [sp, #16]
  400e70:	a9425bf5 	ldp	x21, x22, [sp, #32]
  400e74:	a94363f7 	ldp	x23, x24, [sp, #48]
  400e78:	a8c97bfd 	ldp	x29, x30, [sp], #144
  400e7c:	d65f03c0 	ret
  400e80:	a9046bf9 	stp	x25, x26, [sp, #64]
  400e84:	f9002bfb 	str	x27, [sp, #80]
  400e88:	94006cee 	bl	41c240 <__stack_chk_fail>

0000000000400e8c <iterate>:
  400e8c:	a9bc7bfd 	stp	x29, x30, [sp, #-64]!
  400e90:	910003fd 	mov	x29, sp
  400e94:	a9025bf5 	stp	x21, x22, [sp, #32]
  400e98:	b9402c15 	ldr	w21, [x0, #44]
  400e9c:	7900c01f 	strh	wzr, [x0, #96]
  400ea0:	7900c41f 	strh	wzr, [x0, #98]
  400ea4:	7900c81f 	strh	wzr, [x0, #100]
  400ea8:	7900cc1f 	strh	wzr, [x0, #102]
  400eac:	34000395 	cbz	w21, 400f1c <iterate+0x90>
  400eb0:	a90153f3 	stp	x19, x20, [sp, #16]
  400eb4:	f9001bf7 	str	x23, [sp, #48]
  400eb8:	aa0003f3 	mov	x19, x0
  400ebc:	52800014 	mov	w20, #0x0                   	// #0
  400ec0:	52800037 	mov	w23, #0x1                   	// #1
  400ec4:	12800016 	mov	w22, #0xffffffff            	// #-1
  400ec8:	14000004 	b	400ed8 <iterate+0x4c>
  400ecc:	11000694 	add	w20, w20, #0x1
  400ed0:	6b1402bf 	cmp	w21, w20
  400ed4:	54000200 	b.eq	400f14 <iterate+0x88>  // b.none
  400ed8:	2a1703e1 	mov	w1, w23
  400edc:	aa1303e0 	mov	x0, x19
  400ee0:	97fffeed 	bl	400a94 <core_bench_list>
  400ee4:	7940c261 	ldrh	w1, [x19, #96]
  400ee8:	94000554 	bl	402438 <crcu16>
  400eec:	7900c260 	strh	w0, [x19, #96]
  400ef0:	2a1603e1 	mov	w1, w22
  400ef4:	aa1303e0 	mov	x0, x19
  400ef8:	97fffee7 	bl	400a94 <core_bench_list>
  400efc:	7940c261 	ldrh	w1, [x19, #96]
  400f00:	9400054e 	bl	402438 <crcu16>
  400f04:	7900c260 	strh	w0, [x19, #96]
  400f08:	35fffe34 	cbnz	w20, 400ecc <iterate+0x40>
  400f0c:	7900c660 	strh	w0, [x19, #98]
  400f10:	17ffffef 	b	400ecc <iterate+0x40>
  400f14:	a94153f3 	ldp	x19, x20, [sp, #16]
  400f18:	f9401bf7 	ldr	x23, [sp, #48]
  400f1c:	d2800000 	mov	x0, #0x0                   	// #0
  400f20:	a9425bf5 	ldp	x21, x22, [sp, #32]
  400f24:	a8c47bfd 	ldp	x29, x30, [sp], #64
  400f28:	d65f03c0 	ret

0000000000400f2c <main>:
  400f2c:	a9b07bfd 	stp	x29, x30, [sp, #-256]!
  400f30:	910003fd 	mov	x29, sp
  400f34:	a90153f3 	stp	x19, x20, [sp, #16]
  400f38:	a9025bf5 	stp	x21, x22, [sp, #32]
  400f3c:	a90363f7 	stp	x23, x24, [sp, #48]
  400f40:	a9046bf9 	stp	x25, x26, [sp, #64]
  400f44:	a90573fb 	stp	x27, x28, [sp, #80]
  400f48:	fd0033e8 	str	d8, [sp, #96]
  400f4c:	b9007fe0 	str	w0, [sp, #124]
  400f50:	aa0103f3 	mov	x19, x1
  400f54:	d0000440 	adrp	x0, 48a000 <__FRAME_END__+0xfbac>
  400f58:	f947a400 	ldr	x0, [x0, #3912]
  400f5c:	f9400001 	ldr	x1, [x0]
  400f60:	f9007fe1 	str	x1, [sp, #248]
  400f64:	d2800001 	mov	x1, #0x0                   	// #0
  400f68:	aa1303e2 	mov	x2, x19
  400f6c:	9101f3e1 	add	x1, sp, #0x7c
  400f70:	9103cbe0 	add	x0, sp, #0xf2
  400f74:	94000584 	bl	402584 <portable_init>
  400f78:	aa1303e2 	mov	x2, x19
  400f7c:	b9407fe1 	ldr	w1, [sp, #124]
  400f80:	52800020 	mov	w0, #0x1                   	// #1
  400f84:	94000514 	bl	4023d4 <get_seed_args>
  400f88:	790113e0 	strh	w0, [sp, #136]
  400f8c:	aa1303e2 	mov	x2, x19
  400f90:	b9407fe1 	ldr	w1, [sp, #124]
  400f94:	52800040 	mov	w0, #0x2                   	// #2
  400f98:	9400050f 	bl	4023d4 <get_seed_args>
  400f9c:	790117e0 	strh	w0, [sp, #138]
  400fa0:	aa1303e2 	mov	x2, x19
  400fa4:	b9407fe1 	ldr	w1, [sp, #124]
  400fa8:	52800060 	mov	w0, #0x3                   	// #3
  400fac:	9400050a 	bl	4023d4 <get_seed_args>
  400fb0:	79011be0 	strh	w0, [sp, #140]
  400fb4:	52800140 	mov	w0, #0xa                   	// #10
  400fb8:	b900b7e0 	str	w0, [sp, #180]
  400fbc:	aa1303e2 	mov	x2, x19
  400fc0:	b9407fe1 	ldr	w1, [sp, #124]
  400fc4:	528000a0 	mov	w0, #0x5                   	// #5
  400fc8:	94000503 	bl	4023d4 <get_seed_args>
  400fcc:	7100001f 	cmp	w0, #0x0
  400fd0:	528000e1 	mov	w1, #0x7                   	// #7
  400fd4:	1a811000 	csel	w0, w0, w1, ne  // ne = any
  400fd8:	b900bbe0 	str	w0, [sp, #184]
  400fdc:	f94047e0 	ldr	x0, [sp, #136]
  400fe0:	f240bc1f 	tst	x0, #0xffffffffffff
  400fe4:	540000a1 	b.ne	400ff8 <main+0xcc>  // b.any
  400fe8:	790113ff 	strh	wzr, [sp, #136]
  400fec:	790117ff 	strh	wzr, [sp, #138]
  400ff0:	52800cc0 	mov	w0, #0x66                  	// #102
  400ff4:	79011be0 	strh	w0, [sp, #140]
  400ff8:	f94047e0 	ldr	x0, [sp, #136]
  400ffc:	9240bc00 	and	x0, x0, #0xffffffffffff
  401000:	f100041f 	cmp	x0, #0x1
  401004:	54000420 	b.eq	401088 <main+0x15c>  // b.none
  401008:	aa1303e2 	mov	x2, x19
  40100c:	b9407fe1 	ldr	w1, [sp, #124]
  401010:	528000e0 	mov	w0, #0x7                   	// #7
  401014:	940004f0 	bl	4023d4 <get_seed_args>
  401018:	13003c00 	sxth	w0, w0
  40101c:	7100001f 	cmp	w0, #0x0
  401020:	5280fa01 	mov	w1, #0x7d0                 	// #2000
  401024:	1a811000 	csel	w0, w0, w1, ne  // ne = any
  401028:	b900b3e0 	str	w0, [sp, #176]
  40102c:	2a0003e0 	mov	w0, w0
  401030:	94000520 	bl	4024b0 <portable_malloc>
  401034:	f9004be0 	str	x0, [sp, #144]
  401038:	7901e3ff 	strh	wzr, [sp, #240]
  40103c:	b940bbe2 	ldr	w2, [sp, #184]
  401040:	12000041 	and	w1, w2, #0x1
  401044:	11000421 	add	w1, w1, #0x1
  401048:	12003c21 	and	w1, w1, #0xffff
  40104c:	12000043 	and	w3, w2, #0x1
  401050:	f27f005f 	tst	x2, #0x2
  401054:	1a810061 	csel	w1, w3, w1, eq  // eq = none
  401058:	11000423 	add	w3, w1, #0x1
  40105c:	12003c63 	and	w3, w3, #0xffff
  401060:	f27e005f 	tst	x2, #0x4
  401064:	1a811061 	csel	w1, w3, w1, ne  // ne = any
  401068:	b940b3e5 	ldr	w5, [sp, #176]
  40106c:	1ac108a5 	udiv	w5, w5, w1
  401070:	b900b3e5 	str	w5, [sp, #176]
  401074:	d2800001 	mov	x1, #0x0                   	// #0
  401078:	52800004 	mov	w4, #0x0                   	// #0
  40107c:	52800026 	mov	w6, #0x1                   	// #1
  401080:	910223e7 	add	x7, sp, #0x88
  401084:	1400000a 	b	4010ac <main+0x180>
  401088:	528682a0 	mov	w0, #0x3415                	// #13333
  40108c:	790113e0 	strh	w0, [sp, #136]
  401090:	790117e0 	strh	w0, [sp, #138]
  401094:	52800cc0 	mov	w0, #0x66                  	// #102
  401098:	79011be0 	strh	w0, [sp, #140]
  40109c:	17ffffdb 	b	401008 <main+0xdc>
  4010a0:	91000421 	add	x1, x1, #0x1
  4010a4:	f1000c3f 	cmp	x1, #0x3
  4010a8:	54000160 	b.eq	4010d4 <main+0x1a8>  // b.none
  4010ac:	1ac120c3 	lsl	w3, w6, w1
  4010b0:	6a02007f 	tst	w3, w2
  4010b4:	54ffff60 	b.eq	4010a0 <main+0x174>  // b.none
  4010b8:	8b010ce8 	add	x8, x7, x1, lsl #3
  4010bc:	1b057c83 	mul	w3, w4, w5
  4010c0:	8b030003 	add	x3, x0, x3
  4010c4:	f9000903 	str	x3, [x8, #16]
  4010c8:	11000484 	add	w4, w4, #0x1
  4010cc:	12003c84 	and	w4, w4, #0xffff
  4010d0:	17fffff4 	b	4010a0 <main+0x174>
  4010d4:	b940bbe0 	ldr	w0, [sp, #184]
  4010d8:	37000840 	tbnz	w0, #0, 4011e0 <main+0x2b4>
  4010dc:	b940bbe0 	ldr	w0, [sp, #184]
  4010e0:	370808c0 	tbnz	w0, #1, 4011f8 <main+0x2cc>
  4010e4:	b940bbe0 	ldr	w0, [sp, #184]
  4010e8:	37100980 	tbnz	w0, #2, 401218 <main+0x2ec>
  4010ec:	b940b7e0 	ldr	w0, [sp, #180]
  4010f0:	35000320 	cbnz	w0, 401154 <main+0x228>
  4010f4:	52800020 	mov	w0, #0x1                   	// #1
  4010f8:	b900b7e0 	str	w0, [sp, #180]
  4010fc:	910223f3 	add	x19, sp, #0x88
  401100:	1e6e1008 	fmov	d8, #1.000000000000000000e+00
  401104:	b940b7e0 	ldr	w0, [sp, #180]
  401108:	0b000800 	add	w0, w0, w0, lsl #2
  40110c:	531f7800 	lsl	w0, w0, #1
  401110:	b900b7e0 	str	w0, [sp, #180]
  401114:	940004f1 	bl	4024d8 <start_time>
  401118:	aa1303e0 	mov	x0, x19
  40111c:	97ffff5c 	bl	400e8c <iterate>
  401120:	940004f6 	bl	4024f8 <stop_time>
  401124:	940004fe 	bl	40251c <get_time>
  401128:	94000511 	bl	40256c <time_in_secs>
  40112c:	1e682010 	fcmpe	d0, d8
  401130:	54fffea4 	b.mi	401104 <main+0x1d8>  // b.first
  401134:	1e790000 	fcvtzu	w0, d0
  401138:	7100001f 	cmp	w0, #0x0
  40113c:	1a9f1400 	csinc	w0, w0, wzr, ne  // ne = any
  401140:	52800141 	mov	w1, #0xa                   	// #10
  401144:	1ac00820 	udiv	w0, w1, w0
  401148:	b940b7e1 	ldr	w1, [sp, #180]
  40114c:	1b010401 	madd	w1, w0, w1, w1
  401150:	b900b7e1 	str	w1, [sp, #180]
  401154:	940004e1 	bl	4024d8 <start_time>
  401158:	910223e0 	add	x0, sp, #0x88
  40115c:	97ffff4c 	bl	400e8c <iterate>
  401160:	940004e6 	bl	4024f8 <stop_time>
  401164:	940004ee 	bl	40251c <get_time>
  401168:	aa0003f9 	mov	x25, x0
  40116c:	52800001 	mov	w1, #0x0                   	// #0
  401170:	794113e0 	ldrh	w0, [sp, #136]
  401174:	940004c8 	bl	402494 <crc16>
  401178:	2a0003e1 	mov	w1, w0
  40117c:	794117e0 	ldrh	w0, [sp, #138]
  401180:	940004c5 	bl	402494 <crc16>
  401184:	2a0003e1 	mov	w1, w0
  401188:	79411be0 	ldrh	w0, [sp, #140]
  40118c:	940004c2 	bl	402494 <crc16>
  401190:	2a0003e1 	mov	w1, w0
  401194:	794163e0 	ldrh	w0, [sp, #176]
  401198:	940004bf 	bl	402494 <crc16>
  40119c:	12003c1b 	and	w27, w0, #0xffff
  4011a0:	528f60a1 	mov	w1, #0x7b05                	// #31493
  4011a4:	6b20203f 	cmp	w1, w0, uxth
  4011a8:	54000840 	b.eq	4012b0 <main+0x384>  // b.none
  4011ac:	6b01037f 	cmp	w27, w1
  4011b0:	540003e9 	b.ls	40122c <main+0x300>  // b.plast
  4011b4:	52914040 	mov	w0, #0x8a02                	// #35330
  4011b8:	6b00037f 	cmp	w27, w0
  4011bc:	540005a0 	b.eq	401270 <main+0x344>  // b.none
  4011c0:	529d3ea0 	mov	w0, #0xe9f5                	// #59893
  4011c4:	6b00037f 	cmp	w27, w0
  4011c8:	540004e1 	b.ne	401264 <main+0x338>  // b.any
  4011cc:	d0000280 	adrp	x0, 453000 <_nl_locale_subfreeres+0x1a8>
  4011d0:	9113e000 	add	x0, x0, #0x4f8
  4011d4:	9400200b 	bl	409200 <_IO_puts>
  4011d8:	52800074 	mov	w20, #0x3                   	// #3
  4011dc:	14000029 	b	401280 <main+0x354>
  4011e0:	794113e2 	ldrh	w2, [sp, #136]
  4011e4:	f9404fe1 	ldr	x1, [sp, #152]
  4011e8:	b940b3e0 	ldr	w0, [sp, #176]
  4011ec:	97fffeb2 	bl	400cb4 <core_list_init>
  4011f0:	f90063e0 	str	x0, [sp, #192]
  4011f4:	17ffffba 	b	4010dc <main+0x1b0>
  4011f8:	79c117e2 	ldrsh	w2, [sp, #138]
  4011fc:	79c113e0 	ldrsh	w0, [sp, #136]
  401200:	910323e3 	add	x3, sp, #0xc8
  401204:	2a024002 	orr	w2, w0, w2, lsl #16
  401208:	f94053e1 	ldr	x1, [sp, #160]
  40120c:	b940b3e0 	ldr	w0, [sp, #176]
  401210:	9400018b 	bl	40183c <core_init_matrix>
  401214:	17ffffb4 	b	4010e4 <main+0x1b8>
  401218:	f94057e2 	ldr	x2, [sp, #168]
  40121c:	794113e1 	ldrh	w1, [sp, #136]
  401220:	b940b3e0 	ldr	w0, [sp, #176]
  401224:	940002cf 	bl	401d60 <core_init_state>
  401228:	17ffffb1 	b	4010ec <main+0x1c0>
  40122c:	52831e40 	mov	w0, #0x18f2                	// #6386
  401230:	6b00037f 	cmp	w27, w0
  401234:	54000480 	b.eq	4012c4 <main+0x398>  // b.none
  401238:	5289d5e0 	mov	w0, #0x4eaf                	// #20143
  40123c:	6b00037f 	cmp	w27, w0
  401240:	540000c1 	b.ne	401258 <main+0x32c>  // b.any
  401244:	d0000280 	adrp	x0, 453000 <_nl_locale_subfreeres+0x1a8>
  401248:	91132000 	add	x0, x0, #0x4c8
  40124c:	94001fed 	bl	409200 <_IO_puts>
  401250:	52800054 	mov	w20, #0x2                   	// #2
  401254:	1400000b 	b	401280 <main+0x354>
  401258:	12800014 	mov	w20, #0xffffffff            	// #-1
  40125c:	2a1403f8 	mov	w24, w20
  401260:	1400007e 	b	401458 <main+0x52c>
  401264:	12800014 	mov	w20, #0xffffffff            	// #-1
  401268:	2a1403f8 	mov	w24, w20
  40126c:	1400007b 	b	401458 <main+0x52c>
  401270:	d0000280 	adrp	x0, 453000 <_nl_locale_subfreeres+0x1a8>
  401274:	9111a000 	add	x0, x0, #0x468
  401278:	94001fe2 	bl	409200 <_IO_puts>
  40127c:	52800014 	mov	w20, #0x0                   	// #0
  401280:	b0000440 	adrp	x0, 48a000 <__FRAME_END__+0xfbac>
  401284:	f947e800 	ldr	x0, [x0, #4048]
  401288:	b9400000 	ldr	w0, [x0]
  40128c:	52800018 	mov	w24, #0x0                   	// #0
  401290:	52800015 	mov	w21, #0x0                   	// #0
  401294:	34000e00 	cbz	w0, 401454 <main+0x528>
  401298:	9103c3f6 	add	x22, sp, #0xf0
  40129c:	9102e3f7 	add	x23, sp, #0xb8
  4012a0:	d000029a 	adrp	x26, 453000 <_nl_locale_subfreeres+0x1a8>
  4012a4:	9124435a 	add	x26, x26, #0x910
  4012a8:	9100435c 	add	x28, x26, #0x10
  4012ac:	1400003e 	b	4013a4 <main+0x478>
  4012b0:	d0000280 	adrp	x0, 453000 <_nl_locale_subfreeres+0x1a8>
  4012b4:	91126000 	add	x0, x0, #0x498
  4012b8:	94001fd2 	bl	409200 <_IO_puts>
  4012bc:	52800034 	mov	w20, #0x1                   	// #1
  4012c0:	17fffff0 	b	401280 <main+0x354>
  4012c4:	d0000280 	adrp	x0, 453000 <_nl_locale_subfreeres+0x1a8>
  4012c8:	9114a000 	add	x0, x0, #0x528
  4012cc:	94001fcd 	bl	409200 <_IO_puts>
  4012d0:	52800094 	mov	w20, #0x4                   	// #4
  4012d4:	17ffffeb 	b	401280 <main+0x354>
  4012d8:	2a1503e2 	mov	w2, w21
  4012dc:	d0000281 	adrp	x1, 453000 <_nl_locale_subfreeres+0x1a8>
  4012e0:	91156021 	add	x1, x1, #0x558
  4012e4:	52800020 	mov	w0, #0x1                   	// #1
  4012e8:	94006ba8 	bl	41c188 <___printf_chk>
  4012ec:	93407ea2 	sxtw	x2, w21
  4012f0:	937d7ea0 	sbfiz	x0, x21, #3, #32
  4012f4:	cb020001 	sub	x1, x0, x2
  4012f8:	d37cec21 	lsl	x1, x1, #4
  4012fc:	78616ac0 	ldrh	w0, [x22, x1]
  401300:	11000400 	add	w0, w0, #0x1
  401304:	78216ac0 	strh	w0, [x22, x1]
  401308:	14000037 	b	4013e4 <main+0x4b8>
  40130c:	2a1303e2 	mov	w2, w19
  401310:	d0000281 	adrp	x1, 453000 <_nl_locale_subfreeres+0x1a8>
  401314:	91162021 	add	x1, x1, #0x588
  401318:	52800020 	mov	w0, #0x1                   	// #1
  40131c:	94006b9b 	bl	41c188 <___printf_chk>
  401320:	93407e62 	sxtw	x2, w19
  401324:	937d7e60 	sbfiz	x0, x19, #3, #32
  401328:	cb020001 	sub	x1, x0, x2
  40132c:	d37cec21 	lsl	x1, x1, #4
  401330:	78616ac0 	ldrh	w0, [x22, x1]
  401334:	11000400 	add	w0, w0, #0x1
  401338:	78216ac0 	strh	w0, [x22, x1]
  40133c:	14000037 	b	401418 <main+0x4ec>
  401340:	2a1303e2 	mov	w2, w19
  401344:	d0000281 	adrp	x1, 453000 <_nl_locale_subfreeres+0x1a8>
  401348:	91170021 	add	x1, x1, #0x5c0
  40134c:	52800020 	mov	w0, #0x1                   	// #1
  401350:	94006b8e 	bl	41c188 <___printf_chk>
  401354:	93407e62 	sxtw	x2, w19
  401358:	937d7e60 	sbfiz	x0, x19, #3, #32
  40135c:	cb020001 	sub	x1, x0, x2
  401360:	d37cec21 	lsl	x1, x1, #4
  401364:	78616ac0 	ldrh	w0, [x22, x1]
  401368:	11000400 	add	w0, w0, #0x1
  40136c:	78216ac0 	strh	w0, [x22, x1]
  401370:	937d7e60 	sbfiz	x0, x19, #3, #32
  401374:	cb33c013 	sub	x19, x0, w19, sxtw
  401378:	d37cee73 	lsl	x19, x19, #4
  40137c:	78736ac0 	ldrh	w0, [x22, x19]
  401380:	0b000318 	add	w24, w24, w0
  401384:	13003f18 	sxth	w24, w24
  401388:	110006a1 	add	w1, w21, #0x1
  40138c:	12003c35 	and	w21, w1, #0xffff
  401390:	b0000440 	adrp	x0, 48a000 <__FRAME_END__+0xfbac>
  401394:	f947e800 	ldr	x0, [x0, #4048]
  401398:	b9400000 	ldr	w0, [x0]
  40139c:	6b21201f 	cmp	w0, w1, uxth
  4013a0:	540005c9 	b.ls	401458 <main+0x52c>  // b.plast
  4013a4:	2a1503f3 	mov	w19, w21
  4013a8:	93407ea2 	sxtw	x2, w21
  4013ac:	937d7ea0 	sbfiz	x0, x21, #3, #32
  4013b0:	cb020001 	sub	x1, x0, x2
  4013b4:	d37cec21 	lsl	x1, x1, #4
  4013b8:	78216adf 	strh	wzr, [x22, x1]
  4013bc:	b8616ae0 	ldr	w0, [x23, x1]
  4013c0:	36000120 	tbz	w0, #0, 4013e4 <main+0x4b8>
  4013c4:	937d7ea0 	sbfiz	x0, x21, #3, #32
  4013c8:	cb35c000 	sub	x0, x0, w21, sxtw
  4013cc:	910403e1 	add	x1, sp, #0x100
  4013d0:	8b001020 	add	x0, x1, x0, lsl #4
  4013d4:	785ea003 	ldurh	w3, [x0, #-22]
  4013d8:	7874db44 	ldrh	w4, [x26, w20, sxtw #1]
  4013dc:	6b04007f 	cmp	w3, w4
  4013e0:	54fff7c1 	b.ne	4012d8 <main+0x3ac>  // b.any
  4013e4:	937d7e60 	sbfiz	x0, x19, #3, #32
  4013e8:	cb33c000 	sub	x0, x0, w19, sxtw
  4013ec:	d37cec00 	lsl	x0, x0, #4
  4013f0:	b8606ae0 	ldr	w0, [x23, x0]
  4013f4:	36080120 	tbz	w0, #1, 401418 <main+0x4ec>
  4013f8:	937d7e60 	sbfiz	x0, x19, #3, #32
  4013fc:	cb33c000 	sub	x0, x0, w19, sxtw
  401400:	910403e1 	add	x1, sp, #0x100
  401404:	8b001020 	add	x0, x1, x0, lsl #4
  401408:	785ec003 	ldurh	w3, [x0, #-20]
  40140c:	7874db84 	ldrh	w4, [x28, w20, sxtw #1]
  401410:	6b04007f 	cmp	w3, w4
  401414:	54fff7c1 	b.ne	40130c <main+0x3e0>  // b.any
  401418:	937d7e60 	sbfiz	x0, x19, #3, #32
  40141c:	cb33c000 	sub	x0, x0, w19, sxtw
  401420:	d37cec00 	lsl	x0, x0, #4
  401424:	b8606ae0 	ldr	w0, [x23, x0]
  401428:	3617fa40 	tbz	w0, #2, 401370 <main+0x444>
  40142c:	937d7e60 	sbfiz	x0, x19, #3, #32
  401430:	cb33c000 	sub	x0, x0, w19, sxtw
  401434:	910403e1 	add	x1, sp, #0x100
  401438:	8b001020 	add	x0, x1, x0, lsl #4
  40143c:	785ee003 	ldurh	w3, [x0, #-18]
  401440:	91008340 	add	x0, x26, #0x20
  401444:	7874d804 	ldrh	w4, [x0, w20, sxtw #1]
  401448:	6b04007f 	cmp	w3, w4
  40144c:	54fff920 	b.eq	401370 <main+0x444>  // b.none
  401450:	17ffffbc 	b	401340 <main+0x414>
  401454:	52800018 	mov	w24, #0x0                   	// #0
  401458:	94000414 	bl	4024a8 <check_data_types>
  40145c:	0b200318 	add	w24, w24, w0, uxtb
  401460:	12003f18 	and	w24, w24, #0xffff
  401464:	b940b3e2 	ldr	w2, [sp, #176]
  401468:	d0000281 	adrp	x1, 453000 <_nl_locale_subfreeres+0x1a8>
  40146c:	9117c021 	add	x1, x1, #0x5f0
  401470:	52800020 	mov	w0, #0x1                   	// #1
  401474:	94006b45 	bl	41c188 <___printf_chk>
  401478:	aa1903e2 	mov	x2, x25
  40147c:	d0000281 	adrp	x1, 453000 <_nl_locale_subfreeres+0x1a8>
  401480:	91182021 	add	x1, x1, #0x608
  401484:	52800020 	mov	w0, #0x1                   	// #1
  401488:	94006b40 	bl	41c188 <___printf_chk>
  40148c:	aa1903e0 	mov	x0, x25
  401490:	94000437 	bl	40256c <time_in_secs>
  401494:	d0000281 	adrp	x1, 453000 <_nl_locale_subfreeres+0x1a8>
  401498:	91188021 	add	x1, x1, #0x620
  40149c:	52800020 	mov	w0, #0x1                   	// #1
  4014a0:	94006b3a 	bl	41c188 <___printf_chk>
  4014a4:	aa1903e0 	mov	x0, x25
  4014a8:	94000431 	bl	40256c <time_in_secs>
  4014ac:	1e602018 	fcmpe	d0, #0.0
  4014b0:	540014ec 	b.gt	40174c <main+0x820>
  4014b4:	aa1903e0 	mov	x0, x25
  4014b8:	9400042d 	bl	40256c <time_in_secs>
  4014bc:	1e649001 	fmov	d1, #1.000000000000000000e+01
  4014c0:	13003f17 	sxth	w23, w24
  4014c4:	1e612010 	fcmpe	d0, d1
  4014c8:	540015e4 	b.mi	401784 <main+0x858>  // b.first
  4014cc:	b0000440 	adrp	x0, 48a000 <__FRAME_END__+0xfbac>
  4014d0:	f947e800 	ldr	x0, [x0, #4048]
  4014d4:	b9400002 	ldr	w2, [x0]
  4014d8:	b940b7e0 	ldr	w0, [sp, #180]
  4014dc:	9b007c42 	mul	x2, x2, x0
  4014e0:	d0000281 	adrp	x1, 453000 <_nl_locale_subfreeres+0x1a8>
  4014e4:	911a4021 	add	x1, x1, #0x690
  4014e8:	52800020 	mov	w0, #0x1                   	// #1
  4014ec:	94006b27 	bl	41c188 <___printf_chk>
  4014f0:	d0000282 	adrp	x2, 453000 <_nl_locale_subfreeres+0x1a8>
  4014f4:	911aa042 	add	x2, x2, #0x6a8
  4014f8:	d0000281 	adrp	x1, 453000 <_nl_locale_subfreeres+0x1a8>
  4014fc:	911ae021 	add	x1, x1, #0x6b8
  401500:	52800020 	mov	w0, #0x1                   	// #1
  401504:	94006b21 	bl	41c188 <___printf_chk>
  401508:	d0000282 	adrp	x2, 453000 <_nl_locale_subfreeres+0x1a8>
  40150c:	911b4042 	add	x2, x2, #0x6d0
  401510:	d0000281 	adrp	x1, 453000 <_nl_locale_subfreeres+0x1a8>
  401514:	911bc021 	add	x1, x1, #0x6f0
  401518:	52800020 	mov	w0, #0x1                   	// #1
  40151c:	94006b1b 	bl	41c188 <___printf_chk>
  401520:	d0000282 	adrp	x2, 453000 <_nl_locale_subfreeres+0x1a8>
  401524:	911c2042 	add	x2, x2, #0x708
  401528:	d0000281 	adrp	x1, 453000 <_nl_locale_subfreeres+0x1a8>
  40152c:	911d6021 	add	x1, x1, #0x758
  401530:	52800020 	mov	w0, #0x1                   	// #1
  401534:	94006b15 	bl	41c188 <___printf_chk>
  401538:	2a1b03e2 	mov	w2, w27
  40153c:	d0000281 	adrp	x1, 453000 <_nl_locale_subfreeres+0x1a8>
  401540:	911dc021 	add	x1, x1, #0x770
  401544:	52800020 	mov	w0, #0x1                   	// #1
  401548:	94006b10 	bl	41c188 <___printf_chk>
  40154c:	b940bbe0 	ldr	w0, [sp, #184]
  401550:	36000320 	tbz	w0, #0, 4015b4 <main+0x688>
  401554:	b0000440 	adrp	x0, 48a000 <__FRAME_END__+0xfbac>
  401558:	f947e800 	ldr	x0, [x0, #4048]
  40155c:	b9400000 	ldr	w0, [x0]
  401560:	340002a0 	cbz	w0, 4015b4 <main+0x688>
  401564:	52800013 	mov	w19, #0x0                   	// #0
  401568:	9103abfa 	add	x26, sp, #0xea
  40156c:	d0000296 	adrp	x22, 453000 <_nl_locale_subfreeres+0x1a8>
  401570:	911e42d6 	add	x22, x22, #0x790
  401574:	52800038 	mov	w24, #0x1                   	// #1
  401578:	b0000455 	adrp	x21, 48a000 <__FRAME_END__+0xfbac>
  40157c:	f947eab5 	ldr	x21, [x21, #4048]
  401580:	937d7e60 	sbfiz	x0, x19, #3, #32
  401584:	cb33c000 	sub	x0, x0, w19, sxtw
  401588:	d37cec00 	lsl	x0, x0, #4
  40158c:	78606b43 	ldrh	w3, [x26, x0]
  401590:	2a1303e2 	mov	w2, w19
  401594:	aa1603e1 	mov	x1, x22
  401598:	2a1803e0 	mov	w0, w24
  40159c:	94006afb 	bl	41c188 <___printf_chk>
  4015a0:	11000660 	add	w0, w19, #0x1
  4015a4:	12003c13 	and	w19, w0, #0xffff
  4015a8:	b94002a1 	ldr	w1, [x21]
  4015ac:	6b20203f 	cmp	w1, w0, uxth
  4015b0:	54fffe88 	b.hi	401580 <main+0x654>  // b.pmore
  4015b4:	b940bbe0 	ldr	w0, [sp, #184]
  4015b8:	36080320 	tbz	w0, #1, 40161c <main+0x6f0>
  4015bc:	b0000440 	adrp	x0, 48a000 <__FRAME_END__+0xfbac>
  4015c0:	f947e800 	ldr	x0, [x0, #4048]
  4015c4:	b9400000 	ldr	w0, [x0]
  4015c8:	34001320 	cbz	w0, 40182c <main+0x900>
  4015cc:	52800013 	mov	w19, #0x0                   	// #0
  4015d0:	9103b3fa 	add	x26, sp, #0xec
  4015d4:	d0000296 	adrp	x22, 453000 <_nl_locale_subfreeres+0x1a8>
  4015d8:	911ec2d6 	add	x22, x22, #0x7b0
  4015dc:	52800038 	mov	w24, #0x1                   	// #1
  4015e0:	b0000455 	adrp	x21, 48a000 <__FRAME_END__+0xfbac>
  4015e4:	f947eab5 	ldr	x21, [x21, #4048]
  4015e8:	937d7e60 	sbfiz	x0, x19, #3, #32
  4015ec:	cb33c000 	sub	x0, x0, w19, sxtw
  4015f0:	d37cec00 	lsl	x0, x0, #4
  4015f4:	78606b43 	ldrh	w3, [x26, x0]
  4015f8:	2a1303e2 	mov	w2, w19
  4015fc:	aa1603e1 	mov	x1, x22
  401600:	2a1803e0 	mov	w0, w24
  401604:	94006ae1 	bl	41c188 <___printf_chk>
  401608:	11000660 	add	w0, w19, #0x1
  40160c:	12003c13 	and	w19, w0, #0xffff
  401610:	b94002a1 	ldr	w1, [x21]
  401614:	6b20203f 	cmp	w1, w0, uxth
  401618:	54fffe88 	b.hi	4015e8 <main+0x6bc>  // b.pmore
  40161c:	b940bbe0 	ldr	w0, [sp, #184]
  401620:	36100320 	tbz	w0, #2, 401684 <main+0x758>
  401624:	b0000440 	adrp	x0, 48a000 <__FRAME_END__+0xfbac>
  401628:	f947e800 	ldr	x0, [x0, #4048]
  40162c:	b9400000 	ldr	w0, [x0]
  401630:	340005a0 	cbz	w0, 4016e4 <main+0x7b8>
  401634:	52800013 	mov	w19, #0x0                   	// #0
  401638:	9103bbfa 	add	x26, sp, #0xee
  40163c:	d0000296 	adrp	x22, 453000 <_nl_locale_subfreeres+0x1a8>
  401640:	911f42d6 	add	x22, x22, #0x7d0
  401644:	52800038 	mov	w24, #0x1                   	// #1
  401648:	b0000455 	adrp	x21, 48a000 <__FRAME_END__+0xfbac>
  40164c:	f947eab5 	ldr	x21, [x21, #4048]
  401650:	937d7e60 	sbfiz	x0, x19, #3, #32
  401654:	cb33c000 	sub	x0, x0, w19, sxtw
  401658:	d37cec00 	lsl	x0, x0, #4
  40165c:	78606b43 	ldrh	w3, [x26, x0]
  401660:	2a1303e2 	mov	w2, w19
  401664:	aa1603e1 	mov	x1, x22
  401668:	2a1803e0 	mov	w0, w24
  40166c:	94006ac7 	bl	41c188 <___printf_chk>
  401670:	11000660 	add	w0, w19, #0x1
  401674:	12003c13 	and	w19, w0, #0xffff
  401678:	b94002a1 	ldr	w1, [x21]
  40167c:	6b20203f 	cmp	w1, w0, uxth
  401680:	54fffe88 	b.hi	401650 <main+0x724>  // b.pmore
  401684:	b0000440 	adrp	x0, 48a000 <__FRAME_END__+0xfbac>
  401688:	f947e800 	ldr	x0, [x0, #4048]
  40168c:	b9400000 	ldr	w0, [x0]
  401690:	340002a0 	cbz	w0, 4016e4 <main+0x7b8>
  401694:	52800013 	mov	w19, #0x0                   	// #0
  401698:	9103a3fa 	add	x26, sp, #0xe8
  40169c:	d0000296 	adrp	x22, 453000 <_nl_locale_subfreeres+0x1a8>
  4016a0:	911fc2d6 	add	x22, x22, #0x7f0
  4016a4:	52800038 	mov	w24, #0x1                   	// #1
  4016a8:	b0000455 	adrp	x21, 48a000 <__FRAME_END__+0xfbac>
  4016ac:	f947eab5 	ldr	x21, [x21, #4048]
  4016b0:	937d7e61 	sbfiz	x1, x19, #3, #32
  4016b4:	cb33c021 	sub	x1, x1, w19, sxtw
  4016b8:	d37cec21 	lsl	x1, x1, #4
  4016bc:	78616b43 	ldrh	w3, [x26, x1]
  4016c0:	2a1303e2 	mov	w2, w19
  4016c4:	aa1603e1 	mov	x1, x22
  4016c8:	2a1803e0 	mov	w0, w24
  4016cc:	94006aaf 	bl	41c188 <___printf_chk>
  4016d0:	11000660 	add	w0, w19, #0x1
  4016d4:	12003c13 	and	w19, w0, #0xffff
  4016d8:	b94002a1 	ldr	w1, [x21]
  4016dc:	6b20203f 	cmp	w1, w0, uxth
  4016e0:	54fffe88 	b.hi	4016b0 <main+0x784>  // b.pmore
  4016e4:	340005d7 	cbz	w23, 40179c <main+0x870>
  4016e8:	710002ff 	cmp	w23, #0x0
  4016ec:	5400096d 	b.le	401818 <main+0x8ec>
  4016f0:	d0000280 	adrp	x0, 453000 <_nl_locale_subfreeres+0x1a8>
  4016f4:	91220000 	add	x0, x0, #0x880
  4016f8:	94001ec2 	bl	409200 <_IO_puts>
  4016fc:	f9404be0 	ldr	x0, [sp, #144]
  401700:	94000371 	bl	4024c4 <portable_free>
  401704:	9103cbe0 	add	x0, sp, #0xf2
  401708:	940003a2 	bl	402590 <portable_fini>
  40170c:	b0000440 	adrp	x0, 48a000 <__FRAME_END__+0xfbac>
  401710:	f947a400 	ldr	x0, [x0, #3912]
  401714:	f9407fe1 	ldr	x1, [sp, #248]
  401718:	f9400002 	ldr	x2, [x0]
  40171c:	eb020021 	subs	x1, x1, x2
  401720:	d2800002 	mov	x2, #0x0                   	// #0
  401724:	540008a1 	b.ne	401838 <main+0x90c>  // b.any
  401728:	52800000 	mov	w0, #0x0                   	// #0
  40172c:	a94153f3 	ldp	x19, x20, [sp, #16]
  401730:	a9425bf5 	ldp	x21, x22, [sp, #32]
  401734:	a94363f7 	ldp	x23, x24, [sp, #48]
  401738:	a9446bf9 	ldp	x25, x26, [sp, #64]
  40173c:	a94573fb 	ldp	x27, x28, [sp, #80]
  401740:	fd4033e8 	ldr	d8, [sp, #96]
  401744:	a8d07bfd 	ldp	x29, x30, [sp], #256
  401748:	d65f03c0 	ret
  40174c:	b0000440 	adrp	x0, 48a000 <__FRAME_END__+0xfbac>
  401750:	f947e800 	ldr	x0, [x0, #4048]
  401754:	b9400001 	ldr	w1, [x0]
  401758:	b940b7e0 	ldr	w0, [sp, #180]
  40175c:	1b017c00 	mul	w0, w0, w1
  401760:	1e630008 	ucvtf	d8, w0
  401764:	aa1903e0 	mov	x0, x25
  401768:	94000381 	bl	40256c <time_in_secs>
  40176c:	1e601900 	fdiv	d0, d8, d0
  401770:	d0000281 	adrp	x1, 453000 <_nl_locale_subfreeres+0x1a8>
  401774:	9118e021 	add	x1, x1, #0x638
  401778:	52800020 	mov	w0, #0x1                   	// #1
  40177c:	94006a83 	bl	41c188 <___printf_chk>
  401780:	17ffff4d 	b	4014b4 <main+0x588>
  401784:	d0000280 	adrp	x0, 453000 <_nl_locale_subfreeres+0x1a8>
  401788:	91194000 	add	x0, x0, #0x650
  40178c:	94001e9d 	bl	409200 <_IO_puts>
  401790:	11000718 	add	w24, w24, #0x1
  401794:	13003f17 	sxth	w23, w24
  401798:	17ffff4d 	b	4014cc <main+0x5a0>
  40179c:	d0000280 	adrp	x0, 453000 <_nl_locale_subfreeres+0x1a8>
  4017a0:	91204000 	add	x0, x0, #0x810
  4017a4:	94001e97 	bl	409200 <_IO_puts>
  4017a8:	71000e9f 	cmp	w20, #0x3
  4017ac:	54fffa81 	b.ne	4016fc <main+0x7d0>  // b.any
  4017b0:	b0000440 	adrp	x0, 48a000 <__FRAME_END__+0xfbac>
  4017b4:	f947e800 	ldr	x0, [x0, #4048]
  4017b8:	b9400001 	ldr	w1, [x0]
  4017bc:	b940b7e0 	ldr	w0, [sp, #180]
  4017c0:	1b017c00 	mul	w0, w0, w1
  4017c4:	1e630008 	ucvtf	d8, w0
  4017c8:	aa1903e0 	mov	x0, x25
  4017cc:	94000368 	bl	40256c <time_in_secs>
  4017d0:	d0000283 	adrp	x3, 453000 <_nl_locale_subfreeres+0x1a8>
  4017d4:	911b4063 	add	x3, x3, #0x6d0
  4017d8:	d0000282 	adrp	x2, 453000 <_nl_locale_subfreeres+0x1a8>
  4017dc:	911aa042 	add	x2, x2, #0x6a8
  4017e0:	1e601900 	fdiv	d0, d8, d0
  4017e4:	d0000281 	adrp	x1, 453000 <_nl_locale_subfreeres+0x1a8>
  4017e8:	91216021 	add	x1, x1, #0x858
  4017ec:	52800020 	mov	w0, #0x1                   	// #1
  4017f0:	94006a66 	bl	41c188 <___printf_chk>
  4017f4:	d0000440 	adrp	x0, 48b000 <_GLOBAL_OFFSET_TABLE_+0xc8>
  4017f8:	f9402802 	ldr	x2, [x0, #80]
  4017fc:	d0000281 	adrp	x1, 453000 <_nl_locale_subfreeres+0x1a8>
  401800:	9121e021 	add	x1, x1, #0x878
  401804:	52800020 	mov	w0, #0x1                   	// #1
  401808:	94006a60 	bl	41c188 <___printf_chk>
  40180c:	52800140 	mov	w0, #0xa                   	// #10
  401810:	94001efe 	bl	409408 <putchar>
  401814:	17ffffba 	b	4016fc <main+0x7d0>
  401818:	36fff737 	tbz	w23, #31, 4016fc <main+0x7d0>
  40181c:	d0000280 	adrp	x0, 453000 <_nl_locale_subfreeres+0x1a8>
  401820:	91224000 	add	x0, x0, #0x890
  401824:	94001e77 	bl	409200 <_IO_puts>
  401828:	17ffffb5 	b	4016fc <main+0x7d0>
  40182c:	b940bbe0 	ldr	w0, [sp, #184]
  401830:	3717f5a0 	tbnz	w0, #2, 4016e4 <main+0x7b8>
  401834:	17ffff94 	b	401684 <main+0x758>
  401838:	94006a82 	bl	41c240 <__stack_chk_fail>

000000000040183c <core_init_matrix>:
  40183c:	2a0003e6 	mov	w6, w0
  401840:	7100005f 	cmp	w2, #0x0
  401844:	1a9f1442 	csinc	w2, w2, wzr, ne  // ne = any
  401848:	34000720 	cbz	w0, 40192c <core_init_matrix+0xf0>
  40184c:	52800004 	mov	w4, #0x0                   	// #0
  401850:	2a0403e0 	mov	w0, w4
  401854:	11000484 	add	w4, w4, #0x1
  401858:	1b047c85 	mul	w5, w4, w4
  40185c:	6b050cdf 	cmp	w6, w5, lsl #3
  401860:	54ffff88 	b.hi	401850 <core_init_matrix+0x14>  // b.pmore
  401864:	d1000421 	sub	x1, x1, #0x1
  401868:	927ef421 	and	x1, x1, #0xfffffffffffffffc
  40186c:	91001029 	add	x9, x1, #0x4
  401870:	1b007c01 	mul	w1, w0, w0
  401874:	d37ff82d 	lsl	x13, x1, #1
  401878:	8b0d0127 	add	x7, x9, x13
  40187c:	34000460 	cbz	w0, 401908 <core_init_matrix+0xcc>
  401880:	5280000c 	mov	w12, #0x0                   	// #0
  401884:	5280000b 	mov	w11, #0x0                   	// #0
  401888:	5280002a 	mov	w10, #0x1                   	// #1
  40188c:	1400000a 	b	4018b4 <core_init_matrix+0x78>
  401890:	1100054a 	add	w10, w10, #0x1
  401894:	51000401 	sub	w1, w0, #0x1
  401898:	7100001f 	cmp	w0, #0x0
  40189c:	1a9f1021 	csel	w1, w1, wzr, ne  // ne = any
  4018a0:	0b0a002a 	add	w10, w1, w10
  4018a4:	1100056b 	add	w11, w11, #0x1
  4018a8:	0b00018c 	add	w12, w12, w0
  4018ac:	6b00017f 	cmp	w11, w0
  4018b0:	540002c2 	b.cs	401908 <core_init_matrix+0xcc>  // b.hs, b.nlast
  4018b4:	2a0a03e4 	mov	w4, w10
  4018b8:	52800006 	mov	w6, #0x0                   	// #0
  4018bc:	4b0a0188 	sub	w8, w12, w10
  4018c0:	1b047c42 	mul	w2, w2, w4
  4018c4:	6b0203e1 	negs	w1, w2
  4018c8:	12003c42 	and	w2, w2, #0xffff
  4018cc:	12003c21 	and	w1, w1, #0xffff
  4018d0:	5a814442 	csneg	w2, w2, w1, mi  // mi = first
  4018d4:	0b242041 	add	w1, w2, w4, uxth
  4018d8:	12003c21 	and	w1, w1, #0xffff
  4018dc:	0b040105 	add	w5, w8, w4
  4018e0:	d37ff8a5 	lsl	x5, x5, #1
  4018e4:	782568e1 	strh	w1, [x7, x5]
  4018e8:	0b242021 	add	w1, w1, w4, uxth
  4018ec:	12001c21 	and	w1, w1, #0xff
  4018f0:	78256921 	strh	w1, [x9, x5]
  4018f4:	11000484 	add	w4, w4, #0x1
  4018f8:	110004c6 	add	w6, w6, #0x1
  4018fc:	6b0000df 	cmp	w6, w0
  401900:	54fffe03 	b.cc	4018c0 <core_init_matrix+0x84>  // b.lo, b.ul, b.last
  401904:	17ffffe3 	b	401890 <core_init_matrix+0x54>
  401908:	f9000469 	str	x9, [x3, #8]
  40190c:	f9000867 	str	x7, [x3, #16]
  401910:	8b0d00e1 	add	x1, x7, x13
  401914:	d1000421 	sub	x1, x1, #0x1
  401918:	927ef421 	and	x1, x1, #0xfffffffffffffffc
  40191c:	91001021 	add	x1, x1, #0x4
  401920:	f9000c61 	str	x1, [x3, #24]
  401924:	b9000060 	str	w0, [x3]
  401928:	d65f03c0 	ret
  40192c:	d1000427 	sub	x7, x1, #0x1
  401930:	927ef4e7 	and	x7, x7, #0xfffffffffffffffc
  401934:	910010e9 	add	x9, x7, #0x4
  401938:	910018e7 	add	x7, x7, #0x6
  40193c:	12800000 	mov	w0, #0xffffffff            	// #-1
  401940:	d280004d 	mov	x13, #0x2                   	// #2
  401944:	17ffffcf 	b	401880 <core_init_matrix+0x44>

0000000000401948 <matrix_sum>:
  401948:	2a0003e8 	mov	w8, w0
  40194c:	13003c42 	sxth	w2, w2
  401950:	52800000 	mov	w0, #0x0                   	// #0
  401954:	340003c8 	cbz	w8, 4019cc <matrix_sum+0x84>
  401958:	2a0803e7 	mov	w7, w8
  40195c:	5280000a 	mov	w10, #0x0                   	// #0
  401960:	52800009 	mov	w9, #0x0                   	// #0
  401964:	52800000 	mov	w0, #0x0                   	// #0
  401968:	52800005 	mov	w5, #0x0                   	// #0
  40196c:	52800004 	mov	w4, #0x0                   	// #0
  401970:	14000015 	b	4019c4 <matrix_sum+0x7c>
  401974:	6b0600bf 	cmp	w5, w6
  401978:	1a80d400 	cinc	w0, w0, gt
  40197c:	13003c00 	sxth	w0, w0
  401980:	11000463 	add	w3, w3, #0x1
  401984:	6b0300ff 	cmp	w7, w3
  401988:	54000140 	b.eq	4019b0 <matrix_sum+0x68>  // b.none
  40198c:	2a0503e6 	mov	w6, w5
  401990:	b8635825 	ldr	w5, [x1, w3, uxtw #2]
  401994:	0b050084 	add	w4, w4, w5
  401998:	6b04005f 	cmp	w2, w4
  40199c:	54fffeca 	b.ge	401974 <matrix_sum+0x2c>  // b.tcont
  4019a0:	11002800 	add	w0, w0, #0xa
  4019a4:	13003c00 	sxth	w0, w0
  4019a8:	52800004 	mov	w4, #0x0                   	// #0
  4019ac:	17fffff5 	b	401980 <matrix_sum+0x38>
  4019b0:	11000529 	add	w9, w9, #0x1
  4019b4:	0b0800e7 	add	w7, w7, w8
  4019b8:	0b08014a 	add	w10, w10, w8
  4019bc:	6b09011f 	cmp	w8, w9
  4019c0:	54000060 	b.eq	4019cc <matrix_sum+0x84>  // b.none
  4019c4:	2a0a03e3 	mov	w3, w10
  4019c8:	17fffff1 	b	40198c <matrix_sum+0x44>
  4019cc:	d65f03c0 	ret

00000000004019d0 <matrix_mul_const>:
  4019d0:	13003c63 	sxth	w3, w3
  4019d4:	2a0003e6 	mov	w6, w0
  4019d8:	52800008 	mov	w8, #0x0                   	// #0
  4019dc:	52800007 	mov	w7, #0x0                   	// #0
  4019e0:	350000e0 	cbnz	w0, 4019fc <matrix_mul_const+0x2c>
  4019e4:	d65f03c0 	ret
  4019e8:	110004e7 	add	w7, w7, #0x1
  4019ec:	0b000108 	add	w8, w8, w0
  4019f0:	0b0000c6 	add	w6, w6, w0
  4019f4:	6b07001f 	cmp	w0, w7
  4019f8:	54ffff60 	b.eq	4019e4 <matrix_mul_const+0x14>  // b.none
  4019fc:	2a0803e4 	mov	w4, w8
  401a00:	78e45845 	ldrsh	w5, [x2, w4, uxtw #1]
  401a04:	1b037ca5 	mul	w5, w5, w3
  401a08:	b8245825 	str	w5, [x1, w4, uxtw #2]
  401a0c:	11000484 	add	w4, w4, #0x1
  401a10:	6b0400df 	cmp	w6, w4
  401a14:	54ffff61 	b.ne	401a00 <matrix_mul_const+0x30>  // b.any
  401a18:	17fffff4 	b	4019e8 <matrix_mul_const+0x18>

0000000000401a1c <matrix_add_const>:
  401a1c:	13003c42 	sxth	w2, w2
  401a20:	2a0003e6 	mov	w6, w0
  401a24:	52800008 	mov	w8, #0x0                   	// #0
  401a28:	52800007 	mov	w7, #0x0                   	// #0
  401a2c:	350000e0 	cbnz	w0, 401a48 <matrix_add_const+0x2c>
  401a30:	d65f03c0 	ret
  401a34:	110004e7 	add	w7, w7, #0x1
  401a38:	0b000108 	add	w8, w8, w0
  401a3c:	0b0000c6 	add	w6, w6, w0
  401a40:	6b07001f 	cmp	w0, w7
  401a44:	54ffff60 	b.eq	401a30 <matrix_add_const+0x14>  // b.none
  401a48:	2a0803e3 	mov	w3, w8
  401a4c:	d37f7c65 	ubfiz	x5, x3, #1, #32
  401a50:	78656824 	ldrh	w4, [x1, x5]
  401a54:	0b040044 	add	w4, w2, w4
  401a58:	78256824 	strh	w4, [x1, x5]
  401a5c:	11000463 	add	w3, w3, #0x1
  401a60:	6b0300df 	cmp	w6, w3
  401a64:	54ffff41 	b.ne	401a4c <matrix_add_const+0x30>  // b.any
  401a68:	17fffff3 	b	401a34 <matrix_add_const+0x18>

0000000000401a6c <matrix_mul_vect>:
  401a6c:	340002c0 	cbz	w0, 401ac4 <matrix_mul_vect+0x58>
  401a70:	2a0003ea 	mov	w10, w0
  401a74:	5280000b 	mov	w11, #0x0                   	// #0
  401a78:	d2800006 	mov	x6, #0x0                   	// #0
  401a7c:	14000006 	b	401a94 <matrix_mul_vect+0x28>
  401a80:	910004c6 	add	x6, x6, #0x1
  401a84:	0b00016b 	add	w11, w11, w0
  401a88:	0b00014a 	add	w10, w10, w0
  401a8c:	6b06001f 	cmp	w0, w6
  401a90:	540001a9 	b.ls	401ac4 <matrix_mul_vect+0x58>  // b.plast
  401a94:	b826783f 	str	wzr, [x1, x6, lsl #2]
  401a98:	aa0303e7 	mov	x7, x3
  401a9c:	2a0b03e4 	mov	w4, w11
  401aa0:	78e45845 	ldrsh	w5, [x2, w4, uxtw #1]
  401aa4:	78c024e9 	ldrsh	w9, [x7], #2
  401aa8:	b8667828 	ldr	w8, [x1, x6, lsl #2]
  401aac:	1b0920a5 	madd	w5, w5, w9, w8
  401ab0:	b8267825 	str	w5, [x1, x6, lsl #2]
  401ab4:	11000484 	add	w4, w4, #0x1
  401ab8:	6b0a009f 	cmp	w4, w10
  401abc:	54ffff21 	b.ne	401aa0 <matrix_mul_vect+0x34>  // b.any
  401ac0:	17fffff0 	b	401a80 <matrix_mul_vect+0x14>
  401ac4:	d65f03c0 	ret

0000000000401ac8 <matrix_mul_matrix>:
  401ac8:	2a0003e6 	mov	w6, w0
  401acc:	aa0103ec 	mov	x12, x1
  401ad0:	aa0203e9 	mov	x9, x2
  401ad4:	aa0303e8 	mov	x8, x3
  401ad8:	2a0003e7 	mov	w7, w0
  401adc:	5280000b 	mov	w11, #0x0                   	// #0
  401ae0:	5280000d 	mov	w13, #0x0                   	// #0
  401ae4:	5280000e 	mov	w14, #0x0                   	// #0
  401ae8:	35000360 	cbnz	w0, 401b54 <matrix_mul_matrix+0x8c>
  401aec:	d65f03c0 	ret
  401af0:	11000540 	add	w0, w10, #0x1
  401af4:	6b0000df 	cmp	w6, w0
  401af8:	54000220 	b.eq	401b3c <matrix_mul_matrix+0x74>  // b.none
  401afc:	2a0003ea 	mov	w10, w0
  401b00:	0b0a0160 	add	w0, w11, w10
  401b04:	8b000983 	add	x3, x12, x0, lsl #2
  401b08:	b820799f 	str	wzr, [x12, x0, lsl #2]
  401b0c:	2a0a03e2 	mov	w2, w10
  401b10:	2a0b03e0 	mov	w0, w11
  401b14:	78e05921 	ldrsh	w1, [x9, w0, uxtw #1]
  401b18:	78e25905 	ldrsh	w5, [x8, w2, uxtw #1]
  401b1c:	b9400064 	ldr	w4, [x3]
  401b20:	1b051021 	madd	w1, w1, w5, w4
  401b24:	b9000061 	str	w1, [x3]
  401b28:	11000400 	add	w0, w0, #0x1
  401b2c:	0b060042 	add	w2, w2, w6
  401b30:	6b0000ff 	cmp	w7, w0
  401b34:	54ffff01 	b.ne	401b14 <matrix_mul_matrix+0x4c>  // b.any
  401b38:	17ffffee 	b	401af0 <matrix_mul_matrix+0x28>
  401b3c:	110005a1 	add	w1, w13, #0x1
  401b40:	0b00016b 	add	w11, w11, w0
  401b44:	0b0000e7 	add	w7, w7, w0
  401b48:	6b0a01bf 	cmp	w13, w10
  401b4c:	54fffd00 	b.eq	401aec <matrix_mul_matrix+0x24>  // b.none
  401b50:	2a0103ed 	mov	w13, w1
  401b54:	2a0e03ea 	mov	w10, w14
  401b58:	17ffffea 	b	401b00 <matrix_mul_matrix+0x38>

0000000000401b5c <matrix_mul_matrix_bitextract>:
  401b5c:	2a0003e6 	mov	w6, w0
  401b60:	aa0103ec 	mov	x12, x1
  401b64:	aa0203e9 	mov	x9, x2
  401b68:	aa0303e8 	mov	x8, x3
  401b6c:	2a0003e7 	mov	w7, w0
  401b70:	5280000b 	mov	w11, #0x0                   	// #0
  401b74:	5280000d 	mov	w13, #0x0                   	// #0
  401b78:	5280000e 	mov	w14, #0x0                   	// #0
  401b7c:	350003c0 	cbnz	w0, 401bf4 <matrix_mul_matrix_bitextract+0x98>
  401b80:	d65f03c0 	ret
  401b84:	11000540 	add	w0, w10, #0x1
  401b88:	6b0000df 	cmp	w6, w0
  401b8c:	54000280 	b.eq	401bdc <matrix_mul_matrix_bitextract+0x80>  // b.none
  401b90:	2a0003ea 	mov	w10, w0
  401b94:	0b0a0160 	add	w0, w11, w10
  401b98:	8b000984 	add	x4, x12, x0, lsl #2
  401b9c:	b820799f 	str	wzr, [x12, x0, lsl #2]
  401ba0:	2a0a03e3 	mov	w3, w10
  401ba4:	2a0b03e1 	mov	w1, w11
  401ba8:	78e15920 	ldrsh	w0, [x9, w1, uxtw #1]
  401bac:	78e35902 	ldrsh	w2, [x8, w3, uxtw #1]
  401bb0:	1b027c00 	mul	w0, w0, w2
  401bb4:	d3421402 	ubfx	x2, x0, #2, #4
  401bb8:	d3452c00 	ubfx	x0, x0, #5, #7
  401bbc:	b9400085 	ldr	w5, [x4]
  401bc0:	1b001440 	madd	w0, w2, w0, w5
  401bc4:	b9000080 	str	w0, [x4]
  401bc8:	11000421 	add	w1, w1, #0x1
  401bcc:	0b060063 	add	w3, w3, w6
  401bd0:	6b0100ff 	cmp	w7, w1
  401bd4:	54fffea1 	b.ne	401ba8 <matrix_mul_matrix_bitextract+0x4c>  // b.any
  401bd8:	17ffffeb 	b	401b84 <matrix_mul_matrix_bitextract+0x28>
  401bdc:	110005a1 	add	w1, w13, #0x1
  401be0:	0b00016b 	add	w11, w11, w0
  401be4:	0b0000e7 	add	w7, w7, w0
  401be8:	6b0a01bf 	cmp	w13, w10
  401bec:	54fffca0 	b.eq	401b80 <matrix_mul_matrix_bitextract+0x24>  // b.none
  401bf0:	2a0103ed 	mov	w13, w1
  401bf4:	2a0e03ea 	mov	w10, w14
  401bf8:	17ffffe7 	b	401b94 <matrix_mul_matrix_bitextract+0x38>

0000000000401bfc <matrix_test>:
  401bfc:	a9bb7bfd 	stp	x29, x30, [sp, #-80]!
  401c00:	910003fd 	mov	x29, sp
  401c04:	a90153f3 	stp	x19, x20, [sp, #16]
  401c08:	a9025bf5 	stp	x21, x22, [sp, #32]
  401c0c:	a90363f7 	stp	x23, x24, [sp, #48]
  401c10:	f90023f9 	str	x25, [sp, #64]
  401c14:	2a0003f3 	mov	w19, w0
  401c18:	aa0103f4 	mov	x20, x1
  401c1c:	aa0203f5 	mov	x21, x2
  401c20:	aa0303f6 	mov	x22, x3
  401c24:	13003c97 	sxth	w23, w4
  401c28:	32144ef8 	orr	w24, w23, #0xfffff000
  401c2c:	2a1703e2 	mov	w2, w23
  401c30:	aa1503e1 	mov	x1, x21
  401c34:	97ffff7a 	bl	401a1c <matrix_add_const>
  401c38:	2a1703e3 	mov	w3, w23
  401c3c:	aa1503e2 	mov	x2, x21
  401c40:	aa1403e1 	mov	x1, x20
  401c44:	2a1303e0 	mov	w0, w19
  401c48:	97ffff62 	bl	4019d0 <matrix_mul_const>
  401c4c:	2a1803e2 	mov	w2, w24
  401c50:	aa1403e1 	mov	x1, x20
  401c54:	2a1303e0 	mov	w0, w19
  401c58:	97ffff3c 	bl	401948 <matrix_sum>
  401c5c:	52800001 	mov	w1, #0x0                   	// #0
  401c60:	9400020d 	bl	402494 <crc16>
  401c64:	2a0003f9 	mov	w25, w0
  401c68:	aa1603e3 	mov	x3, x22
  401c6c:	aa1503e2 	mov	x2, x21
  401c70:	aa1403e1 	mov	x1, x20
  401c74:	2a1303e0 	mov	w0, w19
  401c78:	97ffff7d 	bl	401a6c <matrix_mul_vect>
  401c7c:	2a1803e2 	mov	w2, w24
  401c80:	aa1403e1 	mov	x1, x20
  401c84:	2a1303e0 	mov	w0, w19
  401c88:	97ffff30 	bl	401948 <matrix_sum>
  401c8c:	2a1903e1 	mov	w1, w25
  401c90:	94000201 	bl	402494 <crc16>
  401c94:	2a0003f9 	mov	w25, w0
  401c98:	aa1603e3 	mov	x3, x22
  401c9c:	aa1503e2 	mov	x2, x21
  401ca0:	aa1403e1 	mov	x1, x20
  401ca4:	2a1303e0 	mov	w0, w19
  401ca8:	97ffff88 	bl	401ac8 <matrix_mul_matrix>
  401cac:	2a1803e2 	mov	w2, w24
  401cb0:	aa1403e1 	mov	x1, x20
  401cb4:	2a1303e0 	mov	w0, w19
  401cb8:	97ffff24 	bl	401948 <matrix_sum>
  401cbc:	2a1903e1 	mov	w1, w25
  401cc0:	940001f5 	bl	402494 <crc16>
  401cc4:	2a0003f9 	mov	w25, w0
  401cc8:	aa1603e3 	mov	x3, x22
  401ccc:	aa1503e2 	mov	x2, x21
  401cd0:	aa1403e1 	mov	x1, x20
  401cd4:	2a1303e0 	mov	w0, w19
  401cd8:	97ffffa1 	bl	401b5c <matrix_mul_matrix_bitextract>
  401cdc:	2a1803e2 	mov	w2, w24
  401ce0:	aa1403e1 	mov	x1, x20
  401ce4:	2a1303e0 	mov	w0, w19
  401ce8:	97ffff18 	bl	401948 <matrix_sum>
  401cec:	2a1903e1 	mov	w1, w25
  401cf0:	940001e9 	bl	402494 <crc16>
  401cf4:	2a0003f4 	mov	w20, w0
  401cf8:	4b1703e2 	neg	w2, w23
  401cfc:	aa1503e1 	mov	x1, x21
  401d00:	2a1303e0 	mov	w0, w19
  401d04:	97ffff46 	bl	401a1c <matrix_add_const>
  401d08:	2a1403e0 	mov	w0, w20
  401d0c:	a94153f3 	ldp	x19, x20, [sp, #16]
  401d10:	a9425bf5 	ldp	x21, x22, [sp, #32]
  401d14:	a94363f7 	ldp	x23, x24, [sp, #48]
  401d18:	f94023f9 	ldr	x25, [sp, #64]
  401d1c:	a8c57bfd 	ldp	x29, x30, [sp], #80
  401d20:	d65f03c0 	ret

0000000000401d24 <core_bench_matrix>:
  401d24:	a9be7bfd 	stp	x29, x30, [sp, #-32]!
  401d28:	910003fd 	mov	x29, sp
  401d2c:	f9000bf3 	str	x19, [sp, #16]
  401d30:	12003c53 	and	w19, w2, #0xffff
  401d34:	2a0103e4 	mov	w4, w1
  401d38:	f9400803 	ldr	x3, [x0, #16]
  401d3c:	f9400402 	ldr	x2, [x0, #8]
  401d40:	f9400c01 	ldr	x1, [x0, #24]
  401d44:	b9400000 	ldr	w0, [x0]
  401d48:	97ffffad 	bl	401bfc <matrix_test>
  401d4c:	2a1303e1 	mov	w1, w19
  401d50:	940001d1 	bl	402494 <crc16>
  401d54:	f9400bf3 	ldr	x19, [sp, #16]
  401d58:	a8c27bfd 	ldp	x29, x30, [sp], #32
  401d5c:	d65f03c0 	ret

0000000000401d60 <core_init_state>:
  401d60:	13003c21 	sxth	w1, w1
  401d64:	5100040a 	sub	w10, w0, #0x1
  401d68:	7100055f 	cmp	w10, #0x1
  401d6c:	540006c9 	b.ls	401e44 <core_init_state+0xe4>  // b.plast
  401d70:	11000421 	add	w1, w1, #0x1
  401d74:	12003c24 	and	w4, w1, #0xffff
  401d78:	52800003 	mov	w3, #0x0                   	// #0
  401d7c:	b000044b 	adrp	x11, 48a000 <__FRAME_END__+0xfbac>
  401d80:	9124816b 	add	x11, x11, #0x920
  401d84:	91018171 	add	x17, x11, #0x60
  401d88:	5280010c 	mov	w12, #0x8                   	// #8
  401d8c:	91010170 	add	x16, x11, #0x40
  401d90:	9100816f 	add	x15, x11, #0x20
  401d94:	5280008e 	mov	w14, #0x4                   	// #4
  401d98:	5280058d 	mov	w13, #0x2c                  	// #44
  401d9c:	14000006 	b	401db4 <core_init_state+0x54>
  401da0:	8b030043 	add	x3, x2, x3
  401da4:	3825486d 	strb	w13, [x3, w5, uxtw]
  401da8:	11000484 	add	w4, w4, #0x1
  401dac:	12003c84 	and	w4, w4, #0xffff
  401db0:	2a0603e3 	mov	w3, w6
  401db4:	13003c81 	sxth	w1, w4
  401db8:	12000885 	and	w5, w4, #0x7
  401dbc:	710018bf 	cmp	w5, #0x6
  401dc0:	540003a8 	b.hi	401e34 <core_init_state+0xd4>  // b.pmore
  401dc4:	710010bf 	cmp	w5, #0x4
  401dc8:	540002e8 	b.hi	401e24 <core_init_state+0xc4>  // b.pmore
  401dcc:	710008bf 	cmp	w5, #0x2
  401dd0:	54000229 	b.ls	401e14 <core_init_state+0xb4>  // b.plast
  401dd4:	d3431021 	ubfx	x1, x1, #3, #2
  401dd8:	f8617968 	ldr	x8, [x11, x1, lsl #3]
  401ddc:	2a0c03e5 	mov	w5, w12
  401de0:	11000466 	add	w6, w3, #0x1
  401de4:	0b0500c6 	add	w6, w6, w5
  401de8:	6b0a00df 	cmp	w6, w10
  401dec:	540002e2 	b.cs	401e48 <core_init_state+0xe8>  // b.hs, b.nlast
  401df0:	d2800001 	mov	x1, #0x0                   	// #0
  401df4:	2a0303e3 	mov	w3, w3
  401df8:	8b030049 	add	x9, x2, x3
  401dfc:	38616907 	ldrb	w7, [x8, x1]
  401e00:	38216927 	strb	w7, [x9, x1]
  401e04:	91000421 	add	x1, x1, #0x1
  401e08:	6b0100bf 	cmp	w5, w1
  401e0c:	54ffff88 	b.hi	401dfc <core_init_state+0x9c>  // b.pmore
  401e10:	17ffffe4 	b	401da0 <core_init_state+0x40>
  401e14:	d3431021 	ubfx	x1, x1, #3, #2
  401e18:	f86179e8 	ldr	x8, [x15, x1, lsl #3]
  401e1c:	2a0e03e5 	mov	w5, w14
  401e20:	17fffff0 	b	401de0 <core_init_state+0x80>
  401e24:	d3431021 	ubfx	x1, x1, #3, #2
  401e28:	f8617a08 	ldr	x8, [x16, x1, lsl #3]
  401e2c:	2a0c03e5 	mov	w5, w12
  401e30:	17ffffec 	b	401de0 <core_init_state+0x80>
  401e34:	d3431021 	ubfx	x1, x1, #3, #2
  401e38:	f8617a28 	ldr	x8, [x17, x1, lsl #3]
  401e3c:	2a0c03e5 	mov	w5, w12
  401e40:	17ffffe8 	b	401de0 <core_init_state+0x80>
  401e44:	52800003 	mov	w3, #0x0                   	// #0
  401e48:	6b03001f 	cmp	w0, w3
  401e4c:	54000149 	b.ls	401e74 <core_init_state+0x114>  // b.plast
  401e50:	2a0303e4 	mov	w4, w3
  401e54:	8b040040 	add	x0, x2, x4
  401e58:	4b030141 	sub	w1, w10, w3
  401e5c:	8b040021 	add	x1, x1, x4
  401e60:	91000442 	add	x2, x2, #0x1
  401e64:	8b020021 	add	x1, x1, x2
  401e68:	3800141f 	strb	wzr, [x0], #1
  401e6c:	eb01001f 	cmp	x0, x1
  401e70:	54ffffc1 	b.ne	401e68 <core_init_state+0x108>  // b.any
  401e74:	d65f03c0 	ret

0000000000401e78 <core_state_transition>:
  401e78:	aa0003e4 	mov	x4, x0
  401e7c:	f9400003 	ldr	x3, [x0]
  401e80:	39400062 	ldrb	w2, [x3]
  401e84:	340011a2 	cbz	w2, 4020b8 <core_state_transition+0x240>
  401e88:	52800000 	mov	w0, #0x0                   	// #0
  401e8c:	528000a7 	mov	w7, #0x5                   	// #5
  401e90:	528000eb 	mov	w11, #0x7                   	// #7
  401e94:	5280006a 	mov	w10, #0x3                   	// #3
  401e98:	52800086 	mov	w6, #0x4                   	// #4
  401e9c:	528000c9 	mov	w9, #0x6                   	// #6
  401ea0:	52800048 	mov	w8, #0x2                   	// #2
  401ea4:	5280002c 	mov	w12, #0x1                   	// #1
  401ea8:	1400001c 	b	401f18 <core_state_transition+0xa0>
  401eac:	91000463 	add	x3, x3, #0x1
  401eb0:	14000073 	b	40207c <core_state_transition+0x204>
  401eb4:	350002a0 	cbnz	w0, 401f08 <core_state_transition+0x90>
  401eb8:	5100c045 	sub	w5, w2, #0x30
  401ebc:	12001ca5 	and	w5, w5, #0xff
  401ec0:	2a0603e0 	mov	w0, w6
  401ec4:	710024bf 	cmp	w5, #0x9
  401ec8:	540001a9 	b.ls	401efc <core_state_transition+0x84>  // b.plast
  401ecc:	5100ac45 	sub	w5, w2, #0x2b
  401ed0:	121e78a5 	and	w5, w5, #0xfffffffd
  401ed4:	2a0803e0 	mov	w0, w8
  401ed8:	72001cbf 	tst	w5, #0xff
  401edc:	54000100 	b.eq	401efc <core_state_transition+0x84>  // b.none
  401ee0:	2a0703e0 	mov	w0, w7
  401ee4:	7100b85f 	cmp	w2, #0x2e
  401ee8:	540000a0 	b.eq	401efc <core_state_transition+0x84>  // b.none
  401eec:	b9400420 	ldr	w0, [x1, #4]
  401ef0:	11000400 	add	w0, w0, #0x1
  401ef4:	b9000420 	str	w0, [x1, #4]
  401ef8:	2a0c03e0 	mov	w0, w12
  401efc:	b9400022 	ldr	w2, [x1]
  401f00:	11000442 	add	w2, w2, #0x1
  401f04:	b9000022 	str	w2, [x1]
  401f08:	38401c62 	ldrb	w2, [x3, #1]!
  401f0c:	7100005f 	cmp	w2, #0x0
  401f10:	7a411804 	ccmp	w0, #0x1, #0x4, ne  // ne = any
  401f14:	54000b40 	b.eq	40207c <core_state_transition+0x204>  // b.none
  401f18:	7100b05f 	cmp	w2, #0x2c
  401f1c:	54fffc80 	b.eq	401eac <core_state_transition+0x34>  // b.none
  401f20:	7100101f 	cmp	w0, #0x4
  401f24:	54000740 	b.eq	40200c <core_state_transition+0x194>  // b.none
  401f28:	540001c8 	b.hi	401f60 <core_state_transition+0xe8>  // b.pmore
  401f2c:	7100081f 	cmp	w0, #0x2
  401f30:	54000460 	b.eq	401fbc <core_state_transition+0x144>  // b.none
  401f34:	71000c1f 	cmp	w0, #0x3
  401f38:	54fffbe1 	b.ne	401eb4 <core_state_transition+0x3c>  // b.any
  401f3c:	5100ac42 	sub	w2, w2, #0x2b
  401f40:	121e7842 	and	w2, w2, #0xfffffffd
  401f44:	72001c5f 	tst	w2, #0xff
  401f48:	54000901 	b.ne	402068 <core_state_transition+0x1f0>  // b.any
  401f4c:	b9400c20 	ldr	w0, [x1, #12]
  401f50:	11000400 	add	w0, w0, #0x1
  401f54:	b9000c20 	str	w0, [x1, #12]
  401f58:	2a0903e0 	mov	w0, w9
  401f5c:	17ffffeb 	b	401f08 <core_state_transition+0x90>
  401f60:	7100181f 	cmp	w0, #0x6
  401f64:	54000900 	b.eq	402084 <core_state_transition+0x20c>  // b.none
  401f68:	71001c1f 	cmp	w0, #0x7
  401f6c:	54000121 	b.ne	401f90 <core_state_transition+0x118>  // b.any
  401f70:	5100c042 	sub	w2, w2, #0x30
  401f74:	12001c42 	and	w2, w2, #0xff
  401f78:	7100245f 	cmp	w2, #0x9
  401f7c:	54fffc69 	b.ls	401f08 <core_state_transition+0x90>  // b.plast
  401f80:	b9400420 	ldr	w0, [x1, #4]
  401f84:	11000400 	add	w0, w0, #0x1
  401f88:	b9000420 	str	w0, [x1, #4]
  401f8c:	1400003a 	b	402074 <core_state_transition+0x1fc>
  401f90:	7100141f 	cmp	w0, #0x5
  401f94:	54fffba1 	b.ne	401f08 <core_state_transition+0x90>  // b.any
  401f98:	121a7845 	and	w5, w2, #0xffffffdf
  401f9c:	12001ca5 	and	w5, w5, #0xff
  401fa0:	710114bf 	cmp	w5, #0x45
  401fa4:	54000521 	b.ne	402048 <core_state_transition+0x1d0>  // b.any
  401fa8:	b9401420 	ldr	w0, [x1, #20]
  401fac:	11000400 	add	w0, w0, #0x1
  401fb0:	b9001420 	str	w0, [x1, #20]
  401fb4:	2a0a03e0 	mov	w0, w10
  401fb8:	17ffffd4 	b	401f08 <core_state_transition+0x90>
  401fbc:	5100c040 	sub	w0, w2, #0x30
  401fc0:	12001c00 	and	w0, w0, #0xff
  401fc4:	7100241f 	cmp	w0, #0x9
  401fc8:	540000c8 	b.hi	401fe0 <core_state_transition+0x168>  // b.pmore
  401fcc:	b9400820 	ldr	w0, [x1, #8]
  401fd0:	11000400 	add	w0, w0, #0x1
  401fd4:	b9000820 	str	w0, [x1, #8]
  401fd8:	2a0603e0 	mov	w0, w6
  401fdc:	17ffffcb 	b	401f08 <core_state_transition+0x90>
  401fe0:	7100b85f 	cmp	w2, #0x2e
  401fe4:	540000a0 	b.eq	401ff8 <core_state_transition+0x180>  // b.none
  401fe8:	b9400820 	ldr	w0, [x1, #8]
  401fec:	11000400 	add	w0, w0, #0x1
  401ff0:	b9000820 	str	w0, [x1, #8]
  401ff4:	14000020 	b	402074 <core_state_transition+0x1fc>
  401ff8:	b9400820 	ldr	w0, [x1, #8]
  401ffc:	11000400 	add	w0, w0, #0x1
  402000:	b9000820 	str	w0, [x1, #8]
  402004:	2a0703e0 	mov	w0, w7
  402008:	17ffffc0 	b	401f08 <core_state_transition+0x90>
  40200c:	7100b85f 	cmp	w2, #0x2e
  402010:	54000120 	b.eq	402034 <core_state_transition+0x1bc>  // b.none
  402014:	5100c042 	sub	w2, w2, #0x30
  402018:	12001c42 	and	w2, w2, #0xff
  40201c:	7100245f 	cmp	w2, #0x9
  402020:	54fff749 	b.ls	401f08 <core_state_transition+0x90>  // b.plast
  402024:	b9401020 	ldr	w0, [x1, #16]
  402028:	11000400 	add	w0, w0, #0x1
  40202c:	b9001020 	str	w0, [x1, #16]
  402030:	14000011 	b	402074 <core_state_transition+0x1fc>
  402034:	b9401020 	ldr	w0, [x1, #16]
  402038:	11000400 	add	w0, w0, #0x1
  40203c:	b9001020 	str	w0, [x1, #16]
  402040:	2a0703e0 	mov	w0, w7
  402044:	17ffffb1 	b	401f08 <core_state_transition+0x90>
  402048:	5100c042 	sub	w2, w2, #0x30
  40204c:	12001c42 	and	w2, w2, #0xff
  402050:	7100245f 	cmp	w2, #0x9
  402054:	54fff5a9 	b.ls	401f08 <core_state_transition+0x90>  // b.plast
  402058:	b9401420 	ldr	w0, [x1, #20]
  40205c:	11000400 	add	w0, w0, #0x1
  402060:	b9001420 	str	w0, [x1, #20]
  402064:	14000004 	b	402074 <core_state_transition+0x1fc>
  402068:	b9400c20 	ldr	w0, [x1, #12]
  40206c:	11000400 	add	w0, w0, #0x1
  402070:	b9000c20 	str	w0, [x1, #12]
  402074:	91000463 	add	x3, x3, #0x1
  402078:	52800020 	mov	w0, #0x1                   	// #1
  40207c:	f9000083 	str	x3, [x4]
  402080:	d65f03c0 	ret
  402084:	5100c042 	sub	w2, w2, #0x30
  402088:	12001c42 	and	w2, w2, #0xff
  40208c:	7100245f 	cmp	w2, #0x9
  402090:	540000c8 	b.hi	4020a8 <core_state_transition+0x230>  // b.pmore
  402094:	b9401820 	ldr	w0, [x1, #24]
  402098:	11000400 	add	w0, w0, #0x1
  40209c:	b9001820 	str	w0, [x1, #24]
  4020a0:	2a0b03e0 	mov	w0, w11
  4020a4:	17ffff99 	b	401f08 <core_state_transition+0x90>
  4020a8:	b9401820 	ldr	w0, [x1, #24]
  4020ac:	11000400 	add	w0, w0, #0x1
  4020b0:	b9001820 	str	w0, [x1, #24]
  4020b4:	17fffff0 	b	402074 <core_state_transition+0x1fc>
  4020b8:	52800000 	mov	w0, #0x0                   	// #0
  4020bc:	17fffff0 	b	40207c <core_state_transition+0x204>

00000000004020c0 <core_bench_state>:
  4020c0:	a9b57bfd 	stp	x29, x30, [sp, #-176]!
  4020c4:	910003fd 	mov	x29, sp
  4020c8:	a90153f3 	stp	x19, x20, [sp, #16]
  4020cc:	a9025bf5 	stp	x21, x22, [sp, #32]
  4020d0:	a90363f7 	stp	x23, x24, [sp, #48]
  4020d4:	a9046bf9 	stp	x25, x26, [sp, #64]
  4020d8:	f9002bfb 	str	x27, [sp, #80]
  4020dc:	2a0003f5 	mov	w21, w0
  4020e0:	aa0103f3 	mov	x19, x1
  4020e4:	13003c59 	sxth	w25, w2
  4020e8:	13003c77 	sxth	w23, w3
  4020ec:	13003c96 	sxth	w22, w4
  4020f0:	12003cb4 	and	w20, w5, #0xffff
  4020f4:	90000440 	adrp	x0, 48a000 <__FRAME_END__+0xfbac>
  4020f8:	f947a400 	ldr	x0, [x0, #3912]
  4020fc:	f9400001 	ldr	x1, [x0]
  402100:	f90057e1 	str	x1, [sp, #168]
  402104:	d2800001 	mov	x1, #0x0                   	// #0
  402108:	f90033f3 	str	x19, [sp, #96]
  40210c:	d2800021 	mov	x1, #0x1                   	// #1
  402110:	910223e4 	add	x4, sp, #0x88
  402114:	9101a3e3 	add	x3, sp, #0x68
  402118:	d37ef420 	lsl	x0, x1, #2
  40211c:	8b040002 	add	x2, x0, x4
  402120:	b81fc05f 	stur	wzr, [x2, #-4]
  402124:	8b030000 	add	x0, x0, x3
  402128:	b81fc01f 	stur	wzr, [x0, #-4]
  40212c:	91000421 	add	x1, x1, #0x1
  402130:	f100243f 	cmp	x1, #0x9
  402134:	54ffff21 	b.ne	402118 <core_bench_state+0x58>  // b.any
  402138:	39400260 	ldrb	w0, [x19]
  40213c:	340001c0 	cbz	w0, 402174 <core_bench_state+0xb4>
  402140:	910223fb 	add	x27, sp, #0x88
  402144:	910183fa 	add	x26, sp, #0x60
  402148:	9101a3f8 	add	x24, sp, #0x68
  40214c:	aa1b03e1 	mov	x1, x27
  402150:	aa1a03e0 	mov	x0, x26
  402154:	97ffff49 	bl	401e78 <core_state_transition>
  402158:	2a0003e0 	mov	w0, w0
  40215c:	b8607b01 	ldr	w1, [x24, x0, lsl #2]
  402160:	11000421 	add	w1, w1, #0x1
  402164:	b8207b01 	str	w1, [x24, x0, lsl #2]
  402168:	f94033e0 	ldr	x0, [sp, #96]
  40216c:	39400000 	ldrb	w0, [x0]
  402170:	35fffee0 	cbnz	w0, 40214c <core_bench_state+0x8c>
  402174:	f90033f3 	str	x19, [sp, #96]
  402178:	8b354275 	add	x21, x19, w21, uxtw
  40217c:	eb15027f 	cmp	x19, x21
  402180:	540005e2 	b.cs	40223c <core_bench_state+0x17c>  // b.hs, b.nlast
  402184:	aa1303e1 	mov	x1, x19
  402188:	93403ec2 	sxth	x2, w22
  40218c:	14000008 	b	4021ac <core_bench_state+0xec>
  402190:	4a190000 	eor	w0, w0, w25
  402194:	39000020 	strb	w0, [x1]
  402198:	f94033e1 	ldr	x1, [sp, #96]
  40219c:	8b020021 	add	x1, x1, x2
  4021a0:	f90033e1 	str	x1, [sp, #96]
  4021a4:	eb15003f 	cmp	x1, x21
  4021a8:	540000a2 	b.cs	4021bc <core_bench_state+0xfc>  // b.hs, b.nlast
  4021ac:	39400020 	ldrb	w0, [x1]
  4021b0:	7100b01f 	cmp	w0, #0x2c
  4021b4:	54fffee1 	b.ne	402190 <core_bench_state+0xd0>  // b.any
  4021b8:	17fffff8 	b	402198 <core_bench_state+0xd8>
  4021bc:	f90033f3 	str	x19, [sp, #96]
  4021c0:	39400260 	ldrb	w0, [x19]
  4021c4:	340007e0 	cbz	w0, 4022c0 <core_bench_state+0x200>
  4021c8:	910223fa 	add	x26, sp, #0x88
  4021cc:	910183f9 	add	x25, sp, #0x60
  4021d0:	9101a3f8 	add	x24, sp, #0x68
  4021d4:	aa1a03e1 	mov	x1, x26
  4021d8:	aa1903e0 	mov	x0, x25
  4021dc:	97ffff27 	bl	401e78 <core_state_transition>
  4021e0:	2a0003e0 	mov	w0, w0
  4021e4:	b8607b01 	ldr	w1, [x24, x0, lsl #2]
  4021e8:	11000421 	add	w1, w1, #0x1
  4021ec:	b8207b01 	str	w1, [x24, x0, lsl #2]
  4021f0:	f94033e0 	ldr	x0, [sp, #96]
  4021f4:	39400000 	ldrb	w0, [x0]
  4021f8:	35fffee0 	cbnz	w0, 4021d4 <core_bench_state+0x114>
  4021fc:	f90033f3 	str	x19, [sp, #96]
  402200:	eb15027f 	cmp	x19, x21
  402204:	54000202 	b.cs	402244 <core_bench_state+0x184>  // b.hs, b.nlast
  402208:	93403ed6 	sxth	x22, w22
  40220c:	14000008 	b	40222c <core_bench_state+0x16c>
  402210:	4a170000 	eor	w0, w0, w23
  402214:	39000260 	strb	w0, [x19]
  402218:	f94033f3 	ldr	x19, [sp, #96]
  40221c:	8b160273 	add	x19, x19, x22
  402220:	f90033f3 	str	x19, [sp, #96]
  402224:	eb15027f 	cmp	x19, x21
  402228:	540000e2 	b.cs	402244 <core_bench_state+0x184>  // b.hs, b.nlast
  40222c:	39400260 	ldrb	w0, [x19]
  402230:	7100b01f 	cmp	w0, #0x2c
  402234:	54fffee1 	b.ne	402210 <core_bench_state+0x150>  // b.any
  402238:	17fffff8 	b	402218 <core_bench_state+0x158>
  40223c:	39400260 	ldrb	w0, [x19]
  402240:	35fffc40 	cbnz	w0, 4021c8 <core_bench_state+0x108>
  402244:	d2800035 	mov	x21, #0x1                   	// #1
  402248:	9101a3f7 	add	x23, sp, #0x68
  40224c:	910223f6 	add	x22, sp, #0x88
  402250:	d37ef6b3 	lsl	x19, x21, #2
  402254:	8b170260 	add	x0, x19, x23
  402258:	2a1403e1 	mov	w1, w20
  40225c:	b85fc000 	ldur	w0, [x0, #-4]
  402260:	94000082 	bl	402468 <crcu32>
  402264:	8b160273 	add	x19, x19, x22
  402268:	2a0003e1 	mov	w1, w0
  40226c:	b85fc260 	ldur	w0, [x19, #-4]
  402270:	9400007e 	bl	402468 <crcu32>
  402274:	12003c14 	and	w20, w0, #0xffff
  402278:	910006b5 	add	x21, x21, #0x1
  40227c:	f10026bf 	cmp	x21, #0x9
  402280:	54fffe81 	b.ne	402250 <core_bench_state+0x190>  // b.any
  402284:	90000440 	adrp	x0, 48a000 <__FRAME_END__+0xfbac>
  402288:	f947a400 	ldr	x0, [x0, #3912]
  40228c:	f94057e1 	ldr	x1, [sp, #168]
  402290:	f9400002 	ldr	x2, [x0]
  402294:	eb020021 	subs	x1, x1, x2
  402298:	d2800002 	mov	x2, #0x0                   	// #0
  40229c:	54000161 	b.ne	4022c8 <core_bench_state+0x208>  // b.any
  4022a0:	2a1403e0 	mov	w0, w20
  4022a4:	a94153f3 	ldp	x19, x20, [sp, #16]
  4022a8:	a9425bf5 	ldp	x21, x22, [sp, #32]
  4022ac:	a94363f7 	ldp	x23, x24, [sp, #48]
  4022b0:	a9446bf9 	ldp	x25, x26, [sp, #64]
  4022b4:	f9402bfb 	ldr	x27, [sp, #80]
  4022b8:	a8cb7bfd 	ldp	x29, x30, [sp], #176
  4022bc:	d65f03c0 	ret
  4022c0:	f90033f3 	str	x19, [sp, #96]
  4022c4:	17ffffd1 	b	402208 <core_bench_state+0x148>
  4022c8:	940067de 	bl	41c240 <__stack_chk_fail>

00000000004022cc <parseval>:
  4022cc:	39400001 	ldrb	w1, [x0]
  4022d0:	52800025 	mov	w5, #0x1                   	// #1
  4022d4:	7100b43f 	cmp	w1, #0x2d
  4022d8:	54000320 	b.eq	40233c <parseval+0x70>  // b.none
  4022dc:	39400002 	ldrb	w2, [x0]
  4022e0:	7100c05f 	cmp	w2, #0x30
  4022e4:	54000320 	b.eq	402348 <parseval+0x7c>  // b.none
  4022e8:	5100c041 	sub	w1, w2, #0x30
  4022ec:	12001c21 	and	w1, w1, #0xff
  4022f0:	7100243f 	cmp	w1, #0x9
  4022f4:	54000628 	b.hi	4023b8 <parseval+0xec>  // b.pmore
  4022f8:	52800001 	mov	w1, #0x0                   	// #0
  4022fc:	0b010821 	add	w1, w1, w1, lsl #2
  402300:	5100c042 	sub	w2, w2, #0x30
  402304:	0b010441 	add	w1, w2, w1, lsl #1
  402308:	38401c02 	ldrb	w2, [x0, #1]!
  40230c:	5100c043 	sub	w3, w2, #0x30
  402310:	12001c63 	and	w3, w3, #0xff
  402314:	7100247f 	cmp	w3, #0x9
  402318:	54ffff29 	b.ls	4022fc <parseval+0x30>  // b.plast
  40231c:	39400002 	ldrb	w2, [x0]
  402320:	71012c5f 	cmp	w2, #0x4b
  402324:	54000540 	b.eq	4023cc <parseval+0x100>  // b.none
  402328:	530c2c20 	lsl	w0, w1, #20
  40232c:	7101345f 	cmp	w2, #0x4d
  402330:	1a810001 	csel	w1, w0, w1, eq  // eq = none
  402334:	1b057c20 	mul	w0, w1, w5
  402338:	d65f03c0 	ret
  40233c:	91000400 	add	x0, x0, #0x1
  402340:	12800005 	mov	w5, #0xffffffff            	// #-1
  402344:	17ffffe6 	b	4022dc <parseval+0x10>
  402348:	39400401 	ldrb	w1, [x0, #1]
  40234c:	7101e03f 	cmp	w1, #0x78
  402350:	54fffd41 	b.ne	4022f8 <parseval+0x2c>  // b.any
  402354:	91000806 	add	x6, x0, #0x2
  402358:	39400802 	ldrb	w2, [x0, #2]
  40235c:	5100c041 	sub	w1, w2, #0x30
  402360:	12001c21 	and	w1, w1, #0xff
  402364:	51018440 	sub	w0, w2, #0x61
  402368:	12001c00 	and	w0, w0, #0xff
  40236c:	7100243f 	cmp	w1, #0x9
  402370:	7a458800 	ccmp	w0, #0x5, #0x0, hi  // hi = pmore
  402374:	54000268 	b.hi	4023c0 <parseval+0xf4>  // b.pmore
  402378:	52800001 	mov	w1, #0x0                   	// #0
  40237c:	5100c043 	sub	w3, w2, #0x30
  402380:	51015c42 	sub	w2, w2, #0x57
  402384:	7100247f 	cmp	w3, #0x9
  402388:	1a83c043 	csel	w3, w2, w3, gt
  40238c:	0b011061 	add	w1, w3, w1, lsl #4
  402390:	38401cc2 	ldrb	w2, [x6, #1]!
  402394:	5100c044 	sub	w4, w2, #0x30
  402398:	12001c84 	and	w4, w4, #0xff
  40239c:	51018443 	sub	w3, w2, #0x61
  4023a0:	12001c63 	and	w3, w3, #0xff
  4023a4:	7100249f 	cmp	w4, #0x9
  4023a8:	7a458860 	ccmp	w3, #0x5, #0x0, hi  // hi = pmore
  4023ac:	54fffe89 	b.ls	40237c <parseval+0xb0>  // b.plast
  4023b0:	aa0603e0 	mov	x0, x6
  4023b4:	17ffffda 	b	40231c <parseval+0x50>
  4023b8:	52800001 	mov	w1, #0x0                   	// #0
  4023bc:	17ffffd8 	b	40231c <parseval+0x50>
  4023c0:	aa0603e0 	mov	x0, x6
  4023c4:	52800001 	mov	w1, #0x0                   	// #0
  4023c8:	17ffffd5 	b	40231c <parseval+0x50>
  4023cc:	53165421 	lsl	w1, w1, #10
  4023d0:	17ffffd9 	b	402334 <parseval+0x68>

00000000004023d4 <get_seed_args>:
  4023d4:	6b00003f 	cmp	w1, w0
  4023d8:	5400006c 	b.gt	4023e4 <get_seed_args+0x10>
  4023dc:	52800000 	mov	w0, #0x0                   	// #0
  4023e0:	d65f03c0 	ret
  4023e4:	a9bf7bfd 	stp	x29, x30, [sp, #-16]!
  4023e8:	910003fd 	mov	x29, sp
  4023ec:	f860d840 	ldr	x0, [x2, w0, sxtw #3]
  4023f0:	97ffffb7 	bl	4022cc <parseval>
  4023f4:	a8c17bfd 	ldp	x29, x30, [sp], #16
  4023f8:	d65f03c0 	ret

00000000004023fc <crcu8>:
  4023fc:	12001c04 	and	w4, w0, #0xff
  402400:	12003c20 	and	w0, w1, #0xffff
  402404:	52800101 	mov	w1, #0x8                   	// #8
  402408:	128bffc5 	mov	w5, #0xffffa001            	// #-24575
  40240c:	4a040003 	eor	w3, w0, w4
  402410:	72000063 	ands	w3, w3, #0x1
  402414:	53017c84 	lsr	w4, w4, #1
  402418:	4a4004a2 	eor	w2, w5, w0, lsr #1
  40241c:	12003c42 	and	w2, w2, #0xffff
  402420:	53017c00 	lsr	w0, w0, #1
  402424:	1a820000 	csel	w0, w0, w2, eq  // eq = none
  402428:	51000421 	sub	w1, w1, #0x1
  40242c:	72001c21 	ands	w1, w1, #0xff
  402430:	54fffee1 	b.ne	40240c <crcu8+0x10>  // b.any
  402434:	d65f03c0 	ret

0000000000402438 <crcu16>:
  402438:	a9be7bfd 	stp	x29, x30, [sp, #-32]!
  40243c:	910003fd 	mov	x29, sp
  402440:	f9000bf3 	str	x19, [sp, #16]
  402444:	12003c13 	and	w19, w0, #0xffff
  402448:	2a1303e0 	mov	w0, w19
  40244c:	97ffffec 	bl	4023fc <crcu8>
  402450:	2a0003e1 	mov	w1, w0
  402454:	d3483e60 	ubfx	x0, x19, #8, #8
  402458:	97ffffe9 	bl	4023fc <crcu8>
  40245c:	f9400bf3 	ldr	x19, [sp, #16]
  402460:	a8c27bfd 	ldp	x29, x30, [sp], #32
  402464:	d65f03c0 	ret

0000000000402468 <crcu32>:
  402468:	a9be7bfd 	stp	x29, x30, [sp, #-32]!
  40246c:	910003fd 	mov	x29, sp
  402470:	f9000bf3 	str	x19, [sp, #16]
  402474:	2a0003f3 	mov	w19, w0
  402478:	97fffff0 	bl	402438 <crcu16>
  40247c:	2a0003e1 	mov	w1, w0
  402480:	53107e60 	lsr	w0, w19, #16
  402484:	97ffffed 	bl	402438 <crcu16>
  402488:	f9400bf3 	ldr	x19, [sp, #16]
  40248c:	a8c27bfd 	ldp	x29, x30, [sp], #32
  402490:	d65f03c0 	ret

0000000000402494 <crc16>:
  402494:	a9bf7bfd 	stp	x29, x30, [sp, #-16]!
  402498:	910003fd 	mov	x29, sp
  40249c:	97ffffe7 	bl	402438 <crcu16>
  4024a0:	a8c17bfd 	ldp	x29, x30, [sp], #16
  4024a4:	d65f03c0 	ret

00000000004024a8 <check_data_types>:
  4024a8:	52800000 	mov	w0, #0x0                   	// #0
  4024ac:	d65f03c0 	ret

00000000004024b0 <portable_malloc>:
  4024b0:	a9bf7bfd 	stp	x29, x30, [sp, #-16]!
  4024b4:	910003fd 	mov	x29, sp
  4024b8:	940049b2 	bl	414b80 <__libc_malloc>
  4024bc:	a8c17bfd 	ldp	x29, x30, [sp], #16
  4024c0:	d65f03c0 	ret

00000000004024c4 <portable_free>:
  4024c4:	a9bf7bfd 	stp	x29, x30, [sp, #-16]!
  4024c8:	910003fd 	mov	x29, sp
  4024cc:	94004b25 	bl	415160 <__free>
  4024d0:	a8c17bfd 	ldp	x29, x30, [sp], #16
  4024d4:	d65f03c0 	ret

00000000004024d8 <start_time>:
  4024d8:	a9bf7bfd 	stp	x29, x30, [sp, #-16]!
  4024dc:	910003fd 	mov	x29, sp
  4024e0:	d0000441 	adrp	x1, 48c000 <_dl_main_map+0xa0>
  4024e4:	91278021 	add	x1, x1, #0x9e0
  4024e8:	52800000 	mov	w0, #0x0                   	// #0
  4024ec:	94005d55 	bl	419a40 <__clock_gettime>
  4024f0:	a8c17bfd 	ldp	x29, x30, [sp], #16
  4024f4:	d65f03c0 	ret

00000000004024f8 <stop_time>:
  4024f8:	a9bf7bfd 	stp	x29, x30, [sp, #-16]!
  4024fc:	910003fd 	mov	x29, sp
  402500:	d0000441 	adrp	x1, 48c000 <_dl_main_map+0xa0>
  402504:	91278021 	add	x1, x1, #0x9e0
  402508:	91004021 	add	x1, x1, #0x10
  40250c:	52800000 	mov	w0, #0x0                   	// #0
  402510:	94005d4c 	bl	419a40 <__clock_gettime>
  402514:	a8c17bfd 	ldp	x29, x30, [sp], #16
  402518:	d65f03c0 	ret

000000000040251c <get_time>:
  40251c:	d0000441 	adrp	x1, 48c000 <_dl_main_map+0xa0>
  402520:	91278022 	add	x2, x1, #0x9e0
  402524:	f9400840 	ldr	x0, [x2, #16]
  402528:	f944f021 	ldr	x1, [x1, #2528]
  40252c:	cb010001 	sub	x1, x0, x1
  402530:	d37be820 	lsl	x0, x1, #5
  402534:	cb010000 	sub	x0, x0, x1
  402538:	8b000820 	add	x0, x1, x0, lsl #2
  40253c:	f9400c41 	ldr	x1, [x2, #24]
  402540:	f9400442 	ldr	x2, [x2, #8]
  402544:	cb020021 	sub	x1, x1, x2
  402548:	d2869b62 	mov	x2, #0x34db                	// #13531
  40254c:	f2baf6c2 	movk	x2, #0xd7b6, lsl #16
  402550:	f2dbd042 	movk	x2, #0xde82, lsl #32
  402554:	f2e86362 	movk	x2, #0x431b, lsl #48
  402558:	9b427c22 	smulh	x2, x1, x2
  40255c:	9352fc42 	asr	x2, x2, #18
  402560:	cb81fc41 	sub	x1, x2, x1, asr #63
  402564:	8b000c20 	add	x0, x1, x0, lsl #3
  402568:	d65f03c0 	ret

000000000040256c <time_in_secs>:
  40256c:	9e620000 	scvtf	d0, x0
  402570:	d2c80000 	mov	x0, #0x400000000000        	// #70368744177664
  402574:	f2e811e0 	movk	x0, #0x408f, lsl #48
  402578:	9e670001 	fmov	d1, x0
  40257c:	1e611800 	fdiv	d0, d0, d1
  402580:	d65f03c0 	ret

0000000000402584 <portable_init>:
  402584:	52800021 	mov	w1, #0x1                   	// #1
  402588:	39000001 	strb	w1, [x0]
  40258c:	d65f03c0 	ret

0000000000402590 <portable_fini>:
  402590:	3900001f 	strb	wzr, [x0]
  402594:	d65f03c0 	ret

0000000000402598 <__libc_start_main>:
  402598:	a9a87bfd 	stp	x29, x30, [sp, #-384]!
  40259c:	b0000287 	adrp	x7, 453000 <_nl_locale_subfreeres+0x1a8>
  4025a0:	910003fd 	mov	x29, sp
  4025a4:	f945b0e7 	ldr	x7, [x7, #2912]
  4025a8:	a90153f3 	stp	x19, x20, [sp, #16]
  4025ac:	aa0303f3 	mov	x19, x3
  4025b0:	a9025bf5 	stp	x21, x22, [sp, #32]
  4025b4:	aa0403f4 	mov	x20, x4
  4025b8:	aa0503f5 	mov	x21, x5
  4025bc:	a90363f7 	stp	x23, x24, [sp, #48]
  4025c0:	a9046bf9 	stp	x25, x26, [sp, #64]
  4025c4:	f9002bfb 	str	x27, [sp, #80]
  4025c8:	b9006fe1 	str	w1, [sp, #108]
  4025cc:	52800001 	mov	w1, #0x0                   	// #0
  4025d0:	a90703e2 	stp	x2, x0, [sp, #112]
  4025d4:	b4000087 	cbz	x7, 4025e4 <__libc_start_main+0x4c>
  4025d8:	b94000e0 	ldr	w0, [x7]
  4025dc:	7100001f 	cmp	w0, #0x0
  4025e0:	1a9f17e1 	cset	w1, eq  // eq = none
  4025e4:	f9403be5 	ldr	x5, [sp, #112]
  4025e8:	f0000443 	adrp	x3, 48d000 <initial+0x90>
  4025ec:	b9406fe0 	ldr	w0, [sp, #108]
  4025f0:	d0000444 	adrp	x4, 48c000 <_dl_main_map+0xa0>
  4025f4:	90000442 	adrp	x2, 48a000 <__FRAME_END__+0xfbac>
  4025f8:	b9057881 	str	w1, [x4, #1400]
  4025fc:	8b20cca0 	add	x0, x5, w0, sxtw #3
  402600:	f9077446 	str	x6, [x2, #3816]
  402604:	91002000 	add	x0, x0, #0x8
  402608:	f9022060 	str	x0, [x3, #1088]
  40260c:	d503201f 	nop
  402610:	f8408401 	ldr	x1, [x0], #8
  402614:	b5ffffe1 	cbnz	x1, 402610 <__libc_start_main+0x78>
  402618:	940068c0 	bl	41c918 <_dl_aux_init>
  40261c:	f0000441 	adrp	x1, 48d000 <initial+0x90>
  402620:	b0000280 	adrp	x0, 453000 <_nl_locale_subfreeres+0x1a8>
  402624:	f9473822 	ldr	x2, [x1, #3696]
  402628:	f945b400 	ldr	x0, [x0, #2920]
  40262c:	f100005f 	cmp	x2, #0x0
  402630:	fa400804 	ccmp	x0, #0x0, #0x4, eq  // eq = none
  402634:	540007e1 	b.ne	402730 <__libc_start_main+0x198>  // b.any
  402638:	94006c28 	bl	41d6d8 <__libc_init_secure>
  40263c:	f0000440 	adrp	x0, 48d000 <initial+0x90>
  402640:	f9422000 	ldr	x0, [x0, #1088]
  402644:	94006773 	bl	41c410 <__tunables_init>
  402648:	910223e1 	add	x1, sp, #0x88
  40264c:	d2800002 	mov	x2, #0x0                   	// #0
  402650:	52800060 	mov	w0, #0x3                   	// #3
  402654:	94006893 	bl	41c8a0 <__tunable_get_val>
  402658:	f94047f6 	ldr	x22, [sp, #136]
  40265c:	b4000196 	cbz	x22, 40268c <__libc_start_main+0xf4>
  402660:	b0000298 	adrp	x24, 453000 <_nl_locale_subfreeres+0x1a8>
  402664:	912e2318 	add	x24, x24, #0xb88
  402668:	d2800017 	mov	x23, #0x0                   	// #0
  40266c:	d37ceee1 	lsl	x1, x23, #4
  402670:	aa1603e0 	mov	x0, x22
  402674:	f8786821 	ldr	x1, [x1, x24]
  402678:	94004fd2 	bl	4165c0 <strcmp>
  40267c:	34000fc0 	cbz	w0, 402874 <__libc_start_main+0x2dc>
  402680:	910006f7 	add	x23, x23, #0x1
  402684:	f10026ff 	cmp	x23, #0x9
  402688:	54ffff21 	b.ne	40266c <__libc_start_main+0xd4>  // b.any
  40268c:	f0000440 	adrp	x0, 48d000 <initial+0x90>
  402690:	f9423001 	ldr	x1, [x0, #1120]
  402694:	92750020 	and	x0, x1, #0x800
  402698:	36580041 	tbz	w1, #11, 4026a0 <__libc_start_main+0x108>
  40269c:	d5380000 	mrs	x0, midr_el1
  4026a0:	f0000441 	adrp	x1, 48d000 <initial+0x90>
  4026a4:	9111a022 	add	x2, x1, #0x468
  4026a8:	f9023420 	str	x0, [x1, #1128]
  4026ac:	d53b00e0 	mrs	x0, dczid_el0
  4026b0:	372000a0 	tbnz	w0, #4, 4026c4 <__libc_start_main+0x12c>
  4026b4:	12000c00 	and	w0, w0, #0xf
  4026b8:	52800081 	mov	w1, #0x4                   	// #4
  4026bc:	1ac02020 	lsl	w0, w1, w0
  4026c0:	b9000840 	str	w0, [x2, #8]
  4026c4:	b0000280 	adrp	x0, 453000 <_nl_locale_subfreeres+0x1a8>
  4026c8:	b000029b 	adrp	x27, 453000 <_nl_locale_subfreeres+0x1a8>
  4026cc:	d2800318 	mov	x24, #0x18                  	// #24
  4026d0:	f000045a 	adrp	x26, 48d000 <initial+0x90>
  4026d4:	f945ac16 	ldr	x22, [x0, #2904]
  4026d8:	f0000459 	adrp	x25, 48d000 <initial+0x90>
  4026dc:	1400000b 	b	402708 <__libc_start_main+0x170>
  4026e0:	f9400ac2 	ldr	x2, [x22, #16]
  4026e4:	910062d6 	add	x22, x22, #0x18
  4026e8:	f9423340 	ldr	x0, [x26, #1120]
  4026ec:	a90903f8 	stp	x24, x0, [sp, #144]
  4026f0:	f9422b21 	ldr	x1, [x25, #1104]
  4026f4:	f90053e1 	str	x1, [sp, #160]
  4026f8:	b2420000 	orr	x0, x0, #0x4000000000000000
  4026fc:	910243e1 	add	x1, sp, #0x90
  402700:	d63f0040 	blr	x2
  402704:	f90002e0 	str	x0, [x23]
  402708:	f945bb60 	ldr	x0, [x27, #2928]
  40270c:	eb0002df 	cmp	x22, x0
  402710:	54000342 	b.cs	402778 <__libc_start_main+0x1e0>  // b.hs, b.nlast
  402714:	b9400ac0 	ldr	w0, [x22, #8]
  402718:	f94002d7 	ldr	x23, [x22]
  40271c:	f110201f 	cmp	x0, #0x408
  402720:	54fffe00 	b.eq	4026e0 <__libc_start_main+0x148>  // b.none
  402724:	b0000280 	adrp	x0, 453000 <_nl_locale_subfreeres+0x1a8>
  402728:	9129a000 	add	x0, x0, #0xa68
  40272c:	9400240f 	bl	40b768 <__libc_fatal>
  402730:	79406c02 	ldrh	w2, [x0, #54]
  402734:	7100e05f 	cmp	w2, #0x38
  402738:	54000120 	b.eq	40275c <__libc_start_main+0x1c4>  // b.none
  40273c:	b0000283 	adrp	x3, 453000 <_nl_locale_subfreeres+0x1a8>
  402740:	b0000281 	adrp	x1, 453000 <_nl_locale_subfreeres+0x1a8>
  402744:	b0000280 	adrp	x0, 453000 <_nl_locale_subfreeres+0x1a8>
  402748:	912b6063 	add	x3, x3, #0xad8
  40274c:	91288021 	add	x1, x1, #0xa20
  402750:	9128e000 	add	x0, x0, #0xa38
  402754:	52801682 	mov	w2, #0xb4                  	// #180
  402758:	940001e2 	bl	402ee0 <__assert_fail>
  40275c:	f9401002 	ldr	x2, [x0, #32]
  402760:	f0000443 	adrp	x3, 48d000 <initial+0x90>
  402764:	79407004 	ldrh	w4, [x0, #56]
  402768:	f9075464 	str	x4, [x3, #3752]
  40276c:	8b000040 	add	x0, x2, x0
  402770:	f9073820 	str	x0, [x1, #3696]
  402774:	17ffffb1 	b	402638 <__libc_start_main+0xa0>
  402778:	940000a8 	bl	402a18 <__libc_setup_tls>
  40277c:	90000440 	adrp	x0, 48a000 <__FRAME_END__+0xfbac>
  402780:	d0000441 	adrp	x1, 48c000 <_dl_main_map+0xa0>
  402784:	90000442 	adrp	x2, 48a000 <__FRAME_END__+0xfbac>
  402788:	f9472400 	ldr	x0, [x0, #3656]
  40278c:	b9457821 	ldr	w1, [x1, #1400]
  402790:	f9400000 	ldr	x0, [x0]
  402794:	9278dc00 	and	x0, x0, #0xffffffffffffff00
  402798:	f904d040 	str	x0, [x2, #2464]
  40279c:	34000761 	cbz	w1, 402888 <__libc_start_main+0x2f0>
  4027a0:	b0000280 	adrp	x0, 453000 <_nl_locale_subfreeres+0x1a8>
  4027a4:	f945bc00 	ldr	x0, [x0, #2936]
  4027a8:	b4000040 	cbz	x0, 4027b0 <__libc_start_main+0x218>
  4027ac:	d503201f 	nop
  4027b0:	90000441 	adrp	x1, 48a000 <__FRAME_END__+0xfbac>
  4027b4:	90000440 	adrp	x0, 48a000 <__FRAME_END__+0xfbac>
  4027b8:	f9472421 	ldr	x1, [x1, #3656]
  4027bc:	f9400421 	ldr	x1, [x1, #8]
  4027c0:	f904d401 	str	x1, [x0, #2472]
  4027c4:	b40000b5 	cbz	x21, 4027d8 <__libc_start_main+0x240>
  4027c8:	aa1503e0 	mov	x0, x21
  4027cc:	d2800002 	mov	x2, #0x0                   	// #0
  4027d0:	d2800001 	mov	x1, #0x0                   	// #0
  4027d4:	94001619 	bl	408038 <__cxa_atexit>
  4027d8:	f0000442 	adrp	x2, 48d000 <initial+0x90>
  4027dc:	b9406fe0 	ldr	w0, [sp, #108]
  4027e0:	f9403be1 	ldr	x1, [sp, #112]
  4027e4:	f9422042 	ldr	x2, [x2, #1088]
  4027e8:	94006c34 	bl	41d8b8 <__libc_init_first>
  4027ec:	b40000b4 	cbz	x20, 402800 <__libc_start_main+0x268>
  4027f0:	aa1403e0 	mov	x0, x20
  4027f4:	d2800002 	mov	x2, #0x0                   	// #0
  4027f8:	d2800001 	mov	x1, #0x0                   	// #0
  4027fc:	9400160f 	bl	408038 <__cxa_atexit>
  402800:	90000440 	adrp	x0, 48a000 <__FRAME_END__+0xfbac>
  402804:	b94ef000 	ldr	w0, [x0, #3824]
  402808:	350007a0 	cbnz	w0, 4028fc <__libc_start_main+0x364>
  40280c:	b40000d3 	cbz	x19, 402824 <__libc_start_main+0x28c>
  402810:	f0000442 	adrp	x2, 48d000 <initial+0x90>
  402814:	b9406fe0 	ldr	w0, [sp, #108]
  402818:	f9403be1 	ldr	x1, [sp, #112]
  40281c:	f9422042 	ldr	x2, [x2, #1088]
  402820:	d63f0260 	blr	x19
  402824:	d2800001 	mov	x1, #0x0                   	// #0
  402828:	d2800000 	mov	x0, #0x0                   	// #0
  40282c:	94006699 	bl	41c290 <_dl_debug_initialize>
  402830:	9102a3e0 	add	x0, sp, #0xa8
  402834:	9400126b 	bl	4071e0 <_setjmp>
  402838:	35000440 	cbnz	w0, 4028c0 <__libc_start_main+0x328>
  40283c:	d53bd040 	mrs	x0, tpidr_el0
  402840:	f0000441 	adrp	x1, 48d000 <initial+0x90>
  402844:	d11c0000 	sub	x0, x0, #0x700
  402848:	9102a3e3 	add	x3, sp, #0xa8
  40284c:	f9422022 	ldr	x2, [x1, #1088]
  402850:	f9408004 	ldr	x4, [x0, #256]
  402854:	f9008003 	str	x3, [x0, #256]
  402858:	f9407c03 	ldr	x3, [x0, #248]
  40285c:	a9160fe4 	stp	x4, x3, [sp, #352]
  402860:	b9406fe0 	ldr	w0, [sp, #108]
  402864:	f9403be1 	ldr	x1, [sp, #112]
  402868:	f9403fe3 	ldr	x3, [sp, #120]
  40286c:	d63f0060 	blr	x3
  402870:	94001566 	bl	407e08 <exit>
  402874:	8b37d318 	add	x24, x24, w23, sxtw #4
  402878:	f9400700 	ldr	x0, [x24, #8]
  40287c:	b100041f 	cmn	x0, #0x1
  402880:	54fff101 	b.ne	4026a0 <__libc_start_main+0x108>  // b.any
  402884:	17ffff82 	b	40268c <__libc_start_main+0xf4>
  402888:	94006bc0 	bl	41d788 <_dl_discover_osversion>
  40288c:	37f80420 	tbnz	w0, #31, 402910 <__libc_start_main+0x378>
  402890:	f0000441 	adrp	x1, 48d000 <initial+0x90>
  402894:	b94ec821 	ldr	w1, [x1, #3784]
  402898:	35000361 	cbnz	w1, 402904 <__libc_start_main+0x36c>
  40289c:	f0000441 	adrp	x1, 48d000 <initial+0x90>
  4028a0:	b90ec820 	str	w0, [x1, #3784]
  4028a4:	5280dfe1 	mov	w1, #0x6ff                 	// #1791
  4028a8:	72a00061 	movk	w1, #0x3, lsl #16
  4028ac:	6b01001f 	cmp	w0, w1
  4028b0:	54fff78c 	b.gt	4027a0 <__libc_start_main+0x208>
  4028b4:	b0000280 	adrp	x0, 453000 <_nl_locale_subfreeres+0x1a8>
  4028b8:	912a6000 	add	x0, x0, #0xa98
  4028bc:	940023ab 	bl	40b768 <__libc_fatal>
  4028c0:	d503201f 	nop
  4028c4:	b0000280 	adrp	x0, 453000 <_nl_locale_subfreeres+0x1a8>
  4028c8:	f945c000 	ldr	x0, [x0, #2944]
  4028cc:	885ffc01 	ldaxr	w1, [x0]
  4028d0:	51000422 	sub	w2, w1, #0x1
  4028d4:	88037c02 	stxr	w3, w2, [x0]
  4028d8:	35ffffa3 	cbnz	w3, 4028cc <__libc_start_main+0x334>
  4028dc:	7100043f 	cmp	w1, #0x1
  4028e0:	540000a0 	b.eq	4028f4 <__libc_start_main+0x35c>  // b.none
  4028e4:	d2800ba8 	mov	x8, #0x5d                  	// #93
  4028e8:	d2800000 	mov	x0, #0x0                   	// #0
  4028ec:	d4000001 	svc	#0x0
  4028f0:	17fffffe 	b	4028e8 <__libc_start_main+0x350>
  4028f4:	52800000 	mov	w0, #0x0                   	// #0
  4028f8:	94001544 	bl	407e08 <exit>
  4028fc:	9400003b 	bl	4029e8 <__libc_check_standard_fds>
  402900:	17ffffc3 	b	40280c <__libc_start_main+0x274>
  402904:	6b00003f 	cmp	w1, w0
  402908:	54fffce9 	b.ls	4028a4 <__libc_start_main+0x30c>  // b.plast
  40290c:	17ffffe4 	b	40289c <__libc_start_main+0x304>
  402910:	b0000280 	adrp	x0, 453000 <_nl_locale_subfreeres+0x1a8>
  402914:	912ac000 	add	x0, x0, #0xab0
  402918:	94002394 	bl	40b768 <__libc_fatal>
  40291c:	d503201f 	nop

0000000000402920 <check_one_fd>:
  402920:	a9b57bfd 	stp	x29, x30, [sp, #-176]!
  402924:	910003fd 	mov	x29, sp
  402928:	a90153f3 	stp	x19, x20, [sp, #16]
  40292c:	2a0103f4 	mov	w20, w1
  402930:	2a0003f3 	mov	w19, w0
  402934:	52800021 	mov	w1, #0x1                   	// #1
  402938:	94006030 	bl	41a9f8 <__fcntl64_nocancel>
  40293c:	3100041f 	cmn	w0, #0x1
  402940:	54000080 	b.eq	402950 <check_one_fd+0x30>  // b.none
  402944:	a94153f3 	ldp	x19, x20, [sp, #16]
  402948:	a8cb7bfd 	ldp	x29, x30, [sp], #176
  40294c:	d65f03c0 	ret
  402950:	90000440 	adrp	x0, 48a000 <__FRAME_END__+0xfbac>
  402954:	f947c400 	ldr	x0, [x0, #3976]
  402958:	d53bd041 	mrs	x1, tpidr_el0
  40295c:	b8606820 	ldr	w0, [x1, x0]
  402960:	7100241f 	cmp	w0, #0x9
  402964:	54ffff01 	b.ne	402944 <check_one_fd+0x24>  // b.any
  402968:	f90013f5 	str	x21, [sp, #32]
  40296c:	7140229f 	cmp	w20, #0x8, lsl #12
  402970:	54000301 	b.ne	4029d0 <check_one_fd+0xb0>  // b.any
  402974:	b0000280 	adrp	x0, 453000 <_nl_locale_subfreeres+0x1a8>
  402978:	9130a000 	add	x0, x0, #0xc28
  40297c:	d2802075 	mov	x21, #0x103                 	// #259
  402980:	2a1403e1 	mov	w1, w20
  402984:	52800002 	mov	w2, #0x0                   	// #0
  402988:	94006036 	bl	41aa60 <__open64_nocancel>
  40298c:	6b00027f 	cmp	w19, w0
  402990:	540001a1 	b.ne	4029c4 <check_one_fd+0xa4>  // b.any
  402994:	2a1303e1 	mov	w1, w19
  402998:	9100c3e2 	add	x2, sp, #0x30
  40299c:	52800000 	mov	w0, #0x0                   	// #0
  4029a0:	94005d6e 	bl	419f58 <__fxstat>
  4029a4:	35000100 	cbnz	w0, 4029c4 <check_one_fd+0xa4>
  4029a8:	b94043e0 	ldr	w0, [sp, #64]
  4029ac:	12140c00 	and	w0, w0, #0xf000
  4029b0:	7140081f 	cmp	w0, #0x2, lsl #12
  4029b4:	54000081 	b.ne	4029c4 <check_one_fd+0xa4>  // b.any
  4029b8:	f9402be0 	ldr	x0, [sp, #80]
  4029bc:	eb15001f 	cmp	x0, x21
  4029c0:	54000100 	b.eq	4029e0 <check_one_fd+0xc0>  // b.none
  4029c4:	d4207d00 	brk	#0x3e8
  4029c8:	d4207d00 	brk	#0x3e8
  4029cc:	17fffffe 	b	4029c4 <check_one_fd+0xa4>
  4029d0:	b0000280 	adrp	x0, 453000 <_nl_locale_subfreeres+0x1a8>
  4029d4:	d28020f5 	mov	x21, #0x107                 	// #263
  4029d8:	91306000 	add	x0, x0, #0xc18
  4029dc:	17ffffe9 	b	402980 <check_one_fd+0x60>
  4029e0:	f94013f5 	ldr	x21, [sp, #32]
  4029e4:	17ffffd8 	b	402944 <check_one_fd+0x24>

00000000004029e8 <__libc_check_standard_fds>:
  4029e8:	a9bf7bfd 	stp	x29, x30, [sp, #-16]!
  4029ec:	52900021 	mov	w1, #0x8001                	// #32769
  4029f0:	52800000 	mov	w0, #0x0                   	// #0
  4029f4:	910003fd 	mov	x29, sp
  4029f8:	97ffffca 	bl	402920 <check_one_fd>
  4029fc:	52900001 	mov	w1, #0x8000                	// #32768
  402a00:	52800020 	mov	w0, #0x1                   	// #1
  402a04:	97ffffc7 	bl	402920 <check_one_fd>
  402a08:	a8c17bfd 	ldp	x29, x30, [sp], #16
  402a0c:	52900001 	mov	w1, #0x8000                	// #32768
  402a10:	52800040 	mov	w0, #0x2                   	// #2
  402a14:	17ffffc3 	b	402920 <check_one_fd>

0000000000402a18 <__libc_setup_tls>:
  402a18:	a9b87bfd 	stp	x29, x30, [sp, #-128]!
  402a1c:	f0000441 	adrp	x1, 48d000 <initial+0x90>
  402a20:	d0000440 	adrp	x0, 48c000 <_dl_main_map+0xa0>
  402a24:	910003fd 	mov	x29, sp
  402a28:	a90153f3 	stp	x19, x20, [sp, #16]
  402a2c:	f9473833 	ldr	x19, [x1, #3696]
  402a30:	a9025bf5 	stp	x21, x22, [sp, #32]
  402a34:	a90363f7 	stp	x23, x24, [sp, #48]
  402a38:	a9046bf9 	stp	x25, x26, [sp, #64]
  402a3c:	a90573fb 	stp	x27, x28, [sp, #80]
  402a40:	f9425817 	ldr	x23, [x0, #1200]
  402a44:	b4000df3 	cbz	x19, 402c00 <__libc_setup_tls+0x1e8>
  402a48:	f0000440 	adrp	x0, 48d000 <initial+0x90>
  402a4c:	f9475400 	ldr	x0, [x0, #3752]
  402a50:	d37df001 	lsl	x1, x0, #3
  402a54:	cb000021 	sub	x1, x1, x0
  402a58:	8b010e61 	add	x1, x19, x1, lsl #3
  402a5c:	eb01027f 	cmp	x19, x1
  402a60:	540000a3 	b.cc	402a74 <__libc_setup_tls+0x5c>  // b.lo, b.ul, b.last
  402a64:	14000071 	b	402c28 <__libc_setup_tls+0x210>
  402a68:	9100e273 	add	x19, x19, #0x38
  402a6c:	eb01027f 	cmp	x19, x1
  402a70:	54000b22 	b.cs	402bd4 <__libc_setup_tls+0x1bc>  // b.hs, b.nlast
  402a74:	b9400260 	ldr	w0, [x19]
  402a78:	71001c1f 	cmp	w0, #0x7
  402a7c:	54ffff61 	b.ne	402a68 <__libc_setup_tls+0x50>  // b.any
  402a80:	f9401a78 	ldr	x24, [x19, #48]
  402a84:	d2800215 	mov	x21, #0x10                  	// #16
  402a88:	f94002e0 	ldr	x0, [x23]
  402a8c:	eb15031f 	cmp	x24, x21
  402a90:	f9400a63 	ldr	x3, [x19, #16]
  402a94:	9a952319 	csel	x25, x24, x21, cs  // cs = hs, nlast
  402a98:	f100031f 	cmp	x24, #0x0
  402a9c:	d2800021 	mov	x1, #0x1                   	// #1
  402aa0:	d1000724 	sub	x4, x25, #0x1
  402aa4:	cb1903e2 	neg	x2, x25
  402aa8:	9a81131a 	csel	x26, x24, x1, ne  // ne = any
  402aac:	8b030000 	add	x0, x0, x3
  402ab0:	a942527c 	ldp	x28, x20, [x19, #32]
  402ab4:	b4000c58 	cbz	x24, 402c3c <__libc_setup_tls+0x224>
  402ab8:	91003f15 	add	x21, x24, #0xf
  402abc:	aa0003f3 	mov	x19, x0
  402ac0:	9ada0ab5 	udiv	x21, x21, x26
  402ac4:	9b1a7eb5 	mul	x21, x21, x26
  402ac8:	aa1503e5 	mov	x5, x21
  402acc:	b000045b 	adrp	x27, 48b000 <_GLOBAL_OFFSET_TABLE_+0xc8>
  402ad0:	8b190281 	add	x1, x20, x25
  402ad4:	a9068be4 	stp	x4, x2, [sp, #104]
  402ad8:	f9403760 	ldr	x0, [x27, #104]
  402adc:	f9003fe5 	str	x5, [sp, #120]
  402ae0:	911c0000 	add	x0, x0, #0x700
  402ae4:	8b010000 	add	x0, x0, x1
  402ae8:	8b150000 	add	x0, x0, x21
  402aec:	94006069 	bl	41ac90 <__sbrk>
  402af0:	a9468be4 	ldp	x4, x2, [sp, #104]
  402af4:	f0000441 	adrp	x1, 48d000 <initial+0x90>
  402af8:	911c0016 	add	x22, x0, #0x700
  402afc:	9126c023 	add	x3, x1, #0x9b0
  402b00:	f9403fe5 	ldr	x5, [sp, #120]
  402b04:	f9023ee5 	str	x5, [x23, #1144]
  402b08:	8b0402d6 	add	x22, x22, x4
  402b0c:	8a0202d6 	and	x22, x22, x2
  402b10:	d28007c2 	mov	x2, #0x3e                  	// #62
  402b14:	8b1502c0 	add	x0, x22, x21
  402b18:	a9027c60 	stp	x0, xzr, [x3, #32]
  402b1c:	f904d822 	str	x2, [x1, #2480]
  402b20:	aa1c03e2 	mov	x2, x28
  402b24:	aa1303e1 	mov	x1, x19
  402b28:	97fff5e2 	bl	4002b0 <.plt+0x10>
  402b2c:	f0000440 	adrp	x0, 48d000 <initial+0x90>
  402b30:	91270000 	add	x0, x0, #0x9c0
  402b34:	f90002c0 	str	x0, [x22]
  402b38:	d51bd056 	msr	tpidr_el0, x22
  402b3c:	d0000443 	adrp	x3, 48c000 <_dl_main_map+0xa0>
  402b40:	91280062 	add	x2, x3, #0xa00
  402b44:	f0000447 	adrp	x7, 48d000 <initial+0x90>
  402b48:	8b180280 	add	x0, x20, x24
  402b4c:	f100031f 	cmp	x24, #0x0
  402b50:	d1000400 	sub	x0, x0, #0x1
  402b54:	f906d8e2 	str	x2, [x7, #3504]
  402b58:	f0000446 	adrp	x6, 48d000 <initial+0x90>
  402b5c:	f9001457 	str	x23, [x2, #40]
  402b60:	911142e2 	add	x2, x23, #0x450
  402b64:	f0000441 	adrp	x1, 48d000 <initial+0x90>
  402b68:	f0000445 	adrp	x5, 48d000 <initial+0x90>
  402b6c:	f0000444 	adrp	x4, 48d000 <initial+0x90>
  402b70:	a9016054 	stp	x20, x24, [x2, #16]
  402b74:	9a941014 	csel	x20, x0, x20, ne  // ne = any
  402b78:	f9403760 	ldr	x0, [x27, #104]
  402b7c:	a9007053 	stp	x19, x28, [x2]
  402b80:	9ada0a94 	udiv	x20, x20, x26
  402b84:	91003c00 	add	x0, x0, #0xf
  402b88:	f904d039 	str	x25, [x1, #2464]
  402b8c:	d2800021 	mov	x1, #0x1                   	// #1
  402b90:	f904d4a1 	str	x1, [x5, #2472]
  402b94:	f906e481 	str	x1, [x4, #3528]
  402b98:	9b1a5694 	madd	x20, x20, x26, x21
  402b9c:	f90242e1 	str	x1, [x23, #1152]
  402ba0:	f904ccd4 	str	x20, [x6, #2456]
  402ba4:	d2800806 	mov	x6, #0x40                  	// #64
  402ba8:	8b140014 	add	x20, x0, x20
  402bac:	f9050066 	str	x6, [x3, #2560]
  402bb0:	927cee94 	and	x20, x20, #0xfffffffffffffff0
  402bb4:	f9003774 	str	x20, [x27, #104]
  402bb8:	a94153f3 	ldp	x19, x20, [sp, #16]
  402bbc:	a9425bf5 	ldp	x21, x22, [sp, #32]
  402bc0:	a94363f7 	ldp	x23, x24, [sp, #48]
  402bc4:	a9446bf9 	ldp	x25, x26, [sp, #64]
  402bc8:	a94573fb 	ldp	x27, x28, [sp, #80]
  402bcc:	a8c87bfd 	ldp	x29, x30, [sp], #128
  402bd0:	d65f03c0 	ret
  402bd4:	d2800215 	mov	x21, #0x10                  	// #16
  402bd8:	aa1503e5 	mov	x5, x21
  402bdc:	aa1503f9 	mov	x25, x21
  402be0:	928001e2 	mov	x2, #0xfffffffffffffff0    	// #-16
  402be4:	d28001e4 	mov	x4, #0xf                   	// #15
  402be8:	d280003a 	mov	x26, #0x1                   	// #1
  402bec:	d2800018 	mov	x24, #0x0                   	// #0
  402bf0:	d2800013 	mov	x19, #0x0                   	// #0
  402bf4:	d280001c 	mov	x28, #0x0                   	// #0
  402bf8:	d2800014 	mov	x20, #0x0                   	// #0
  402bfc:	17ffffb4 	b	402acc <__libc_setup_tls+0xb4>
  402c00:	d2800215 	mov	x21, #0x10                  	// #16
  402c04:	928001e2 	mov	x2, #0xfffffffffffffff0    	// #-16
  402c08:	aa1503e5 	mov	x5, x21
  402c0c:	aa1503f9 	mov	x25, x21
  402c10:	d28001e4 	mov	x4, #0xf                   	// #15
  402c14:	d280003a 	mov	x26, #0x1                   	// #1
  402c18:	d2800018 	mov	x24, #0x0                   	// #0
  402c1c:	d280001c 	mov	x28, #0x0                   	// #0
  402c20:	d2800014 	mov	x20, #0x0                   	// #0
  402c24:	17ffffaa 	b	402acc <__libc_setup_tls+0xb4>
  402c28:	d2800215 	mov	x21, #0x10                  	// #16
  402c2c:	928001e2 	mov	x2, #0xfffffffffffffff0    	// #-16
  402c30:	aa1503e5 	mov	x5, x21
  402c34:	aa1503f9 	mov	x25, x21
  402c38:	17ffffeb 	b	402be4 <__libc_setup_tls+0x1cc>
  402c3c:	aa0003f3 	mov	x19, x0
  402c40:	aa0103fa 	mov	x26, x1
  402c44:	aa1503e5 	mov	x5, x21
  402c48:	aa1503f9 	mov	x25, x21
  402c4c:	17ffffa0 	b	402acc <__libc_setup_tls+0xb4>

0000000000402c50 <__tls_get_addr>:
  402c50:	d53bd041 	mrs	x1, tpidr_el0
  402c54:	f9400400 	ldr	x0, [x0, #8]
  402c58:	f9400021 	ldr	x1, [x1]
  402c5c:	f9400821 	ldr	x1, [x1, #16]
  402c60:	8b000020 	add	x0, x1, x0
  402c64:	d65f03c0 	ret

0000000000402c68 <__libc_csu_init>:
  402c68:	a9bc7bfd 	stp	x29, x30, [sp, #-64]!
  402c6c:	910003fd 	mov	x29, sp
  402c70:	a90363f7 	stp	x23, x24, [sp, #48]
  402c74:	90000457 	adrp	x23, 48a000 <__FRAME_END__+0xfbac>
  402c78:	90000458 	adrp	x24, 48a000 <__FRAME_END__+0xfbac>
  402c7c:	912422f7 	add	x23, x23, #0x908
  402c80:	91242318 	add	x24, x24, #0x908
  402c84:	cb1802f7 	sub	x23, x23, x24
  402c88:	a90153f3 	stp	x19, x20, [sp, #16]
  402c8c:	2a0003f4 	mov	w20, w0
  402c90:	a9025bf5 	stp	x21, x22, [sp, #32]
  402c94:	eb970fff 	cmp	xzr, x23, asr #3
  402c98:	aa0103f5 	mov	x21, x1
  402c9c:	aa0203f6 	mov	x22, x2
  402ca0:	54000180 	b.eq	402cd0 <__libc_csu_init+0x68>  // b.none
  402ca4:	9343fef7 	asr	x23, x23, #3
  402ca8:	d2800013 	mov	x19, #0x0                   	// #0
  402cac:	d503201f 	nop
  402cb0:	f8737b03 	ldr	x3, [x24, x19, lsl #3]
  402cb4:	aa1603e2 	mov	x2, x22
  402cb8:	91000673 	add	x19, x19, #0x1
  402cbc:	aa1503e1 	mov	x1, x21
  402cc0:	2a1403e0 	mov	w0, w20
  402cc4:	d63f0060 	blr	x3
  402cc8:	eb1302ff 	cmp	x23, x19
  402ccc:	54ffff21 	b.ne	402cb0 <__libc_csu_init+0x48>  // b.any
  402cd0:	90000457 	adrp	x23, 48a000 <__FRAME_END__+0xfbac>
  402cd4:	90000458 	adrp	x24, 48a000 <__FRAME_END__+0xfbac>
  402cd8:	912442f7 	add	x23, x23, #0x910
  402cdc:	91242318 	add	x24, x24, #0x908
  402ce0:	cb1802f7 	sub	x23, x23, x24
  402ce4:	97fff567 	bl	400280 <_init>
  402ce8:	eb970fff 	cmp	xzr, x23, asr #3
  402cec:	9343fef7 	asr	x23, x23, #3
  402cf0:	54000140 	b.eq	402d18 <__libc_csu_init+0xb0>  // b.none
  402cf4:	d2800013 	mov	x19, #0x0                   	// #0
  402cf8:	f8737b03 	ldr	x3, [x24, x19, lsl #3]
  402cfc:	aa1603e2 	mov	x2, x22
  402d00:	91000673 	add	x19, x19, #0x1
  402d04:	aa1503e1 	mov	x1, x21
  402d08:	2a1403e0 	mov	w0, w20
  402d0c:	d63f0060 	blr	x3
  402d10:	eb1302ff 	cmp	x23, x19
  402d14:	54ffff21 	b.ne	402cf8 <__libc_csu_init+0x90>  // b.any
  402d18:	a94153f3 	ldp	x19, x20, [sp, #16]
  402d1c:	a9425bf5 	ldp	x21, x22, [sp, #32]
  402d20:	a94363f7 	ldp	x23, x24, [sp, #48]
  402d24:	a8c47bfd 	ldp	x29, x30, [sp], #64
  402d28:	d65f03c0 	ret
  402d2c:	d503201f 	nop

0000000000402d30 <__libc_csu_fini>:
  402d30:	a9be7bfd 	stp	x29, x30, [sp, #-32]!
  402d34:	90000440 	adrp	x0, 48a000 <__FRAME_END__+0xfbac>
  402d38:	91248000 	add	x0, x0, #0x920
  402d3c:	910003fd 	mov	x29, sp
  402d40:	a90153f3 	stp	x19, x20, [sp, #16]
  402d44:	90000454 	adrp	x20, 48a000 <__FRAME_END__+0xfbac>
  402d48:	91244294 	add	x20, x20, #0x910
  402d4c:	cb140000 	sub	x0, x0, x20
  402d50:	9343fc00 	asr	x0, x0, #3
  402d54:	b4000100 	cbz	x0, 402d74 <__libc_csu_fini+0x44>
  402d58:	d1000413 	sub	x19, x0, #0x1
  402d5c:	d503201f 	nop
  402d60:	f8737a80 	ldr	x0, [x20, x19, lsl #3]
  402d64:	d1000673 	sub	x19, x19, #0x1
  402d68:	d63f0000 	blr	x0
  402d6c:	b100067f 	cmn	x19, #0x1
  402d70:	54ffff81 	b.ne	402d60 <__libc_csu_fini+0x30>  // b.any
  402d74:	a94153f3 	ldp	x19, x20, [sp, #16]
  402d78:	a8c27bfd 	ldp	x29, x30, [sp], #32
  402d7c:	140141aa 	b	453424 <_fini>

0000000000402d80 <__assert_fail_base>:
  402d80:	d101c3ff 	sub	sp, sp, #0x70
  402d84:	b0000286 	adrp	x6, 453000 <_nl_locale_subfreeres+0x1a8>
  402d88:	90000445 	adrp	x5, 48a000 <__FRAME_END__+0xfbac>
  402d8c:	912680a5 	add	x5, x5, #0x9a0
  402d90:	a9017bfd 	stp	x29, x30, [sp, #16]
  402d94:	910043fd 	add	x29, sp, #0x10
  402d98:	f94644c6 	ldr	x6, [x6, #3208]
  402d9c:	f94000a7 	ldr	x7, [x5]
  402da0:	f90037e7 	str	x7, [sp, #104]
  402da4:	d2800007 	mov	x7, #0x0                   	// #0
  402da8:	a90253f3 	stp	x19, x20, [sp, #32]
  402dac:	aa0103f4 	mov	x20, x1
  402db0:	aa0403f3 	mov	x19, x4
  402db4:	a9035bf5 	stp	x21, x22, [sp, #48]
  402db8:	aa0003f5 	mov	x21, x0
  402dbc:	aa0203f6 	mov	x22, x2
  402dc0:	f90023f7 	str	x23, [sp, #64]
  402dc4:	2a0303f7 	mov	w23, w3
  402dc8:	b4000086 	cbz	x6, 402dd8 <__assert_fail_base+0x58>
  402dcc:	d2800001 	mov	x1, #0x0                   	// #0
  402dd0:	52800020 	mov	w0, #0x1                   	// #1
  402dd4:	d503201f 	nop
  402dd8:	b0000440 	adrp	x0, 48b000 <_GLOBAL_OFFSET_TABLE_+0xc8>
  402ddc:	f0000306 	adrp	x6, 465000 <translit_from_idx+0xdc0>
  402de0:	b0000288 	adrp	x8, 453000 <_nl_locale_subfreeres+0x1a8>
  402de4:	913dc0c6 	add	x6, x6, #0xf70
  402de8:	f947a402 	ldr	x2, [x0, #3912]
  402dec:	9130e108 	add	x8, x8, #0xc38
  402df0:	910173e0 	add	x0, sp, #0x5c
  402df4:	2a1703e5 	mov	w5, w23
  402df8:	aa1603e4 	mov	x4, x22
  402dfc:	aa1503e1 	mov	x1, x21
  402e00:	39400043 	ldrb	w3, [x2]
  402e04:	a90003f4 	stp	x20, x0, [sp]
  402e08:	910183e0 	add	x0, sp, #0x60
  402e0c:	7100007f 	cmp	w3, #0x0
  402e10:	9a861103 	csel	x3, x8, x6, ne  // ne = any
  402e14:	f100027f 	cmp	x19, #0x0
  402e18:	9a861266 	csel	x6, x19, x6, ne  // ne = any
  402e1c:	9a861107 	csel	x7, x8, x6, ne  // ne = any
  402e20:	9400162e 	bl	4086d8 <___asprintf>
  402e24:	37f80520 	tbnz	w0, #31, 402ec8 <__assert_fail_base+0x148>
  402e28:	f94033e2 	ldr	x2, [sp, #96]
  402e2c:	b0000341 	adrp	x1, 46b000 <__sys_errlist_internal+0x1f0>
  402e30:	d2800000 	mov	x0, #0x0                   	// #0
  402e34:	91098021 	add	x1, x1, #0x260
  402e38:	94001710 	bl	408a78 <__fxprintf>
  402e3c:	b0000440 	adrp	x0, 48b000 <_GLOBAL_OFFSET_TABLE_+0xc8>
  402e40:	f942f400 	ldr	x0, [x0, #1512]
  402e44:	9400183b 	bl	408f30 <_IO_fflush>
  402e48:	b0000440 	adrp	x0, 48b000 <_GLOBAL_OFFSET_TABLE_+0xc8>
  402e4c:	b9405fe1 	ldr	w1, [sp, #92]
  402e50:	d2800005 	mov	x5, #0x0                   	// #0
  402e54:	12800004 	mov	w4, #0xffffffff            	// #-1
  402e58:	f947ac00 	ldr	x0, [x0, #3928]
  402e5c:	52800443 	mov	w3, #0x22                  	// #34
  402e60:	52800062 	mov	w2, #0x3                   	// #3
  402e64:	0b000021 	add	w1, w1, w0
  402e68:	4b0003e0 	neg	w0, w0
  402e6c:	0a000021 	and	w1, w1, w0
  402e70:	d2800000 	mov	x0, #0x0                   	// #0
  402e74:	b9005fe1 	str	w1, [sp, #92]
  402e78:	93407c21 	sxtw	x1, w1
  402e7c:	94005fd9 	bl	41ade0 <__mmap64>
  402e80:	aa0003f3 	mov	x19, x0
  402e84:	b100041f 	cmn	x0, #0x1
  402e88:	540001a0 	b.eq	402ebc <__assert_fail_base+0x13c>  // b.none
  402e8c:	b9405fe2 	ldr	w2, [sp, #92]
  402e90:	f94033e1 	ldr	x1, [sp, #96]
  402e94:	b8004402 	str	w2, [x0], #4
  402e98:	94004e0a 	bl	4166c0 <strcpy>
  402e9c:	d0000441 	adrp	x1, 48c000 <_dl_main_map+0xa0>
  402ea0:	913d4021 	add	x1, x1, #0xf50
  402ea4:	c85ffc20 	ldaxr	x0, [x1]
  402ea8:	c8027c33 	stxr	w2, x19, [x1]
  402eac:	35ffffc2 	cbnz	w2, 402ea4 <__assert_fail_base+0x124>
  402eb0:	b4000060 	cbz	x0, 402ebc <__assert_fail_base+0x13c>
  402eb4:	b9400001 	ldr	w1, [x0]
  402eb8:	94005fe2 	bl	41ae40 <__munmap>
  402ebc:	f94033e0 	ldr	x0, [sp, #96]
  402ec0:	940048a8 	bl	415160 <__free>
  402ec4:	97fff51f 	bl	400340 <abort>
  402ec8:	b0000281 	adrp	x1, 453000 <_nl_locale_subfreeres+0x1a8>
  402ecc:	9131c021 	add	x1, x1, #0xc70
  402ed0:	d2800242 	mov	x2, #0x12                  	// #18
  402ed4:	52800040 	mov	w0, #0x2                   	// #2
  402ed8:	94005cb8 	bl	41a1b8 <__libc_write>
  402edc:	97fff519 	bl	400340 <abort>

0000000000402ee0 <__assert_fail>:
  402ee0:	a9bd7bfd 	stp	x29, x30, [sp, #-48]!
  402ee4:	910003fd 	mov	x29, sp
  402ee8:	a90153f3 	stp	x19, x20, [sp, #16]
  402eec:	aa0003f3 	mov	x19, x0
  402ef0:	aa0103f4 	mov	x20, x1
  402ef4:	f0000300 	adrp	x0, 465000 <translit_from_idx+0xdc0>
  402ef8:	b0000281 	adrp	x1, 453000 <_nl_locale_subfreeres+0x1a8>
  402efc:	9130a000 	add	x0, x0, #0xc28
  402f00:	91310021 	add	x1, x1, #0xc40
  402f04:	a9025bf5 	stp	x21, x22, [sp, #32]
  402f08:	aa0303f6 	mov	x22, x3
  402f0c:	2a0203f5 	mov	w21, w2
  402f10:	528000a2 	mov	w2, #0x5                   	// #5
  402f14:	94000007 	bl	402f30 <__dcgettext>
  402f18:	aa1603e4 	mov	x4, x22
  402f1c:	2a1503e3 	mov	w3, w21
  402f20:	aa1403e2 	mov	x2, x20
  402f24:	aa1303e1 	mov	x1, x19
  402f28:	97ffff96 	bl	402d80 <__assert_fail_base>
  402f2c:	d503201f 	nop

0000000000402f30 <__dcgettext>:
  402f30:	2a0203e5 	mov	w5, w2
  402f34:	d2800004 	mov	x4, #0x0                   	// #0
  402f38:	52800003 	mov	w3, #0x0                   	// #0
  402f3c:	d2800002 	mov	x2, #0x0                   	// #0
  402f40:	1400034e 	b	403c78 <__dcigettext>
  402f44:	d503201f 	nop

0000000000402f48 <plural_eval>:
  402f48:	a9bd7bfd 	stp	x29, x30, [sp, #-48]!
  402f4c:	910003fd 	mov	x29, sp
  402f50:	a90153f3 	stp	x19, x20, [sp, #16]
  402f54:	aa0003f3 	mov	x19, x0
  402f58:	aa0103f4 	mov	x20, x1
  402f5c:	f90013f5 	str	x21, [sp, #32]
  402f60:	b9400260 	ldr	w0, [x19]
  402f64:	7100081f 	cmp	w0, #0x2
  402f68:	54000380 	b.eq	402fd8 <plural_eval+0x90>  // b.none
  402f6c:	540001cc 	b.gt	402fa4 <plural_eval+0x5c>
  402f70:	340006e0 	cbz	w0, 40304c <plural_eval+0x104>
  402f74:	7100041f 	cmp	w0, #0x1
  402f78:	54000741 	b.ne	403060 <plural_eval+0x118>  // b.any
  402f7c:	f9400660 	ldr	x0, [x19, #8]
  402f80:	aa1403e1 	mov	x1, x20
  402f84:	97fffff1 	bl	402f48 <plural_eval>
  402f88:	f100001f 	cmp	x0, #0x0
  402f8c:	9a9f17f5 	cset	x21, eq  // eq = none
  402f90:	aa1503e0 	mov	x0, x21
  402f94:	a94153f3 	ldp	x19, x20, [sp, #16]
  402f98:	f94013f5 	ldr	x21, [sp, #32]
  402f9c:	a8c37bfd 	ldp	x29, x30, [sp], #48
  402fa0:	d65f03c0 	ret
  402fa4:	aa1403e1 	mov	x1, x20
  402fa8:	71000c1f 	cmp	w0, #0x3
  402fac:	540005a1 	b.ne	403060 <plural_eval+0x118>  // b.any
  402fb0:	f9400660 	ldr	x0, [x19, #8]
  402fb4:	97ffffe5 	bl	402f48 <plural_eval>
  402fb8:	f100001f 	cmp	x0, #0x0
  402fbc:	1a9f17e0 	cset	w0, eq  // eq = none
  402fc0:	11000400 	add	w0, w0, #0x1
  402fc4:	8b20ce73 	add	x19, x19, w0, sxtw #3
  402fc8:	f9400673 	ldr	x19, [x19, #8]
  402fcc:	b9400260 	ldr	w0, [x19]
  402fd0:	7100081f 	cmp	w0, #0x2
  402fd4:	54fffcc1 	b.ne	402f6c <plural_eval+0x24>  // b.any
  402fd8:	f9400660 	ldr	x0, [x19, #8]
  402fdc:	aa1403e1 	mov	x1, x20
  402fe0:	97ffffda 	bl	402f48 <plural_eval>
  402fe4:	aa0003f5 	mov	x21, x0
  402fe8:	b9400661 	ldr	w1, [x19, #4]
  402fec:	71003c3f 	cmp	w1, #0xf
  402ff0:	54000480 	b.eq	403080 <plural_eval+0x138>  // b.none
  402ff4:	7100383f 	cmp	w1, #0xe
  402ff8:	540007a0 	b.eq	4030ec <plural_eval+0x1a4>  // b.none
  402ffc:	f9400a60 	ldr	x0, [x19, #16]
  403000:	aa1403e1 	mov	x1, x20
  403004:	97ffffd1 	bl	402f48 <plural_eval>
  403008:	b9400661 	ldr	w1, [x19, #4]
  40300c:	aa0003f3 	mov	x19, x0
  403010:	7100203f 	cmp	w1, #0x8
  403014:	54000900 	b.eq	403134 <plural_eval+0x1ec>  // b.none
  403018:	54000488 	b.hi	4030a8 <plural_eval+0x160>  // b.pmore
  40301c:	7100143f 	cmp	w1, #0x5
  403020:	54000820 	b.eq	403124 <plural_eval+0x1dc>  // b.none
  403024:	54000349 	b.ls	40308c <plural_eval+0x144>  // b.plast
  403028:	cb0002a0 	sub	x0, x21, x0
  40302c:	7100183f 	cmp	w1, #0x6
  403030:	8b1302b5 	add	x21, x21, x19
  403034:	9a8002b5 	csel	x21, x21, x0, eq  // eq = none
  403038:	aa1503e0 	mov	x0, x21
  40303c:	a94153f3 	ldp	x19, x20, [sp, #16]
  403040:	f94013f5 	ldr	x21, [sp, #32]
  403044:	a8c37bfd 	ldp	x29, x30, [sp], #48
  403048:	d65f03c0 	ret
  40304c:	b9400660 	ldr	w0, [x19, #4]
  403050:	aa1403f5 	mov	x21, x20
  403054:	34fff9e0 	cbz	w0, 402f90 <plural_eval+0x48>
  403058:	7100041f 	cmp	w0, #0x1
  40305c:	540000e0 	b.eq	403078 <plural_eval+0x130>  // b.none
  403060:	d2800015 	mov	x21, #0x0                   	// #0
  403064:	aa1503e0 	mov	x0, x21
  403068:	a94153f3 	ldp	x19, x20, [sp, #16]
  40306c:	f94013f5 	ldr	x21, [sp, #32]
  403070:	a8c37bfd 	ldp	x29, x30, [sp], #48
  403074:	d65f03c0 	ret
  403078:	f9400675 	ldr	x21, [x19, #8]
  40307c:	17ffffc5 	b	402f90 <plural_eval+0x48>
  403080:	b4000380 	cbz	x0, 4030f0 <plural_eval+0x1a8>
  403084:	d2800035 	mov	x21, #0x1                   	// #1
  403088:	17ffffc2 	b	402f90 <plural_eval+0x48>
  40308c:	71000c3f 	cmp	w1, #0x3
  403090:	54000580 	b.eq	403140 <plural_eval+0x1f8>  // b.none
  403094:	7100103f 	cmp	w1, #0x4
  403098:	54fffe41 	b.ne	403060 <plural_eval+0x118>  // b.any
  40309c:	b4000360 	cbz	x0, 403108 <plural_eval+0x1c0>
  4030a0:	9ad30ab5 	udiv	x21, x21, x19
  4030a4:	17ffffbb 	b	402f90 <plural_eval+0x48>
  4030a8:	71002c3f 	cmp	w1, #0xb
  4030ac:	54000360 	b.eq	403118 <plural_eval+0x1d0>  // b.none
  4030b0:	54000109 	b.ls	4030d0 <plural_eval+0x188>  // b.plast
  4030b4:	7100303f 	cmp	w1, #0xc
  4030b8:	54000480 	b.eq	403148 <plural_eval+0x200>  // b.none
  4030bc:	7100343f 	cmp	w1, #0xd
  4030c0:	54fffd01 	b.ne	403060 <plural_eval+0x118>  // b.any
  4030c4:	eb0002bf 	cmp	x21, x0
  4030c8:	9a9f07f5 	cset	x21, ne  // ne = any
  4030cc:	17ffffb1 	b	402f90 <plural_eval+0x48>
  4030d0:	7100243f 	cmp	w1, #0x9
  4030d4:	54000400 	b.eq	403154 <plural_eval+0x20c>  // b.none
  4030d8:	7100283f 	cmp	w1, #0xa
  4030dc:	54fffc21 	b.ne	403060 <plural_eval+0x118>  // b.any
  4030e0:	eb0002bf 	cmp	x21, x0
  4030e4:	9a9f87f5 	cset	x21, ls  // ls = plast
  4030e8:	17ffffaa 	b	402f90 <plural_eval+0x48>
  4030ec:	b4fff520 	cbz	x0, 402f90 <plural_eval+0x48>
  4030f0:	f9400a60 	ldr	x0, [x19, #16]
  4030f4:	aa1403e1 	mov	x1, x20
  4030f8:	97ffff94 	bl	402f48 <plural_eval>
  4030fc:	f100001f 	cmp	x0, #0x0
  403100:	9a9f07f5 	cset	x21, ne  // ne = any
  403104:	17ffffa3 	b	402f90 <plural_eval+0x48>
  403108:	52800100 	mov	w0, #0x8                   	// #8
  40310c:	94001063 	bl	407298 <raise>
  403110:	9ad30ab5 	udiv	x21, x21, x19
  403114:	17ffff9f 	b	402f90 <plural_eval+0x48>
  403118:	eb0002bf 	cmp	x21, x0
  40311c:	9a9f37f5 	cset	x21, cs  // cs = hs, nlast
  403120:	17ffff9c 	b	402f90 <plural_eval+0x48>
  403124:	b40001e0 	cbz	x0, 403160 <plural_eval+0x218>
  403128:	9ad30aa0 	udiv	x0, x21, x19
  40312c:	9b13d415 	msub	x21, x0, x19, x21
  403130:	17ffff98 	b	402f90 <plural_eval+0x48>
  403134:	eb0002bf 	cmp	x21, x0
  403138:	9a9f27f5 	cset	x21, cc  // cc = lo, ul, last
  40313c:	17ffff95 	b	402f90 <plural_eval+0x48>
  403140:	9b007eb5 	mul	x21, x21, x0
  403144:	17ffff93 	b	402f90 <plural_eval+0x48>
  403148:	eb0002bf 	cmp	x21, x0
  40314c:	9a9f17f5 	cset	x21, eq  // eq = none
  403150:	17ffff90 	b	402f90 <plural_eval+0x48>
  403154:	eb0002bf 	cmp	x21, x0
  403158:	9a9f97f5 	cset	x21, hi  // hi = pmore
  40315c:	17ffff8d 	b	402f90 <plural_eval+0x48>
  403160:	52800100 	mov	w0, #0x8                   	// #8
  403164:	9400104d 	bl	407298 <raise>
  403168:	17fffff0 	b	403128 <plural_eval+0x1e0>
  40316c:	d503201f 	nop

0000000000403170 <transcmp>:
  403170:	a9be7bfd 	stp	x29, x30, [sp, #-32]!
  403174:	910003fd 	mov	x29, sp
  403178:	a90153f3 	stp	x19, x20, [sp, #16]
  40317c:	aa0003f4 	mov	x20, x0
  403180:	aa0103f3 	mov	x19, x1
  403184:	f9401000 	ldr	x0, [x0, #32]
  403188:	b40002e0 	cbz	x0, 4031e4 <transcmp+0x74>
  40318c:	9100e280 	add	x0, x20, #0x38
  403190:	f9401261 	ldr	x1, [x19, #32]
  403194:	b4000241 	cbz	x1, 4031dc <transcmp+0x6c>
  403198:	9100e261 	add	x1, x19, #0x38
  40319c:	94004d09 	bl	4165c0 <strcmp>
  4031a0:	35000180 	cbnz	w0, 4031d0 <transcmp+0x60>
  4031a4:	f9400261 	ldr	x1, [x19]
  4031a8:	f9400280 	ldr	x0, [x20]
  4031ac:	94004d05 	bl	4165c0 <strcmp>
  4031b0:	35000100 	cbnz	w0, 4031d0 <transcmp+0x60>
  4031b4:	f9400a61 	ldr	x1, [x19, #16]
  4031b8:	f9400a80 	ldr	x0, [x20, #16]
  4031bc:	94004d01 	bl	4165c0 <strcmp>
  4031c0:	35000080 	cbnz	w0, 4031d0 <transcmp+0x60>
  4031c4:	b9400a61 	ldr	w1, [x19, #8]
  4031c8:	b9400a80 	ldr	w0, [x20, #8]
  4031cc:	4b010000 	sub	w0, w0, w1
  4031d0:	a94153f3 	ldp	x19, x20, [sp, #16]
  4031d4:	a8c27bfd 	ldp	x29, x30, [sp], #32
  4031d8:	d65f03c0 	ret
  4031dc:	f9401e61 	ldr	x1, [x19, #56]
  4031e0:	17ffffef 	b	40319c <transcmp+0x2c>
  4031e4:	f9401e80 	ldr	x0, [x20, #56]
  4031e8:	17ffffea 	b	403190 <transcmp+0x20>
  4031ec:	d503201f 	nop

00000000004031f0 <plural_lookup.isra.0>:
  4031f0:	a9bd7bfd 	stp	x29, x30, [sp, #-48]!
  4031f4:	910003fd 	mov	x29, sp
  4031f8:	a90153f3 	stp	x19, x20, [sp, #16]
  4031fc:	aa0003f3 	mov	x19, x0
  403200:	aa0303f4 	mov	x20, x3
  403204:	f9405c00 	ldr	x0, [x0, #184]
  403208:	f90013f5 	str	x21, [sp, #32]
  40320c:	aa0203f5 	mov	x21, x2
  403210:	97ffff4e 	bl	402f48 <plural_eval>
  403214:	f9406261 	ldr	x1, [x19, #192]
  403218:	eb01001f 	cmp	x0, x1
  40321c:	540001a2 	b.cs	403250 <plural_lookup.isra.0+0x60>  // b.hs, b.nlast
  403220:	aa0003f3 	mov	x19, x0
  403224:	8b1402b4 	add	x20, x21, x20
  403228:	aa1503e0 	mov	x0, x21
  40322c:	d503201f 	nop
  403230:	d1000673 	sub	x19, x19, #0x1
  403234:	52800001 	mov	w1, #0x0                   	// #0
  403238:	b100067f 	cmn	x19, #0x1
  40323c:	54000140 	b.eq	403264 <plural_lookup.isra.0+0x74>  // b.none
  403240:	940051e0 	bl	4179c0 <__rawmemchr>
  403244:	91000400 	add	x0, x0, #0x1
  403248:	eb14001f 	cmp	x0, x20
  40324c:	54ffff23 	b.cc	403230 <plural_lookup.isra.0+0x40>  // b.lo, b.ul, b.last
  403250:	aa1503e0 	mov	x0, x21
  403254:	a94153f3 	ldp	x19, x20, [sp, #16]
  403258:	f94013f5 	ldr	x21, [sp, #32]
  40325c:	a8c37bfd 	ldp	x29, x30, [sp], #48
  403260:	d65f03c0 	ret
  403264:	aa0003f5 	mov	x21, x0
  403268:	17fffffa 	b	403250 <plural_lookup.isra.0+0x60>
  40326c:	d503201f 	nop

0000000000403270 <_nl_find_msg>:
  403270:	a9b47bfd 	stp	x29, x30, [sp, #-192]!
  403274:	910003fd 	mov	x29, sp
  403278:	a9025bf5 	stp	x21, x22, [sp, #32]
  40327c:	f0000435 	adrp	x21, 48a000 <__FRAME_END__+0xfbac>
  403280:	912682a5 	add	x5, x21, #0x9a0
  403284:	f94000a7 	ldr	x7, [x5]
  403288:	f9005fa7 	str	x7, [x29, #184]
  40328c:	d2800007 	mov	x7, #0x0                   	// #0
  403290:	a90153f3 	stp	x19, x20, [sp, #16]
  403294:	a90363f7 	stp	x23, x24, [sp, #48]
  403298:	aa0203f8 	mov	x24, x2
  40329c:	a9046bf9 	stp	x25, x26, [sp, #64]
  4032a0:	a90573fb 	stp	x27, x28, [sp, #80]
  4032a4:	d10043ff 	sub	sp, sp, #0x10
  4032a8:	a90693a1 	stp	x1, x4, [x29, #104]
  4032ac:	b9007ba3 	str	w3, [x29, #120]
  4032b0:	a90803a5 	stp	x5, x0, [x29, #128]
  4032b4:	b9400805 	ldr	w5, [x0, #8]
  4032b8:	710000bf 	cmp	w5, #0x0
  4032bc:	540010cd 	b.le	4034d4 <_nl_find_msg+0x264>
  4032c0:	f94047a0 	ldr	x0, [x29, #136]
  4032c4:	f9400817 	ldr	x23, [x0, #16]
  4032c8:	b4000d77 	cbz	x23, 403474 <_nl_find_msg+0x204>
  4032cc:	f94032e0 	ldr	x0, [x23, #96]
  4032d0:	b9402af3 	ldr	w19, [x23, #40]
  4032d4:	b40009e0 	cbz	x0, 403410 <_nl_find_msg+0x1a0>
  4032d8:	aa1803e0 	mov	x0, x24
  4032dc:	97fff409 	bl	400300 <.plt+0x60>
  4032e0:	aa0003fa 	mov	x26, x0
  4032e4:	aa1803e0 	mov	x0, x24
  4032e8:	94000fa8 	bl	407188 <__hash_string>
  4032ec:	b9406af4 	ldr	w20, [x23, #104]
  4032f0:	b9405ae3 	ldr	w3, [x23, #88]
  4032f4:	92407f42 	and	x2, x26, #0xffffffff
  4032f8:	f9004ba2 	str	x2, [x29, #144]
  4032fc:	51000861 	sub	w1, w3, #0x2
  403300:	b9009bba 	str	w26, [x29, #152]
  403304:	f94032f5 	ldr	x21, [x23, #96]
  403308:	1ac10804 	udiv	w4, w0, w1
  40330c:	1ac30802 	udiv	w2, w0, w3
  403310:	1b018084 	msub	w4, w4, w1, w0
  403314:	11000499 	add	w25, w4, #0x1
  403318:	1b03805a 	msub	w26, w2, w3, w0
  40331c:	4b19007b 	sub	w27, w3, w25
  403320:	4b030336 	sub	w22, w25, w3
  403324:	14000016 	b	40337c <_nl_find_msg+0x10c>
  403328:	b9401aea 	ldr	w10, [x23, #24]
  40332c:	d37d7f80 	ubfiz	x0, x28, #3, #32
  403330:	f9401ae1 	ldr	x1, [x23, #48]
  403334:	8b00002b 	add	x11, x1, x0
  403338:	b8606820 	ldr	w0, [x1, x0]
  40333c:	34000c0a 	cbz	w10, 4034bc <_nl_find_msg+0x24c>
  403340:	b9409ba1 	ldr	w1, [x29, #152]
  403344:	5ac00800 	rev	w0, w0
  403348:	6b00003f 	cmp	w1, w0
  40334c:	54000108 	b.hi	40336c <_nl_find_msg+0xfc>  // b.pmore
  403350:	b9400560 	ldr	w0, [x11, #4]
  403354:	f94002e1 	ldr	x1, [x23]
  403358:	5ac00800 	rev	w0, w0
  40335c:	8b000021 	add	x1, x1, x0
  403360:	aa1803e0 	mov	x0, x24
  403364:	94004c97 	bl	4165c0 <strcmp>
  403368:	34000320 	cbz	w0, 4033cc <_nl_find_msg+0x15c>
  40336c:	6b1a037f 	cmp	w27, w26
  403370:	0b160340 	add	w0, w26, w22
  403374:	0b190342 	add	w2, w26, w25
  403378:	1a80805a 	csel	w26, w2, w0, hi  // hi = pmore
  40337c:	b87a5aa1 	ldr	w1, [x21, w26, uxtw #2]
  403380:	7100029f 	cmp	w20, #0x0
  403384:	5ac00820 	rev	w0, w1
  403388:	1a811001 	csel	w1, w0, w1, ne  // ne = any
  40338c:	34000741 	cbz	w1, 403474 <_nl_find_msg+0x204>
  403390:	5100043c 	sub	w28, w1, #0x1
  403394:	6b1c027f 	cmp	w19, w28
  403398:	54fffc88 	b.hi	403328 <_nl_find_msg+0xb8>  // b.pmore
  40339c:	4b130380 	sub	w0, w28, w19
  4033a0:	f94026e1 	ldr	x1, [x23, #72]
  4033a4:	d37cec00 	lsl	x0, x0, #4
  4033a8:	8b000026 	add	x6, x1, x0
  4033ac:	f8606820 	ldr	x0, [x1, x0]
  4033b0:	f9404ba1 	ldr	x1, [x29, #144]
  4033b4:	eb01001f 	cmp	x0, x1
  4033b8:	54fffda9 	b.ls	40336c <_nl_find_msg+0xfc>  // b.plast
  4033bc:	f94004c1 	ldr	x1, [x6, #8]
  4033c0:	aa1803e0 	mov	x0, x24
  4033c4:	94004c7f 	bl	4165c0 <strcmp>
  4033c8:	35fffd20 	cbnz	w0, 40336c <_nl_find_msg+0xfc>
  4033cc:	aa1c03f6 	mov	x22, x28
  4033d0:	2a1303fa 	mov	w26, w19
  4033d4:	eb1a02df 	cmp	x22, x26
  4033d8:	54000823 	b.cc	4034dc <_nl_find_msg+0x26c>  // b.lo, b.ul, b.last
  4033dc:	cb1a02da 	sub	x26, x22, x26
  4033e0:	f9402ae0 	ldr	x0, [x23, #80]
  4033e4:	d37cef5a 	lsl	x26, x26, #4
  4033e8:	8b1a0001 	add	x1, x0, x26
  4033ec:	f87a6800 	ldr	x0, [x0, x26]
  4033f0:	f9004fa0 	str	x0, [x29, #152]
  4033f4:	f9400438 	ldr	x24, [x1, #8]
  4033f8:	b9407ba0 	ldr	w0, [x29, #120]
  4033fc:	350008c0 	cbnz	w0, 403514 <_nl_find_msg+0x2a4>
  403400:	f9403ba0 	ldr	x0, [x29, #112]
  403404:	f9404fa1 	ldr	x1, [x29, #152]
  403408:	f9000001 	str	x1, [x0]
  40340c:	1400001b 	b	403478 <_nl_find_msg+0x208>
  403410:	2a1303fa 	mov	w26, w19
  403414:	d280001b 	mov	x27, #0x0                   	// #0
  403418:	aa1a03fc 	mov	x28, x26
  40341c:	d503201f 	nop
  403420:	eb1b039f 	cmp	x28, x27
  403424:	54000289 	b.ls	403474 <_nl_find_msg+0x204>  // b.plast
  403428:	8b1b0386 	add	x6, x28, x27
  40342c:	b9401ae0 	ldr	w0, [x23, #24]
  403430:	f9401ae2 	ldr	x2, [x23, #48]
  403434:	d341fcd6 	lsr	x22, x6, #1
  403438:	7100001f 	cmp	w0, #0x0
  40343c:	aa1803e0 	mov	x0, x24
  403440:	f94002e1 	ldr	x1, [x23]
  403444:	8b160c42 	add	x2, x2, x22, lsl #3
  403448:	b9400442 	ldr	w2, [x2, #4]
  40344c:	5ac00843 	rev	w3, w2
  403450:	1a830042 	csel	w2, w2, w3, eq  // eq = none
  403454:	8b020021 	add	x1, x1, x2
  403458:	94004c5a 	bl	4165c0 <strcmp>
  40345c:	7100001f 	cmp	w0, #0x0
  403460:	540002ab 	b.lt	4034b4 <_nl_find_msg+0x244>  // b.tstop
  403464:	54fffb80 	b.eq	4033d4 <_nl_find_msg+0x164>  // b.none
  403468:	910006db 	add	x27, x22, #0x1
  40346c:	eb1b039f 	cmp	x28, x27
  403470:	54fffdc8 	b.hi	403428 <_nl_find_msg+0x1b8>  // b.pmore
  403474:	d2800018 	mov	x24, #0x0                   	// #0
  403478:	f94043a0 	ldr	x0, [x29, #128]
  40347c:	f9405fa1 	ldr	x1, [x29, #184]
  403480:	f9400002 	ldr	x2, [x0]
  403484:	eb020021 	subs	x1, x1, x2
  403488:	d2800002 	mov	x2, #0x0                   	// #0
  40348c:	54003e21 	b.ne	403c50 <_nl_find_msg+0x9e0>  // b.any
  403490:	910003bf 	mov	sp, x29
  403494:	aa1803e0 	mov	x0, x24
  403498:	a94153f3 	ldp	x19, x20, [sp, #16]
  40349c:	a9425bf5 	ldp	x21, x22, [sp, #32]
  4034a0:	a94363f7 	ldp	x23, x24, [sp, #48]
  4034a4:	a9446bf9 	ldp	x25, x26, [sp, #64]
  4034a8:	a94573fb 	ldp	x27, x28, [sp, #80]
  4034ac:	a8cc7bfd 	ldp	x29, x30, [sp], #192
  4034b0:	d65f03c0 	ret
  4034b4:	aa1603fc 	mov	x28, x22
  4034b8:	17ffffda 	b	403420 <_nl_find_msg+0x1b0>
  4034bc:	b9409ba1 	ldr	w1, [x29, #152]
  4034c0:	6b01001f 	cmp	w0, w1
  4034c4:	54fff543 	b.cc	40336c <_nl_find_msg+0xfc>  // b.lo, b.ul, b.last
  4034c8:	b9400560 	ldr	w0, [x11, #4]
  4034cc:	f94002e1 	ldr	x1, [x23]
  4034d0:	17ffffa3 	b	40335c <_nl_find_msg+0xec>
  4034d4:	9400045f 	bl	404650 <_nl_load_domain>
  4034d8:	17ffff7a 	b	4032c0 <_nl_find_msg+0x50>
  4034dc:	f9401ee1 	ldr	x1, [x23, #56]
  4034e0:	d37df2c0 	lsl	x0, x22, #3
  4034e4:	b9401ae2 	ldr	w2, [x23, #24]
  4034e8:	8b000023 	add	x3, x1, x0
  4034ec:	b860683b 	ldr	w27, [x1, x0]
  4034f0:	f94002f8 	ldr	x24, [x23]
  4034f4:	b9400460 	ldr	w0, [x3, #4]
  4034f8:	34000782 	cbz	w2, 4035e8 <_nl_find_msg+0x378>
  4034fc:	5ac00800 	rev	w0, w0
  403500:	5ac00b7b 	rev	w27, w27
  403504:	8b000318 	add	x24, x24, x0
  403508:	11000760 	add	w0, w27, #0x1
  40350c:	f9004fa0 	str	x0, [x29, #152]
  403510:	17ffffba 	b	4033f8 <_nl_find_msg+0x188>
  403514:	f94037a0 	ldr	x0, [x29, #104]
  403518:	b40004e0 	cbz	x0, 4035b4 <_nl_find_msg+0x344>
  40351c:	f9400819 	ldr	x25, [x0, #16]
  403520:	b40004b9 	cbz	x25, 4035b4 <_nl_find_msg+0x344>
  403524:	90000280 	adrp	x0, 453000 <_nl_locale_subfreeres+0x1a8>
  403528:	f9468000 	ldr	x0, [x0, #3328]
  40352c:	b4000060 	cbz	x0, 403538 <_nl_find_msg+0x2c8>
  403530:	910202e0 	add	x0, x23, #0x80
  403534:	d503201f 	nop
  403538:	f9403efb 	ldr	x27, [x23, #120]
  40353c:	8b1b077c 	add	x28, x27, x27, lsl #1
  403540:	d37df39c 	lsl	x28, x28, #3
  403544:	d100639c 	sub	x28, x28, #0x18
  403548:	b400059b 	cbz	x27, 4035f8 <_nl_find_msg+0x388>
  40354c:	f9403ae0 	ldr	x0, [x23, #112]
  403550:	d100077b 	sub	x27, x27, #0x1
  403554:	aa1903e1 	mov	x1, x25
  403558:	8b1c001a 	add	x26, x0, x28
  40355c:	f87c6800 	ldr	x0, [x0, x28]
  403560:	d100639c 	sub	x28, x28, #0x18
  403564:	94004c17 	bl	4165c0 <strcmp>
  403568:	35ffff00 	cbnz	w0, 403548 <_nl_find_msg+0x2d8>
  40356c:	90000280 	adrp	x0, 453000 <_nl_locale_subfreeres+0x1a8>
  403570:	f9468800 	ldr	x0, [x0, #3344]
  403574:	b4000060 	cbz	x0, 403580 <_nl_find_msg+0x310>
  403578:	910202e0 	add	x0, x23, #0x80
  40357c:	d503201f 	nop
  403580:	f9400740 	ldr	x0, [x26, #8]
  403584:	b100041f 	cmn	x0, #0x1
  403588:	54fff3c0 	b.eq	403400 <_nl_find_msg+0x190>  // b.none
  40358c:	f9400b40 	ldr	x0, [x26, #16]
  403590:	b4002640 	cbz	x0, 403a58 <_nl_find_msg+0x7e8>
  403594:	b100041f 	cmn	x0, #0x1
  403598:	540025c0 	b.eq	403a50 <_nl_find_msg+0x7e0>  // b.none
  40359c:	f8767800 	ldr	x0, [x0, x22, lsl #3]
  4035a0:	b4000960 	cbz	x0, 4036cc <_nl_find_msg+0x45c>
  4035a4:	aa0003f8 	mov	x24, x0
  4035a8:	f8408700 	ldr	x0, [x24], #8
  4035ac:	f9004fa0 	str	x0, [x29, #152]
  4035b0:	17ffff94 	b	403400 <_nl_find_msg+0x190>
  4035b4:	b000045c 	adrp	x28, 48c000 <_dl_main_map+0xa0>
  4035b8:	9138439c 	add	x28, x28, #0xe10
  4035bc:	b9401380 	ldr	w0, [x28, #16]
  4035c0:	34000580 	cbz	w0, 403670 <_nl_find_msg+0x400>
  4035c4:	f9400f99 	ldr	x25, [x28, #24]
  4035c8:	b5fffaf9 	cbnz	x25, 403524 <_nl_find_msg+0x2b4>
  4035cc:	f0000420 	adrp	x0, 48a000 <__FRAME_END__+0xfbac>
  4035d0:	f947c000 	ldr	x0, [x0, #3968]
  4035d4:	d53bd041 	mrs	x1, tpidr_el0
  4035d8:	f8606820 	ldr	x0, [x1, x0]
  4035dc:	f9400000 	ldr	x0, [x0]
  4035e0:	f9405819 	ldr	x25, [x0, #176]
  4035e4:	17ffffd0 	b	403524 <_nl_find_msg+0x2b4>
  4035e8:	8b204318 	add	x24, x24, w0, uxtw
  4035ec:	11000760 	add	w0, w27, #0x1
  4035f0:	f9004fa0 	str	x0, [x29, #152]
  4035f4:	17ffff81 	b	4033f8 <_nl_find_msg+0x188>
  4035f8:	90000280 	adrp	x0, 453000 <_nl_locale_subfreeres+0x1a8>
  4035fc:	f9468800 	ldr	x0, [x0, #3344]
  403600:	aa0003fb 	mov	x27, x0
  403604:	b4000060 	cbz	x0, 403610 <_nl_find_msg+0x3a0>
  403608:	910202e0 	add	x0, x23, #0x80
  40360c:	d503201f 	nop
  403610:	90000280 	adrp	x0, 453000 <_nl_locale_subfreeres+0x1a8>
  403614:	f9468400 	ldr	x0, [x0, #3336]
  403618:	b4000060 	cbz	x0, 403624 <_nl_find_msg+0x3b4>
  40361c:	910202e0 	add	x0, x23, #0x80
  403620:	d503201f 	nop
  403624:	a94772e1 	ldp	x1, x28, [x23, #112]
  403628:	8b1c0780 	add	x0, x28, x28, lsl #1
  40362c:	aa0103f5 	mov	x21, x1
  403630:	d37df014 	lsl	x20, x0, #3
  403634:	d1006282 	sub	x2, x20, #0x18
  403638:	8b020022 	add	x2, x1, x2
  40363c:	d503201f 	nop
  403640:	b4000c1c 	cbz	x28, 4037c0 <_nl_find_msg+0x550>
  403644:	aa0203fa 	mov	x26, x2
  403648:	aa1903e1 	mov	x1, x25
  40364c:	f85e8440 	ldr	x0, [x2], #-24
  403650:	f9003fa2 	str	x2, [x29, #120]
  403654:	f9004ba2 	str	x2, [x29, #144]
  403658:	d100079c 	sub	x28, x28, #0x1
  40365c:	94004bd9 	bl	4165c0 <strcmp>
  403660:	f9404ba2 	ldr	x2, [x29, #144]
  403664:	35fffee0 	cbnz	w0, 403640 <_nl_find_msg+0x3d0>
  403668:	b5fff89b 	cbnz	x27, 403578 <_nl_find_msg+0x308>
  40366c:	17ffffc5 	b	403580 <_nl_find_msg+0x310>
  403670:	90000280 	adrp	x0, 453000 <_nl_locale_subfreeres+0x1a8>
  403674:	91324000 	add	x0, x0, #0xc90
  403678:	9400110e 	bl	407ab0 <getenv>
  40367c:	aa0003fa 	mov	x26, x0
  403680:	b4000060 	cbz	x0, 40368c <_nl_find_msg+0x41c>
  403684:	39400001 	ldrb	w1, [x0]
  403688:	350000c1 	cbnz	w1, 4036a0 <_nl_find_msg+0x430>
  40368c:	f9400f99 	ldr	x25, [x28, #24]
  403690:	52800020 	mov	w0, #0x1                   	// #1
  403694:	b9001380 	str	w0, [x28, #16]
  403698:	b5fff479 	cbnz	x25, 403524 <_nl_find_msg+0x2b4>
  40369c:	17ffffcc 	b	4035cc <_nl_find_msg+0x35c>
  4036a0:	97fff318 	bl	400300 <.plt+0x60>
  4036a4:	9100041b 	add	x27, x0, #0x1
  4036a8:	aa1b03e0 	mov	x0, x27
  4036ac:	94004535 	bl	414b80 <__libc_malloc>
  4036b0:	aa0003f9 	mov	x25, x0
  4036b4:	b4000080 	cbz	x0, 4036c4 <_nl_find_msg+0x454>
  4036b8:	aa1b03e2 	mov	x2, x27
  4036bc:	aa1a03e1 	mov	x1, x26
  4036c0:	97fff2fc 	bl	4002b0 <.plt+0x10>
  4036c4:	f9000f99 	str	x25, [x28, #24]
  4036c8:	17fffff2 	b	403690 <_nl_find_msg+0x420>
  4036cc:	b000045c 	adrp	x28, 48c000 <_dl_main_map+0xa0>
  4036d0:	9138439c 	add	x28, x28, #0xe10
  4036d4:	91008380 	add	x0, x28, #0x20
  4036d8:	52800021 	mov	w1, #0x1                   	// #1
  4036dc:	885ffc02 	ldaxr	w2, [x0]
  4036e0:	35000062 	cbnz	w2, 4036ec <_nl_find_msg+0x47c>
  4036e4:	88037c01 	stxr	w3, w1, [x0]
  4036e8:	35ffffa3 	cbnz	w3, 4036dc <_nl_find_msg+0x46c>
  4036ec:	7100005f 	cmp	w2, #0x0
  4036f0:	540024a1 	b.ne	403b84 <_nl_find_msg+0x914>  // b.any
  4036f4:	a9428780 	ldp	x0, x1, [x28, #40]
  4036f8:	52800017 	mov	w23, #0x0                   	// #0
  4036fc:	d281fe14 	mov	x20, #0xff0                 	// #4080
  403700:	91002000 	add	x0, x0, #0x8
  403704:	a90a03b8 	stp	x24, x0, [x29, #160]
  403708:	f1001c3f 	cmp	x1, #0x7
  40370c:	54000209 	b.ls	40374c <_nl_find_msg+0x4dc>  // b.plast
  403710:	d1002024 	sub	x4, x1, #0x8
  403714:	9102c3a5 	add	x5, x29, #0xb0
  403718:	a9498ba1 	ldp	x1, x2, [x29, #152]
  40371c:	9102a3a3 	add	x3, x29, #0xa8
  403720:	f9400740 	ldr	x0, [x26, #8]
  403724:	f94057a7 	ldr	x7, [x29, #168]
  403728:	8b010042 	add	x2, x2, x1
  40372c:	910283a1 	add	x1, x29, #0xa0
  403730:	8b0400e4 	add	x4, x7, x4
  403734:	940069fb 	bl	41df20 <__gconv>
  403738:	721d781f 	tst	w0, #0xfffffffb
  40373c:	54001e60 	b.eq	403b08 <_nl_find_msg+0x898>  // b.none
  403740:	7100141f 	cmp	w0, #0x5
  403744:	54001d21 	b.ne	403ae8 <_nl_find_msg+0x878>  // b.any
  403748:	f90053b8 	str	x24, [x29, #160]
  40374c:	34000277 	cbz	w23, 403798 <_nl_find_msg+0x528>
  403750:	110006f7 	add	w23, w23, #0x1
  403754:	f9400799 	ldr	x25, [x28, #8]
  403758:	53185ee1 	lsl	w1, w23, #8
  40375c:	4b170021 	sub	w1, w1, w23
  403760:	aa1903e0 	mov	x0, x25
  403764:	531c6c21 	lsl	w1, w1, #4
  403768:	93407c33 	sxtw	x19, w1
  40376c:	f9001b93 	str	x19, [x28, #48]
  403770:	aa1303e1 	mov	x1, x19
  403774:	94004707 	bl	415390 <__libc_realloc>
  403778:	b4001480 	cbz	x0, 403a08 <_nl_find_msg+0x798>
  40377c:	d1002261 	sub	x1, x19, #0x8
  403780:	f9000780 	str	x0, [x28, #8]
  403784:	91002002 	add	x2, x0, #0x8
  403788:	91004000 	add	x0, x0, #0x10
  40378c:	a9028782 	stp	x2, x1, [x28, #40]
  403790:	f90057a0 	str	x0, [x29, #168]
  403794:	17ffffdd 	b	403708 <_nl_find_msg+0x498>
  403798:	d281fe00 	mov	x0, #0xff0                 	// #4080
  40379c:	f9001b94 	str	x20, [x28, #48]
  4037a0:	940044f8 	bl	414b80 <__libc_malloc>
  4037a4:	b40013a0 	cbz	x0, 403a18 <_nl_find_msg+0x7a8>
  4037a8:	f9400782 	ldr	x2, [x28, #8]
  4037ac:	d281fd01 	mov	x1, #0xfe8                 	// #4072
  4037b0:	52800037 	mov	w23, #0x1                   	// #1
  4037b4:	f9000002 	str	x2, [x0]
  4037b8:	f9000780 	str	x0, [x28, #8]
  4037bc:	17fffff2 	b	403784 <_nl_find_msg+0x514>
  4037c0:	91006281 	add	x1, x20, #0x18
  4037c4:	aa1503e0 	mov	x0, x21
  4037c8:	b40017f5 	cbz	x21, 403ac4 <_nl_find_msg+0x854>
  4037cc:	940046f1 	bl	415390 <__libc_realloc>
  4037d0:	aa0003e1 	mov	x1, x0
  4037d4:	b4001801 	cbz	x1, 403ad4 <_nl_find_msg+0x864>
  4037d8:	f9003ae1 	str	x1, [x23, #112]
  4037dc:	aa1903e0 	mov	x0, x25
  4037e0:	f9004ba1 	str	x1, [x29, #144]
  4037e4:	94004c71 	bl	4169a8 <__strdup>
  4037e8:	aa0003f9 	mov	x25, x0
  4037ec:	b4001740 	cbz	x0, 403ad4 <_nl_find_msg+0x864>
  4037f0:	a94887a0 	ldp	x0, x1, [x29, #136]
  4037f4:	92800003 	mov	x3, #0xffffffffffffffff    	// #-1
  4037f8:	9102c3a4 	add	x4, x29, #0xb0
  4037fc:	d0000302 	adrp	x2, 465000 <translit_from_idx+0xdc0>
  403800:	913dc042 	add	x2, x2, #0xf70
  403804:	8b14003a 	add	x26, x1, x20
  403808:	f8346839 	str	x25, [x1, x20]
  40380c:	f94037a1 	ldr	x1, [x29, #104]
  403810:	f9000743 	str	x3, [x26, #8]
  403814:	52800003 	mov	w3, #0x0                   	// #0
  403818:	97fffe96 	bl	403270 <_nl_find_msg>
  40381c:	aa0003e1 	mov	x1, x0
  403820:	b100041f 	cmn	x0, #0x1
  403824:	54001d80 	b.eq	403bd4 <_nl_find_msg+0x964>  // b.none
  403828:	b4000e40 	cbz	x0, 4039f0 <_nl_find_msg+0x780>
  40382c:	90000281 	adrp	x1, 453000 <_nl_locale_subfreeres+0x1a8>
  403830:	91328021 	add	x1, x1, #0xca0
  403834:	94004e1d 	bl	4170a8 <strstr>
  403838:	b4000dc0 	cbz	x0, 4039f0 <_nl_find_msg+0x780>
  40383c:	91002015 	add	x21, x0, #0x8
  403840:	90000281 	adrp	x1, 453000 <_nl_locale_subfreeres+0x1a8>
  403844:	aa1503e0 	mov	x0, x21
  403848:	9132c021 	add	x1, x1, #0xcb0
  40384c:	94004bff 	bl	416848 <strcspn>
  403850:	aa0003e2 	mov	x2, x0
  403854:	91004000 	add	x0, x0, #0x10
  403858:	9270bc01 	and	x1, x0, #0xffffffffffff0000
  40385c:	927cec00 	and	x0, x0, #0xfffffffffffffff0
  403860:	cb2163e1 	sub	x1, sp, x1
  403864:	eb2163ff 	cmp	sp, x1
  403868:	540000a0 	b.eq	40387c <_nl_find_msg+0x60c>  // b.none
  40386c:	d14043ff 	sub	sp, sp, #0x10, lsl #12
  403870:	eb2163ff 	cmp	sp, x1
  403874:	f90203ff 	str	xzr, [sp, #1024]
  403878:	54ffffa1 	b.ne	40386c <_nl_find_msg+0x5fc>  // b.any
  40387c:	92403c00 	and	x0, x0, #0xffff
  403880:	cb2063ff 	sub	sp, sp, x0
  403884:	f110001f 	cmp	x0, #0x400
  403888:	f90003ff 	str	xzr, [sp]
  40388c:	54000043 	b.cc	403894 <_nl_find_msg+0x624>  // b.lo, b.ul, b.last
  403890:	f90203ff 	str	xzr, [sp, #1024]
  403894:	910043f4 	add	x20, sp, #0x10
  403898:	aa1503e1 	mov	x1, x21
  40389c:	aa1403e0 	mov	x0, x20
  4038a0:	94004f7e 	bl	417698 <__mempcpy>
  4038a4:	39400322 	ldrb	w2, [x25]
  4038a8:	3900001f 	strb	wzr, [x0]
  4038ac:	34001a62 	cbz	w2, 403bf8 <_nl_find_msg+0x988>
  4038b0:	aa1903e0 	mov	x0, x25
  4038b4:	2a0203e1 	mov	w1, w2
  4038b8:	d2800003 	mov	x3, #0x0                   	// #0
  4038bc:	7100bc3f 	cmp	w1, #0x2f
  4038c0:	38401c01 	ldrb	w1, [x0, #1]!
  4038c4:	9a831463 	cinc	x3, x3, eq  // eq = none
  4038c8:	35ffffa1 	cbnz	w1, 4038bc <_nl_find_msg+0x64c>
  4038cc:	cb190000 	sub	x0, x0, x25
  4038d0:	91006800 	add	x0, x0, #0x1a
  4038d4:	9270bc01 	and	x1, x0, #0xffffffffffff0000
  4038d8:	927cec00 	and	x0, x0, #0xfffffffffffffff0
  4038dc:	cb2163e1 	sub	x1, sp, x1
  4038e0:	eb2163ff 	cmp	sp, x1
  4038e4:	540000a0 	b.eq	4038f8 <_nl_find_msg+0x688>  // b.none
  4038e8:	d14043ff 	sub	sp, sp, #0x10, lsl #12
  4038ec:	eb2163ff 	cmp	sp, x1
  4038f0:	f90203ff 	str	xzr, [sp, #1024]
  4038f4:	54ffffa1 	b.ne	4038e8 <_nl_find_msg+0x678>  // b.any
  4038f8:	92403c00 	and	x0, x0, #0xffff
  4038fc:	cb2063ff 	sub	sp, sp, x0
  403900:	f110001f 	cmp	x0, #0x400
  403904:	f90003ff 	str	xzr, [sp]
  403908:	54000043 	b.cc	403910 <_nl_find_msg+0x6a0>  // b.lo, b.ul, b.last
  40390c:	f90203ff 	str	xzr, [sp, #1024]
  403910:	d0000308 	adrp	x8, 465000 <translit_from_idx+0xdc0>
  403914:	910043e0 	add	x0, sp, #0x10
  403918:	aa0003e1 	mov	x1, x0
  40391c:	aa1903e4 	mov	x4, x25
  403920:	f9466109 	ldr	x9, [x8, #3264]
  403924:	2a0203e8 	mov	w8, w2
  403928:	38401c82 	ldrb	w2, [x4, #1]!
  40392c:	aa0103ea 	mov	x10, x1
  403930:	b8687928 	ldr	w8, [x9, x8, lsl #2]
  403934:	38001428 	strb	w8, [x1], #1
  403938:	35ffff62 	cbnz	w2, 403924 <_nl_find_msg+0x6b4>
  40393c:	f100047f 	cmp	x3, #0x1
  403940:	54001309 	b.ls	403ba0 <_nl_find_msg+0x930>  // b.plast
  403944:	39400283 	ldrb	w3, [x20]
  403948:	3900003f 	strb	wzr, [x1]
  40394c:	34001743 	cbz	w3, 403c34 <_nl_find_msg+0x9c4>
  403950:	aa1403e1 	mov	x1, x20
  403954:	2a0303e2 	mov	w2, w3
  403958:	7100bc5f 	cmp	w2, #0x2f
  40395c:	38401c22 	ldrb	w2, [x1, #1]!
  403960:	9a9c179c 	cinc	x28, x28, eq  // eq = none
  403964:	35ffffa2 	cbnz	w2, 403958 <_nl_find_msg+0x6e8>
  403968:	cb140021 	sub	x1, x1, x20
  40396c:	91004821 	add	x1, x1, #0x12
  403970:	9270bc22 	and	x2, x1, #0xffffffffffff0000
  403974:	927cec21 	and	x1, x1, #0xfffffffffffffff0
  403978:	cb2263e2 	sub	x2, sp, x2
  40397c:	eb2263ff 	cmp	sp, x2
  403980:	540000a0 	b.eq	403994 <_nl_find_msg+0x724>  // b.none
  403984:	d14043ff 	sub	sp, sp, #0x10, lsl #12
  403988:	eb2263ff 	cmp	sp, x2
  40398c:	f90203ff 	str	xzr, [sp, #1024]
  403990:	54ffffa1 	b.ne	403984 <_nl_find_msg+0x714>  // b.any
  403994:	92403c21 	and	x1, x1, #0xffff
  403998:	cb2163ff 	sub	sp, sp, x1
  40399c:	f110003f 	cmp	x1, #0x400
  4039a0:	f90003ff 	str	xzr, [sp]
  4039a4:	54000043 	b.cc	4039ac <_nl_find_msg+0x73c>  // b.lo, b.ul, b.last
  4039a8:	f90203ff 	str	xzr, [sp, #1024]
  4039ac:	d0000304 	adrp	x4, 465000 <translit_from_idx+0xdc0>
  4039b0:	910043e1 	add	x1, sp, #0x10
  4039b4:	aa0103e2 	mov	x2, x1
  4039b8:	f9466088 	ldr	x8, [x4, #3264]
  4039bc:	2a0303e4 	mov	w4, w3
  4039c0:	38401e83 	ldrb	w3, [x20, #1]!
  4039c4:	aa0203e9 	mov	x9, x2
  4039c8:	b8647904 	ldr	w4, [x8, x4, lsl #2]
  4039cc:	38001444 	strb	w4, [x2], #1
  4039d0:	35ffff63 	cbnz	w3, 4039bc <_nl_find_msg+0x74c>
  4039d4:	f100079f 	cmp	x28, #0x1
  4039d8:	54000da9 	b.ls	403b8c <_nl_find_msg+0x91c>  // b.plast
  4039dc:	3900005f 	strb	wzr, [x2]
  4039e0:	52800023 	mov	w3, #0x1                   	// #1
  4039e4:	91002342 	add	x2, x26, #0x8
  4039e8:	940067e4 	bl	41d978 <__gconv_open>
  4039ec:	35000e40 	cbnz	w0, 403bb4 <_nl_find_msg+0x944>
  4039f0:	f9403ee0 	ldr	x0, [x23, #120]
  4039f4:	f9000b5f 	str	xzr, [x26, #16]
  4039f8:	91000400 	add	x0, x0, #0x1
  4039fc:	f9003ee0 	str	x0, [x23, #120]
  403a00:	b5ffdbdb 	cbnz	x27, 403578 <_nl_find_msg+0x308>
  403a04:	17fffedf 	b	403580 <_nl_find_msg+0x310>
  403a08:	f9400321 	ldr	x1, [x25]
  403a0c:	aa1903e0 	mov	x0, x25
  403a10:	f9000781 	str	x1, [x28, #8]
  403a14:	940045d3 	bl	415160 <__free>
  403a18:	91008380 	add	x0, x28, #0x20
  403a1c:	a902ff9f 	stp	xzr, xzr, [x28, #40]
  403a20:	885f7c01 	ldxr	w1, [x0]
  403a24:	8802fc1f 	stlxr	w2, wzr, [x0]
  403a28:	35ffffc2 	cbnz	w2, 403a20 <_nl_find_msg+0x7b0>
  403a2c:	7100043f 	cmp	w1, #0x1
  403a30:	92800018 	mov	x24, #0xffffffffffffffff    	// #-1
  403a34:	54ffd22d 	b.le	403478 <_nl_find_msg+0x208>
  403a38:	d2801021 	mov	x1, #0x81                  	// #129
  403a3c:	d2800022 	mov	x2, #0x1                   	// #1
  403a40:	d2800003 	mov	x3, #0x0                   	// #0
  403a44:	d2800c48 	mov	x8, #0x62                  	// #98
  403a48:	d4000001 	svc	#0x0
  403a4c:	17fffe8b 	b	403478 <_nl_find_msg+0x208>
  403a50:	92800018 	mov	x24, #0xffffffffffffffff    	// #-1
  403a54:	17fffe89 	b	403478 <_nl_find_msg+0x208>
  403a58:	b000045c 	adrp	x28, 48c000 <_dl_main_map+0xa0>
  403a5c:	9138439c 	add	x28, x28, #0xe10
  403a60:	91008380 	add	x0, x28, #0x20
  403a64:	52800021 	mov	w1, #0x1                   	// #1
  403a68:	885ffc02 	ldaxr	w2, [x0]
  403a6c:	35000062 	cbnz	w2, 403a78 <_nl_find_msg+0x808>
  403a70:	88037c01 	stxr	w3, w1, [x0]
  403a74:	35ffffa3 	cbnz	w3, 403a68 <_nl_find_msg+0x7f8>
  403a78:	7100005f 	cmp	w2, #0x0
  403a7c:	54000b01 	b.ne	403bdc <_nl_find_msg+0x96c>  // b.any
  403a80:	f9400b40 	ldr	x0, [x26, #16]
  403a84:	b40006e0 	cbz	x0, 403b60 <_nl_find_msg+0x8f0>
  403a88:	91008380 	add	x0, x28, #0x20
  403a8c:	885f7c01 	ldxr	w1, [x0]
  403a90:	8802fc1f 	stlxr	w2, wzr, [x0]
  403a94:	35ffffc2 	cbnz	w2, 403a8c <_nl_find_msg+0x81c>
  403a98:	7100043f 	cmp	w1, #0x1
  403a9c:	5400006c 	b.gt	403aa8 <_nl_find_msg+0x838>
  403aa0:	f9400b40 	ldr	x0, [x26, #16]
  403aa4:	17fffebc 	b	403594 <_nl_find_msg+0x324>
  403aa8:	d2801021 	mov	x1, #0x81                  	// #129
  403aac:	d2800022 	mov	x2, #0x1                   	// #1
  403ab0:	d2800003 	mov	x3, #0x0                   	// #0
  403ab4:	d2800c48 	mov	x8, #0x62                  	// #98
  403ab8:	d4000001 	svc	#0x0
  403abc:	f9400b40 	ldr	x0, [x26, #16]
  403ac0:	17fffeb5 	b	403594 <_nl_find_msg+0x324>
  403ac4:	aa0103e0 	mov	x0, x1
  403ac8:	9400442e 	bl	414b80 <__libc_malloc>
  403acc:	aa0003e1 	mov	x1, x0
  403ad0:	17ffff41 	b	4037d4 <_nl_find_msg+0x564>
  403ad4:	b4fffbfb 	cbz	x27, 403a50 <_nl_find_msg+0x7e0>
  403ad8:	910202e0 	add	x0, x23, #0x80
  403adc:	92800018 	mov	x24, #0xffffffffffffffff    	// #-1
  403ae0:	d503201f 	nop
  403ae4:	17fffe65 	b	403478 <_nl_find_msg+0x208>
  403ae8:	91008380 	add	x0, x28, #0x20
  403aec:	885f7c01 	ldxr	w1, [x0]
  403af0:	8802fc1f 	stlxr	w2, wzr, [x0]
  403af4:	35ffffc2 	cbnz	w2, 403aec <_nl_find_msg+0x87c>
  403af8:	7100043f 	cmp	w1, #0x1
  403afc:	d2800018 	mov	x24, #0x0                   	// #0
  403b00:	54ffcbcd 	b.le	403478 <_nl_find_msg+0x208>
  403b04:	17ffffcd 	b	403a38 <_nl_find_msg+0x7c8>
  403b08:	a9428784 	ldp	x4, x1, [x28, #40]
  403b0c:	91008380 	add	x0, x28, #0x20
  403b10:	f94057a2 	ldr	x2, [x29, #168]
  403b14:	d37df2c5 	lsl	x5, x22, #3
  403b18:	f9400b47 	ldr	x7, [x26, #16]
  403b1c:	cb040043 	sub	x3, x2, x4
  403b20:	cb030021 	sub	x1, x1, x3
  403b24:	d1002063 	sub	x3, x3, #0x8
  403b28:	92400828 	and	x8, x1, #0x7
  403b2c:	f9000083 	str	x3, [x4]
  403b30:	8b080042 	add	x2, x2, x8
  403b34:	927df021 	and	x1, x1, #0xfffffffffffffff8
  403b38:	f83678e4 	str	x4, [x7, x22, lsl #3]
  403b3c:	a9028782 	stp	x2, x1, [x28, #40]
  403b40:	885f7c01 	ldxr	w1, [x0]
  403b44:	8802fc1f 	stlxr	w2, wzr, [x0]
  403b48:	35ffffc2 	cbnz	w2, 403b40 <_nl_find_msg+0x8d0>
  403b4c:	7100043f 	cmp	w1, #0x1
  403b50:	5400082c 	b.gt	403c54 <_nl_find_msg+0x9e4>
  403b54:	f9400b40 	ldr	x0, [x26, #16]
  403b58:	f8656800 	ldr	x0, [x0, x5]
  403b5c:	17fffe92 	b	4035a4 <_nl_find_msg+0x334>
  403b60:	b94042e0 	ldr	w0, [x23, #64]
  403b64:	d2800101 	mov	x1, #0x8                   	// #8
  403b68:	0b000260 	add	w0, w19, w0
  403b6c:	94004729 	bl	415810 <__calloc>
  403b70:	f9000b40 	str	x0, [x26, #16]
  403b74:	b5ffdc00 	cbnz	x0, 4036f4 <_nl_find_msg+0x484>
  403b78:	92800000 	mov	x0, #0xffffffffffffffff    	// #-1
  403b7c:	f9000b40 	str	x0, [x26, #16]
  403b80:	17ffffc2 	b	403a88 <_nl_find_msg+0x818>
  403b84:	94003297 	bl	4105e0 <__lll_lock_wait_private>
  403b88:	17fffedb 	b	4036f4 <_nl_find_msg+0x484>
  403b8c:	528005e3 	mov	w3, #0x2f                  	// #47
  403b90:	39000043 	strb	w3, [x2]
  403b94:	b400029c 	cbz	x28, 403be4 <_nl_find_msg+0x974>
  403b98:	91000922 	add	x2, x9, #0x2
  403b9c:	17ffff90 	b	4039dc <_nl_find_msg+0x76c>
  403ba0:	528005e2 	mov	w2, #0x2f                  	// #47
  403ba4:	39000022 	strb	w2, [x1]
  403ba8:	b4000343 	cbz	x3, 403c10 <_nl_find_msg+0x9a0>
  403bac:	91000941 	add	x1, x10, #0x2
  403bb0:	17ffff65 	b	403944 <_nl_find_msg+0x6d4>
  403bb4:	3100041f 	cmn	w0, #0x1
  403bb8:	540005a0 	b.eq	403c6c <_nl_find_msg+0x9fc>  // b.none
  403bbc:	b400007b 	cbz	x27, 403bc8 <_nl_find_msg+0x958>
  403bc0:	910202e0 	add	x0, x23, #0x80
  403bc4:	d503201f 	nop
  403bc8:	aa1903e0 	mov	x0, x25
  403bcc:	94004565 	bl	415160 <__free>
  403bd0:	d2800001 	mov	x1, #0x0                   	// #0
  403bd4:	aa0103f8 	mov	x24, x1
  403bd8:	17fffe28 	b	403478 <_nl_find_msg+0x208>
  403bdc:	94003281 	bl	4105e0 <__lll_lock_wait_private>
  403be0:	17ffffa8 	b	403a80 <_nl_find_msg+0x810>
  403be4:	aa0203e3 	mov	x3, x2
  403be8:	528005e4 	mov	w4, #0x2f                  	// #47
  403bec:	91000862 	add	x2, x3, #0x2
  403bf0:	39000464 	strb	w4, [x3, #1]
  403bf4:	17ffff7a 	b	4039dc <_nl_find_msg+0x76c>
  403bf8:	d10043ff 	sub	sp, sp, #0x10
  403bfc:	f90007ff 	str	xzr, [sp, #8]
  403c00:	910043e1 	add	x1, sp, #0x10
  403c04:	528005e2 	mov	w2, #0x2f                  	// #47
  403c08:	aa0103e0 	mov	x0, x1
  403c0c:	39000022 	strb	w2, [x1]
  403c10:	d28a4a82 	mov	x2, #0x5254                	// #21076
  403c14:	528005e3 	mov	w3, #0x2f                  	// #47
  403c18:	f2a9c822 	movk	x2, #0x4e41, lsl #16
  403c1c:	91002821 	add	x1, x1, #0xa
  403c20:	f2c98a62 	movk	x2, #0x4c53, lsl #32
  403c24:	381f7023 	sturb	w3, [x1, #-9]
  403c28:	f2ea8922 	movk	x2, #0x5449, lsl #48
  403c2c:	f81f8022 	stur	x2, [x1, #-8]
  403c30:	17ffff45 	b	403944 <_nl_find_msg+0x6d4>
  403c34:	d10043ff 	sub	sp, sp, #0x10
  403c38:	f90007ff 	str	xzr, [sp, #8]
  403c3c:	910043e1 	add	x1, sp, #0x10
  403c40:	528005e2 	mov	w2, #0x2f                  	// #47
  403c44:	aa0103e3 	mov	x3, x1
  403c48:	39000022 	strb	w2, [x1]
  403c4c:	17ffffe7 	b	403be8 <_nl_find_msg+0x978>
  403c50:	9400617c 	bl	41c240 <__stack_chk_fail>
  403c54:	d2801021 	mov	x1, #0x81                  	// #129
  403c58:	d2800022 	mov	x2, #0x1                   	// #1
  403c5c:	d2800003 	mov	x3, #0x0                   	// #0
  403c60:	d2800c48 	mov	x8, #0x62                  	// #98
  403c64:	d4000001 	svc	#0x0
  403c68:	17ffffbb 	b	403b54 <_nl_find_msg+0x8e4>
  403c6c:	92800000 	mov	x0, #0xffffffffffffffff    	// #-1
  403c70:	f9000740 	str	x0, [x26, #8]
  403c74:	17ffff5f 	b	4039f0 <_nl_find_msg+0x780>

0000000000403c78 <__dcigettext>:
  403c78:	a9ac7bfd 	stp	x29, x30, [sp, #-320]!
  403c7c:	910003fd 	mov	x29, sp
  403c80:	a90363f7 	stp	x23, x24, [sp, #48]
  403c84:	f0000437 	adrp	x23, 48a000 <__FRAME_END__+0xfbac>
  403c88:	912682e6 	add	x6, x23, #0x9a0
  403c8c:	f94000c7 	ldr	x7, [x6]
  403c90:	f9009fa7 	str	x7, [x29, #312]
  403c94:	d2800007 	mov	x7, #0x0                   	// #0
  403c98:	a90153f3 	stp	x19, x20, [sp, #16]
  403c9c:	a9025bf5 	stp	x21, x22, [sp, #32]
  403ca0:	a9046bf9 	stp	x25, x26, [sp, #64]
  403ca4:	a90573fb 	stp	x27, x28, [sp, #80]
  403ca8:	d10043ff 	sub	sp, sp, #0x10
  403cac:	a90b13a2 	stp	x2, x4, [x29, #176]
  403cb0:	b900cfa3 	str	w3, [x29, #204]
  403cb4:	f9006ba6 	str	x6, [x29, #208]
  403cb8:	f90077bf 	str	xzr, [x29, #232]
  403cbc:	b4002a41 	cbz	x1, 404204 <__dcigettext+0x58c>
  403cc0:	710030bf 	cmp	w5, #0xc
  403cc4:	aa0103f5 	mov	x21, x1
  403cc8:	2a0503f6 	mov	w22, w5
  403ccc:	7a4698a4 	ccmp	w5, #0x6, #0x4, ls  // ls = plast
  403cd0:	540024a0 	b.eq	404164 <__dcigettext+0x4ec>  // b.none
  403cd4:	f0000421 	adrp	x1, 48a000 <__FRAME_END__+0xfbac>
  403cd8:	f947c421 	ldr	x1, [x1, #3976]
  403cdc:	d53bd042 	mrs	x2, tpidr_el0
  403ce0:	aa0003f4 	mov	x20, x0
  403ce4:	90000280 	adrp	x0, 453000 <_nl_locale_subfreeres+0x1a8>
  403ce8:	a90987a2 	stp	x2, x1, [x29, #152]
  403cec:	b0000459 	adrp	x25, 48c000 <_dl_main_map+0xa0>
  403cf0:	f9468013 	ldr	x19, [x0, #3328]
  403cf4:	b8616840 	ldr	w0, [x2, x1]
  403cf8:	b900cba0 	str	w0, [x29, #200]
  403cfc:	b4001bb3 	cbz	x19, 404070 <__dcigettext+0x3f8>
  403d00:	d0000440 	adrp	x0, 48d000 <initial+0x90>
  403d04:	9112c000 	add	x0, x0, #0x4b0
  403d08:	d503201f 	nop
  403d0c:	b4001b33 	cbz	x19, 404070 <__dcigettext+0x3f8>
  403d10:	91384320 	add	x0, x25, #0xe10
  403d14:	f90063a0 	str	x0, [x29, #192]
  403d18:	9100e000 	add	x0, x0, #0x38
  403d1c:	d503201f 	nop
  403d20:	90000441 	adrp	x1, 48b000 <_GLOBAL_OFFSET_TABLE_+0xc8>
  403d24:	f100029f 	cmp	x20, #0x0
  403d28:	2a1603e0 	mov	w0, w22
  403d2c:	b90103b6 	str	w22, [x29, #256]
  403d30:	f9403821 	ldr	x1, [x1, #112]
  403d34:	f9008fbf 	str	xzr, [x29, #280]
  403d38:	f9009bb5 	str	x21, [x29, #304]
  403d3c:	9a940034 	csel	x20, x1, x20, eq  // eq = none
  403d40:	f9007fb4 	str	x20, [x29, #248]
  403d44:	94009211 	bl	428588 <__current_locale_name>
  403d48:	f90047a0 	str	x0, [x29, #136]
  403d4c:	f90087a0 	str	x0, [x29, #264]
  403d50:	b4000093 	cbz	x19, 403d60 <__dcigettext+0xe8>
  403d54:	f94063a0 	ldr	x0, [x29, #192]
  403d58:	9101c000 	add	x0, x0, #0x70
  403d5c:	d503201f 	nop
  403d60:	f94063b3 	ldr	x19, [x29, #192]
  403d64:	90000000 	adrp	x0, 403000 <plural_eval+0xb8>
  403d68:	9105c000 	add	x0, x0, #0x170
  403d6c:	f90043a0 	str	x0, [x29, #128]
  403d70:	aa0003e2 	mov	x2, x0
  403d74:	aa1303e1 	mov	x1, x19
  403d78:	9103e3a0 	add	x0, x29, #0xf8
  403d7c:	94005d87 	bl	41b398 <__tfind>
  403d80:	90000281 	adrp	x1, 453000 <_nl_locale_subfreeres+0x1a8>
  403d84:	f90057a0 	str	x0, [x29, #168]
  403d88:	f9468820 	ldr	x0, [x1, #3344]
  403d8c:	f9006fa0 	str	x0, [x29, #216]
  403d90:	b4000060 	cbz	x0, 403d9c <__dcigettext+0x124>
  403d94:	9101c260 	add	x0, x19, #0x70
  403d98:	d503201f 	nop
  403d9c:	f94057a0 	ldr	x0, [x29, #168]
  403da0:	b40000e0 	cbz	x0, 403dbc <__dcigettext+0x144>
  403da4:	f9400000 	ldr	x0, [x0]
  403da8:	d0000441 	adrp	x1, 48d000 <initial+0x90>
  403dac:	b94dd821 	ldr	w1, [x1, #3544]
  403db0:	b9401802 	ldr	w2, [x0, #24]
  403db4:	6b01005f 	cmp	w2, w1
  403db8:	54002000 	b.eq	4041b8 <__dcigettext+0x540>  // b.none
  403dbc:	d0000440 	adrp	x0, 48d000 <initial+0x90>
  403dc0:	f946e813 	ldr	x19, [x0, #3536]
  403dc4:	b50000b3 	cbnz	x19, 403dd8 <__dcigettext+0x160>
  403dc8:	140000f5 	b	40419c <__dcigettext+0x524>
  403dcc:	54001eeb 	b.lt	4041a8 <__dcigettext+0x530>  // b.tstop
  403dd0:	f9400273 	ldr	x19, [x19]
  403dd4:	b4001e53 	cbz	x19, 40419c <__dcigettext+0x524>
  403dd8:	91006261 	add	x1, x19, #0x18
  403ddc:	aa1403e0 	mov	x0, x20
  403de0:	940049f8 	bl	4165c0 <strcmp>
  403de4:	7100001f 	cmp	w0, #0x0
  403de8:	35ffff20 	cbnz	w0, 403dcc <__dcigettext+0x154>
  403dec:	f9400678 	ldr	x24, [x19, #8]
  403df0:	39400300 	ldrb	w0, [x24]
  403df4:	7100bc1f 	cmp	w0, #0x2f
  403df8:	54000240 	b.eq	403e40 <__dcigettext+0x1c8>  // b.none
  403dfc:	d2800001 	mov	x1, #0x0                   	// #0
  403e00:	d2800000 	mov	x0, #0x0                   	// #0
  403e04:	9400592f 	bl	41a2c0 <__getcwd>
  403e08:	aa0003fa 	mov	x26, x0
  403e0c:	b4001660 	cbz	x0, 4040d8 <__dcigettext+0x460>
  403e10:	aa1803e3 	mov	x3, x24
  403e14:	aa0003e2 	mov	x2, x0
  403e18:	90000281 	adrp	x1, 453000 <_nl_locale_subfreeres+0x1a8>
  403e1c:	9132e021 	add	x1, x1, #0xcb8
  403e20:	9103a3a0 	add	x0, x29, #0xe8
  403e24:	9400122d 	bl	4086d8 <___asprintf>
  403e28:	2a0003f8 	mov	w24, w0
  403e2c:	aa1a03e0 	mov	x0, x26
  403e30:	940044cc 	bl	415160 <__free>
  403e34:	37f81538 	tbnz	w24, #31, 4040d8 <__dcigettext+0x460>
  403e38:	f94077b8 	ldr	x24, [x29, #232]
  403e3c:	d503201f 	nop
  403e40:	900002a2 	adrp	x2, 457000 <__PRETTY_FUNCTION__.12362+0x18>
  403e44:	910c4042 	add	x2, x2, #0x310
  403e48:	900002bb 	adrp	x27, 457000 <__PRETTY_FUNCTION__.12362+0x18>
  403e4c:	910a0361 	add	x1, x27, #0x280
  403e50:	2a1603e0 	mov	w0, w22
  403e54:	3876c85b 	ldrb	w27, [x2, w22, sxtw]
  403e58:	8b01037b 	add	x27, x27, x1
  403e5c:	940091cb 	bl	428588 <__current_locale_name>
  403e60:	aa0003f7 	mov	x23, x0
  403e64:	39400000 	ldrb	w0, [x0]
  403e68:	71010c1f 	cmp	w0, #0x43
  403e6c:	54001881 	b.ne	40417c <__dcigettext+0x504>  // b.any
  403e70:	394006e0 	ldrb	w0, [x23, #1]
  403e74:	35001840 	cbnz	w0, 40417c <__dcigettext+0x504>
  403e78:	aa1403e0 	mov	x0, x20
  403e7c:	97fff121 	bl	400300 <.plt+0x60>
  403e80:	aa0003e1 	mov	x1, x0
  403e84:	aa1b03e0 	mov	x0, x27
  403e88:	aa0103f9 	mov	x25, x1
  403e8c:	f9003fa1 	str	x1, [x29, #120]
  403e90:	97fff11c 	bl	400300 <.plt+0x60>
  403e94:	8b190000 	add	x0, x0, x25
  403e98:	91005000 	add	x0, x0, #0x14
  403e9c:	9100eb22 	add	x2, x25, #0x3a
  403ea0:	9270bc01 	and	x1, x0, #0xffffffffffff0000
  403ea4:	f9003ba2 	str	x2, [x29, #112]
  403ea8:	cb2163e1 	sub	x1, sp, x1
  403eac:	927cec00 	and	x0, x0, #0xfffffffffffffff0
  403eb0:	eb2163ff 	cmp	sp, x1
  403eb4:	540000a0 	b.eq	403ec8 <__dcigettext+0x250>  // b.none
  403eb8:	d14043ff 	sub	sp, sp, #0x10, lsl #12
  403ebc:	eb2163ff 	cmp	sp, x1
  403ec0:	f90203ff 	str	xzr, [sp, #1024]
  403ec4:	54ffffa1 	b.ne	403eb8 <__dcigettext+0x240>  // b.any
  403ec8:	92403c00 	and	x0, x0, #0xffff
  403ecc:	cb2063ff 	sub	sp, sp, x0
  403ed0:	f110001f 	cmp	x0, #0x400
  403ed4:	f90003ff 	str	xzr, [sp]
  403ed8:	54000043 	b.cc	403ee0 <__dcigettext+0x268>  // b.lo, b.ul, b.last
  403edc:	f90203ff 	str	xzr, [sp, #1024]
  403ee0:	910043fa 	add	x26, sp, #0x10
  403ee4:	aa1b03e1 	mov	x1, x27
  403ee8:	aa1a03e0 	mov	x0, x26
  403eec:	94004df5 	bl	4176c0 <__stpcpy>
  403ef0:	f9403fa2 	ldr	x2, [x29, #120]
  403ef4:	528005e3 	mov	w3, #0x2f                  	// #47
  403ef8:	78001403 	strh	w3, [x0], #1
  403efc:	aa1403e1 	mov	x1, x20
  403f00:	94004de6 	bl	417698 <__mempcpy>
  403f04:	aa0003e1 	mov	x1, x0
  403f08:	528da5c2 	mov	w2, #0x6d2e                	// #27950
  403f0c:	aa1703e0 	mov	x0, x23
  403f10:	72a00de2 	movk	w2, #0x6f, lsl #16
  403f14:	b9000022 	str	w2, [x1]
  403f18:	97fff0fa 	bl	400300 <.plt+0x60>
  403f1c:	91004000 	add	x0, x0, #0x10
  403f20:	9270bc01 	and	x1, x0, #0xffffffffffff0000
  403f24:	927cec00 	and	x0, x0, #0xfffffffffffffff0
  403f28:	cb2163e1 	sub	x1, sp, x1
  403f2c:	eb2163ff 	cmp	sp, x1
  403f30:	540000a0 	b.eq	403f44 <__dcigettext+0x2cc>  // b.none
  403f34:	d14043ff 	sub	sp, sp, #0x10, lsl #12
  403f38:	eb2163ff 	cmp	sp, x1
  403f3c:	f90203ff 	str	xzr, [sp, #1024]
  403f40:	54ffffa1 	b.ne	403f34 <__dcigettext+0x2bc>  // b.any
  403f44:	92403c00 	and	x0, x0, #0xffff
  403f48:	cb2063ff 	sub	sp, sp, x0
  403f4c:	f110001f 	cmp	x0, #0x400
  403f50:	f90003ff 	str	xzr, [sp]
  403f54:	54000043 	b.cc	403f5c <__dcigettext+0x2e4>  // b.lo, b.ul, b.last
  403f58:	f90203ff 	str	xzr, [sp, #1024]
  403f5c:	9000029b 	adrp	x27, 453000 <_nl_locale_subfreeres+0x1a8>
  403f60:	910043f9 	add	x25, sp, #0x10
  403f64:	9133437b 	add	x27, x27, #0xcd0
  403f68:	f0000420 	adrp	x0, 48a000 <__FRAME_END__+0xfbac>
  403f6c:	913bc000 	add	x0, x0, #0xef0
  403f70:	f9004ba0 	str	x0, [x29, #144]
  403f74:	d503201f 	nop
  403f78:	394002e0 	ldrb	w0, [x23]
  403f7c:	7100e81f 	cmp	w0, #0x3a
  403f80:	54001460 	b.eq	40420c <__dcigettext+0x594>  // b.none
  403f84:	35001480 	cbnz	w0, 404214 <__dcigettext+0x59c>
  403f88:	52800860 	mov	w0, #0x43                  	// #67
  403f8c:	79000320 	strh	w0, [x25]
  403f90:	39400320 	ldrb	w0, [x25]
  403f94:	71010c1f 	cmp	w0, #0x43
  403f98:	54000061 	b.ne	403fa4 <__dcigettext+0x32c>  // b.any
  403f9c:	39400720 	ldrb	w0, [x25, #1]
  403fa0:	340009c0 	cbz	w0, 4040d8 <__dcigettext+0x460>
  403fa4:	aa1b03e1 	mov	x1, x27
  403fa8:	aa1903e0 	mov	x0, x25
  403fac:	94004985 	bl	4165c0 <strcmp>
  403fb0:	34000940 	cbz	w0, 4040d8 <__dcigettext+0x460>
  403fb4:	aa1303e3 	mov	x3, x19
  403fb8:	aa1a03e2 	mov	x2, x26
  403fbc:	aa1903e1 	mov	x1, x25
  403fc0:	aa1803e0 	mov	x0, x24
  403fc4:	940000ff 	bl	4043c0 <_nl_find_domain>
  403fc8:	aa0003fc 	mov	x28, x0
  403fcc:	b4fffd60 	cbz	x0, 403f78 <__dcigettext+0x300>
  403fd0:	9103c3a4 	add	x4, x29, #0xf0
  403fd4:	aa1503e2 	mov	x2, x21
  403fd8:	aa1303e1 	mov	x1, x19
  403fdc:	52800023 	mov	w3, #0x1                   	// #1
  403fe0:	97fffca4 	bl	403270 <_nl_find_msg>
  403fe4:	aa0003e4 	mov	x4, x0
  403fe8:	b40004a0 	cbz	x0, 40407c <__dcigettext+0x404>
  403fec:	b100041f 	cmn	x0, #0x1
  403ff0:	54000740 	b.eq	4040d8 <__dcigettext+0x460>  // b.none
  403ff4:	f94077a0 	ldr	x0, [x29, #232]
  403ff8:	f9005ba4 	str	x4, [x29, #176]
  403ffc:	94004459 	bl	415160 <__free>
  404000:	a94a93a0 	ldp	x0, x4, [x29, #168]
  404004:	b4001560 	cbz	x0, 4042b0 <__dcigettext+0x638>
  404008:	f94057a0 	ldr	x0, [x29, #168]
  40400c:	b0000442 	adrp	x2, 48d000 <initial+0x90>
  404010:	f9407ba1 	ldr	x1, [x29, #240]
  404014:	f9400000 	ldr	x0, [x0]
  404018:	b94dd842 	ldr	w2, [x2, #3544]
  40401c:	b9001802 	str	w2, [x0, #24]
  404020:	a902101c 	stp	x28, x4, [x0, #32]
  404024:	f9001801 	str	x1, [x0, #48]
  404028:	a94987a0 	ldp	x0, x1, [x29, #152]
  40402c:	b940cba2 	ldr	w2, [x29, #200]
  404030:	b8216802 	str	w2, [x0, x1]
  404034:	b940cfa0 	ldr	w0, [x29, #204]
  404038:	350012e0 	cbnz	w0, 404294 <__dcigettext+0x61c>
  40403c:	f9406fb3 	ldr	x19, [x29, #216]
  404040:	b4000753 	cbz	x19, 404128 <__dcigettext+0x4b0>
  404044:	f94063a0 	ldr	x0, [x29, #192]
  404048:	f9006fa4 	str	x4, [x29, #216]
  40404c:	9100e000 	add	x0, x0, #0x38
  404050:	d503201f 	nop
  404054:	f9406fa4 	ldr	x4, [x29, #216]
  404058:	b4000693 	cbz	x19, 404128 <__dcigettext+0x4b0>
  40405c:	b0000440 	adrp	x0, 48d000 <initial+0x90>
  404060:	9112c000 	add	x0, x0, #0x4b0
  404064:	d503201f 	nop
  404068:	f9406fa4 	ldr	x4, [x29, #216]
  40406c:	1400002f 	b	404128 <__dcigettext+0x4b0>
  404070:	91384320 	add	x0, x25, #0xe10
  404074:	f90063a0 	str	x0, [x29, #192]
  404078:	17ffff2a 	b	403d20 <__dcigettext+0xa8>
  40407c:	f9401380 	ldr	x0, [x28, #32]
  404080:	b4fff7c0 	cbz	x0, 403f78 <__dcigettext+0x300>
  404084:	91008381 	add	x1, x28, #0x20
  404088:	d2800006 	mov	x6, #0x0                   	// #0
  40408c:	a9065fb8 	stp	x24, x23, [x29, #96]
  404090:	aa1503f8 	mov	x24, x21
  404094:	aa0603f7 	mov	x23, x6
  404098:	aa1303f5 	mov	x21, x19
  40409c:	aa0103f3 	mov	x19, x1
  4040a0:	14000005 	b	4040b4 <__dcigettext+0x43c>
  4040a4:	b5000d60 	cbnz	x0, 404250 <__dcigettext+0x5d8>
  4040a8:	910006f7 	add	x23, x23, #0x1
  4040ac:	f8777a60 	ldr	x0, [x19, x23, lsl #3]
  4040b0:	b4000da0 	cbz	x0, 404264 <__dcigettext+0x5ec>
  4040b4:	aa1503e1 	mov	x1, x21
  4040b8:	9103c3a4 	add	x4, x29, #0xf0
  4040bc:	aa1803e2 	mov	x2, x24
  4040c0:	52800023 	mov	w3, #0x1                   	// #1
  4040c4:	97fffc6b 	bl	403270 <_nl_find_msg>
  4040c8:	b100041f 	cmn	x0, #0x1
  4040cc:	2a1703e1 	mov	w1, w23
  4040d0:	54fffea1 	b.ne	4040a4 <__dcigettext+0x42c>  // b.any
  4040d4:	aa1803f5 	mov	x21, x24
  4040d8:	f94077a0 	ldr	x0, [x29, #232]
  4040dc:	94004421 	bl	415160 <__free>
  4040e0:	f9406fb3 	ldr	x19, [x29, #216]
  4040e4:	b4000113 	cbz	x19, 404104 <__dcigettext+0x48c>
  4040e8:	f94063a0 	ldr	x0, [x29, #192]
  4040ec:	9100e000 	add	x0, x0, #0x38
  4040f0:	d503201f 	nop
  4040f4:	b4000093 	cbz	x19, 404104 <__dcigettext+0x48c>
  4040f8:	b0000440 	adrp	x0, 48d000 <initial+0x90>
  4040fc:	9112c000 	add	x0, x0, #0x4b0
  404100:	d503201f 	nop
  404104:	a94987a0 	ldp	x0, x1, [x29, #152]
  404108:	b940cba2 	ldr	w2, [x29, #200]
  40410c:	b8216802 	str	w2, [x0, x1]
  404110:	b940cfa0 	ldr	w0, [x29, #204]
  404114:	7100001f 	cmp	w0, #0x0
  404118:	f9405fa0 	ldr	x0, [x29, #184]
  40411c:	fa411804 	ccmp	x0, #0x1, #0x4, ne  // ne = any
  404120:	540002a1 	b.ne	404174 <__dcigettext+0x4fc>  // b.any
  404124:	aa1503e4 	mov	x4, x21
  404128:	f9406ba0 	ldr	x0, [x29, #208]
  40412c:	f9409fa1 	ldr	x1, [x29, #312]
  404130:	f9400002 	ldr	x2, [x0]
  404134:	eb020021 	subs	x1, x1, x2
  404138:	d2800002 	mov	x2, #0x0                   	// #0
  40413c:	540013e1 	b.ne	4043b8 <__dcigettext+0x740>  // b.any
  404140:	910003bf 	mov	sp, x29
  404144:	aa0403e0 	mov	x0, x4
  404148:	a94153f3 	ldp	x19, x20, [sp, #16]
  40414c:	a9425bf5 	ldp	x21, x22, [sp, #32]
  404150:	a94363f7 	ldp	x23, x24, [sp, #48]
  404154:	a9446bf9 	ldp	x25, x26, [sp, #64]
  404158:	a94573fb 	ldp	x27, x28, [sp, #80]
  40415c:	a8d47bfd 	ldp	x29, x30, [sp], #320
  404160:	d65f03c0 	ret
  404164:	2a0303e0 	mov	w0, w3
  404168:	7100001f 	cmp	w0, #0x0
  40416c:	fa411884 	ccmp	x4, #0x1, #0x4, ne  // ne = any
  404170:	54fffda0 	b.eq	404124 <__dcigettext+0x4ac>  // b.none
  404174:	f9405ba4 	ldr	x4, [x29, #176]
  404178:	17ffffec 	b	404128 <__dcigettext+0x4b0>
  40417c:	f0000260 	adrp	x0, 453000 <_nl_locale_subfreeres+0x1a8>
  404180:	91330000 	add	x0, x0, #0xcc0
  404184:	94000e4b 	bl	407ab0 <getenv>
  404188:	b4ffe780 	cbz	x0, 403e78 <__dcigettext+0x200>
  40418c:	39400001 	ldrb	w1, [x0]
  404190:	7100003f 	cmp	w1, #0x0
  404194:	9a8002f7 	csel	x23, x23, x0, eq  // eq = none
  404198:	17ffff38 	b	403e78 <__dcigettext+0x200>
  40419c:	f0000278 	adrp	x24, 453000 <_nl_locale_subfreeres+0x1a8>
  4041a0:	91336318 	add	x24, x24, #0xcd8
  4041a4:	17ffff27 	b	403e40 <__dcigettext+0x1c8>
  4041a8:	f0000278 	adrp	x24, 453000 <_nl_locale_subfreeres+0x1a8>
  4041ac:	d2800013 	mov	x19, #0x0                   	// #0
  4041b0:	91336318 	add	x24, x24, #0xcd8
  4041b4:	17ffff23 	b	403e40 <__dcigettext+0x1c8>
  4041b8:	b940cfa1 	ldr	w1, [x29, #204]
  4041bc:	f9401404 	ldr	x4, [x0, #40]
  4041c0:	350005a1 	cbnz	w1, 404274 <__dcigettext+0x5fc>
  4041c4:	f9406fb3 	ldr	x19, [x29, #216]
  4041c8:	b4000173 	cbz	x19, 4041f4 <__dcigettext+0x57c>
  4041cc:	f94063a0 	ldr	x0, [x29, #192]
  4041d0:	f9006fa4 	str	x4, [x29, #216]
  4041d4:	9100e000 	add	x0, x0, #0x38
  4041d8:	d503201f 	nop
  4041dc:	f9406fa4 	ldr	x4, [x29, #216]
  4041e0:	b40000b3 	cbz	x19, 4041f4 <__dcigettext+0x57c>
  4041e4:	b0000440 	adrp	x0, 48d000 <initial+0x90>
  4041e8:	9112c000 	add	x0, x0, #0x4b0
  4041ec:	d503201f 	nop
  4041f0:	f9406fa4 	ldr	x4, [x29, #216]
  4041f4:	a94987a0 	ldp	x0, x1, [x29, #152]
  4041f8:	b940cba2 	ldr	w2, [x29, #200]
  4041fc:	b8216802 	str	w2, [x0, x1]
  404200:	17ffffca 	b	404128 <__dcigettext+0x4b0>
  404204:	d2800004 	mov	x4, #0x0                   	// #0
  404208:	17ffffc8 	b	404128 <__dcigettext+0x4b0>
  40420c:	910006f7 	add	x23, x23, #0x1
  404210:	17ffff5a 	b	403f78 <__dcigettext+0x300>
  404214:	aa1903e1 	mov	x1, x25
  404218:	38001420 	strb	w0, [x1], #1
  40421c:	38401ee0 	ldrb	w0, [x23, #1]!
  404220:	7100e81f 	cmp	w0, #0x3a
  404224:	7a401804 	ccmp	w0, #0x0, #0x4, ne  // ne = any
  404228:	54ffff81 	b.ne	404218 <__dcigettext+0x5a0>  // b.any
  40422c:	f9404ba0 	ldr	x0, [x29, #144]
  404230:	3900003f 	strb	wzr, [x1]
  404234:	b9400000 	ldr	w0, [x0]
  404238:	34ffeac0 	cbz	w0, 403f90 <__dcigettext+0x318>
  40423c:	aa1903e0 	mov	x0, x25
  404240:	528005e1 	mov	w1, #0x2f                  	// #47
  404244:	940048a7 	bl	4164e0 <strchr>
  404248:	b5ffe980 	cbnz	x0, 403f78 <__dcigettext+0x300>
  40424c:	17ffff51 	b	403f90 <__dcigettext+0x318>
  404250:	8b21cf81 	add	x1, x28, w1, sxtw #3
  404254:	aa0003e4 	mov	x4, x0
  404258:	aa1803f5 	mov	x21, x24
  40425c:	f940103c 	ldr	x28, [x1, #32]
  404260:	17ffff65 	b	403ff4 <__dcigettext+0x37c>
  404264:	aa1503f3 	mov	x19, x21
  404268:	aa1803f5 	mov	x21, x24
  40426c:	a9465fb8 	ldp	x24, x23, [x29, #96]
  404270:	17ffff42 	b	403f78 <__dcigettext+0x300>
  404274:	f9401005 	ldr	x5, [x0, #32]
  404278:	aa0403e2 	mov	x2, x4
  40427c:	f9401803 	ldr	x3, [x0, #48]
  404280:	f94008a0 	ldr	x0, [x5, #16]
  404284:	f9405fa1 	ldr	x1, [x29, #184]
  404288:	97fffbda 	bl	4031f0 <plural_lookup.isra.0>
  40428c:	aa0003e4 	mov	x4, x0
  404290:	17ffffcd 	b	4041c4 <__dcigettext+0x54c>
  404294:	f9400b80 	ldr	x0, [x28, #16]
  404298:	aa0403e2 	mov	x2, x4
  40429c:	f9405fa1 	ldr	x1, [x29, #184]
  4042a0:	f9407ba3 	ldr	x3, [x29, #240]
  4042a4:	97fffbd3 	bl	4031f0 <plural_lookup.isra.0>
  4042a8:	aa0003e4 	mov	x4, x0
  4042ac:	17ffff64 	b	40403c <__dcigettext+0x3c4>
  4042b0:	aa1503e0 	mov	x0, x21
  4042b4:	97fff013 	bl	400300 <.plt+0x60>
  4042b8:	f94047b7 	ldr	x23, [x29, #136]
  4042bc:	91000413 	add	x19, x0, #0x1
  4042c0:	aa1703e0 	mov	x0, x23
  4042c4:	97fff00f 	bl	400300 <.plt+0x60>
  4042c8:	f9403ba1 	ldr	x1, [x29, #112]
  4042cc:	8b130000 	add	x0, x0, x19
  4042d0:	8b010000 	add	x0, x0, x1
  4042d4:	9400422b 	bl	414b80 <__libc_malloc>
  4042d8:	aa0003f8 	mov	x24, x0
  4042dc:	f9405ba4 	ldr	x4, [x29, #176]
  4042e0:	b4ffea40 	cbz	x0, 404028 <__dcigettext+0x3b0>
  4042e4:	f9403fa0 	ldr	x0, [x29, #120]
  4042e8:	aa1303e2 	mov	x2, x19
  4042ec:	aa1503e1 	mov	x1, x21
  4042f0:	91000413 	add	x19, x0, #0x1
  4042f4:	9100e300 	add	x0, x24, #0x38
  4042f8:	94004ce8 	bl	417698 <__mempcpy>
  4042fc:	aa0003f5 	mov	x21, x0
  404300:	aa1303e2 	mov	x2, x19
  404304:	aa1403e1 	mov	x1, x20
  404308:	8b130013 	add	x19, x0, x19
  40430c:	97ffefe9 	bl	4002b0 <.plt+0x10>
  404310:	aa1703e1 	mov	x1, x23
  404314:	aa1303e0 	mov	x0, x19
  404318:	940048ea 	bl	4166c0 <strcpy>
  40431c:	f9000315 	str	x21, [x24]
  404320:	f0000260 	adrp	x0, 453000 <_nl_locale_subfreeres+0x1a8>
  404324:	b0000441 	adrp	x1, 48d000 <initial+0x90>
  404328:	f9405ba4 	ldr	x4, [x29, #176]
  40432c:	b9000b16 	str	w22, [x24, #8]
  404330:	f9468400 	ldr	x0, [x0, #3336]
  404334:	f9000b13 	str	x19, [x24, #16]
  404338:	b94dd822 	ldr	w2, [x1, #3544]
  40433c:	f9407ba1 	ldr	x1, [x29, #240]
  404340:	b9001b02 	str	w2, [x24, #24]
  404344:	a902131c 	stp	x28, x4, [x24, #32]
  404348:	f9001b01 	str	x1, [x24, #48]
  40434c:	b40000a0 	cbz	x0, 404360 <__dcigettext+0x6e8>
  404350:	f94063a0 	ldr	x0, [x29, #192]
  404354:	9101c000 	add	x0, x0, #0x70
  404358:	d503201f 	nop
  40435c:	f9405ba4 	ldr	x4, [x29, #176]
  404360:	aa1803e0 	mov	x0, x24
  404364:	f94043a2 	ldr	x2, [x29, #128]
  404368:	f9005ba4 	str	x4, [x29, #176]
  40436c:	f94063b4 	ldr	x20, [x29, #192]
  404370:	aa1403e1 	mov	x1, x20
  404374:	94005ba5 	bl	41b208 <__tsearch>
  404378:	aa0003f3 	mov	x19, x0
  40437c:	f9406fa0 	ldr	x0, [x29, #216]
  404380:	f9405ba4 	ldr	x4, [x29, #176]
  404384:	b4000080 	cbz	x0, 404394 <__dcigettext+0x71c>
  404388:	9101c280 	add	x0, x20, #0x70
  40438c:	d503201f 	nop
  404390:	f9405ba4 	ldr	x4, [x29, #176]
  404394:	b4000093 	cbz	x19, 4043a4 <__dcigettext+0x72c>
  404398:	f9400260 	ldr	x0, [x19]
  40439c:	eb18001f 	cmp	x0, x24
  4043a0:	54ffe440 	b.eq	404028 <__dcigettext+0x3b0>  // b.none
  4043a4:	aa1803e0 	mov	x0, x24
  4043a8:	f9005ba4 	str	x4, [x29, #176]
  4043ac:	9400436d 	bl	415160 <__free>
  4043b0:	f9405ba4 	ldr	x4, [x29, #176]
  4043b4:	17ffff1d 	b	404028 <__dcigettext+0x3b0>
  4043b8:	94005fa2 	bl	41c240 <__stack_chk_fail>
  4043bc:	d503201f 	nop

00000000004043c0 <_nl_find_domain>:
  4043c0:	d102c3ff 	sub	sp, sp, #0xb0
  4043c4:	f0000264 	adrp	x4, 453000 <_nl_locale_subfreeres+0x1a8>
  4043c8:	a9027bfd 	stp	x29, x30, [sp, #32]
  4043cc:	910083fd 	add	x29, sp, #0x20
  4043d0:	f9468c84 	ldr	x4, [x4, #3352]
  4043d4:	a9045bf5 	stp	x21, x22, [sp, #64]
  4043d8:	d0000435 	adrp	x21, 48a000 <__FRAME_END__+0xfbac>
  4043dc:	912682b5 	add	x21, x21, #0x9a0
  4043e0:	a90353f3 	stp	x19, x20, [sp, #48]
  4043e4:	f94002a5 	ldr	x5, [x21]
  4043e8:	f90057e5 	str	x5, [sp, #168]
  4043ec:	d2800005 	mov	x5, #0x0                   	// #0
  4043f0:	a90563f7 	stp	x23, x24, [sp, #80]
  4043f4:	aa0303f6 	mov	x22, x3
  4043f8:	90000457 	adrp	x23, 48c000 <_dl_main_map+0xa0>
  4043fc:	a9066bf9 	stp	x25, x26, [sp, #96]
  404400:	aa0003f8 	mov	x24, x0
  404404:	aa0103f9 	mov	x25, x1
  404408:	aa0203fa 	mov	x26, x2
  40440c:	913ae2f7 	add	x23, x23, #0xeb8
  404410:	b4000064 	cbz	x4, 40441c <_nl_find_domain+0x5c>
  404414:	aa1703e0 	mov	x0, x23
  404418:	d503201f 	nop
  40441c:	aa1803e0 	mov	x0, x24
  404420:	97ffefb8 	bl	400300 <.plt+0x60>
  404424:	a9006bff 	stp	xzr, x26, [sp]
  404428:	91000402 	add	x2, x0, #0x1
  40442c:	52800003 	mov	w3, #0x0                   	// #0
  404430:	b90013ff 	str	wzr, [sp, #16]
  404434:	aa1903e4 	mov	x4, x25
  404438:	aa1803e1 	mov	x1, x24
  40443c:	9100e2e0 	add	x0, x23, #0x38
  404440:	d2800007 	mov	x7, #0x0                   	// #0
  404444:	d2800006 	mov	x6, #0x0                   	// #0
  404448:	d2800005 	mov	x5, #0x0                   	// #0
  40444c:	940006af 	bl	405f08 <_nl_make_l10nflist>
  404450:	f0000263 	adrp	x3, 453000 <_nl_locale_subfreeres+0x1a8>
  404454:	aa0003f3 	mov	x19, x0
  404458:	f9469074 	ldr	x20, [x3, #3360]
  40445c:	b4000074 	cbz	x20, 404468 <_nl_find_domain+0xa8>
  404460:	aa1703e0 	mov	x0, x23
  404464:	d503201f 	nop
  404468:	b40004d3 	cbz	x19, 404500 <_nl_find_domain+0x140>
  40446c:	b9400a60 	ldr	w0, [x19, #8]
  404470:	7100001f 	cmp	w0, #0x0
  404474:	540003ed 	b.le	4044f0 <_nl_find_domain+0x130>
  404478:	f9400a60 	ldr	x0, [x19, #16]
  40447c:	b40001c0 	cbz	x0, 4044b4 <_nl_find_domain+0xf4>
  404480:	f94057e0 	ldr	x0, [sp, #168]
  404484:	f94002a1 	ldr	x1, [x21]
  404488:	eb010000 	subs	x0, x0, x1
  40448c:	d2800001 	mov	x1, #0x0                   	// #0
  404490:	54000da1 	b.ne	404644 <_nl_find_domain+0x284>  // b.any
  404494:	aa1303e0 	mov	x0, x19
  404498:	a9427bfd 	ldp	x29, x30, [sp, #32]
  40449c:	a94353f3 	ldp	x19, x20, [sp, #48]
  4044a0:	a9445bf5 	ldp	x21, x22, [sp, #64]
  4044a4:	a94563f7 	ldp	x23, x24, [sp, #80]
  4044a8:	a9466bf9 	ldp	x25, x26, [sp, #96]
  4044ac:	9102c3ff 	add	sp, sp, #0xb0
  4044b0:	d65f03c0 	ret
  4044b4:	f9401260 	ldr	x0, [x19, #32]
  4044b8:	b4fffe40 	cbz	x0, 404480 <_nl_find_domain+0xc0>
  4044bc:	91008274 	add	x20, x19, #0x20
  4044c0:	14000006 	b	4044d8 <_nl_find_domain+0x118>
  4044c4:	f9400280 	ldr	x0, [x20]
  4044c8:	f9400800 	ldr	x0, [x0, #16]
  4044cc:	b5fffda0 	cbnz	x0, 404480 <_nl_find_domain+0xc0>
  4044d0:	f8408e80 	ldr	x0, [x20, #8]!
  4044d4:	b4fffd60 	cbz	x0, 404480 <_nl_find_domain+0xc0>
  4044d8:	b9400801 	ldr	w1, [x0, #8]
  4044dc:	7100003f 	cmp	w1, #0x0
  4044e0:	54ffff2c 	b.gt	4044c4 <_nl_find_domain+0x104>
  4044e4:	aa1603e1 	mov	x1, x22
  4044e8:	9400005a 	bl	404650 <_nl_load_domain>
  4044ec:	17fffff6 	b	4044c4 <_nl_find_domain+0x104>
  4044f0:	aa1603e1 	mov	x1, x22
  4044f4:	aa1303e0 	mov	x0, x19
  4044f8:	94000056 	bl	404650 <_nl_load_domain>
  4044fc:	17ffffdf 	b	404478 <_nl_find_domain+0xb8>
  404500:	aa1903e0 	mov	x0, x25
  404504:	a90773fb 	stp	x27, x28, [sp, #112]
  404508:	94000608 	bl	405d28 <_nl_expand_alias>
  40450c:	aa0003fc 	mov	x28, x0
  404510:	b4000140 	cbz	x0, 404538 <_nl_find_domain+0x178>
  404514:	97ffef7b 	bl	400300 <.plt+0x60>
  404518:	9100041b 	add	x27, x0, #0x1
  40451c:	aa1b03e0 	mov	x0, x27
  404520:	94004198 	bl	414b80 <__libc_malloc>
  404524:	aa0003f9 	mov	x25, x0
  404528:	b40005c0 	cbz	x0, 4045e0 <_nl_find_domain+0x220>
  40452c:	aa1b03e2 	mov	x2, x27
  404530:	aa1c03e1 	mov	x1, x28
  404534:	97ffef5f 	bl	4002b0 <.plt+0x10>
  404538:	910283e5 	add	x5, sp, #0xa0
  40453c:	910263e4 	add	x4, sp, #0x98
  404540:	910243e3 	add	x3, sp, #0x90
  404544:	910223e2 	add	x2, sp, #0x88
  404548:	910203e1 	add	x1, sp, #0x80
  40454c:	aa1903e0 	mov	x0, x25
  404550:	9400081a 	bl	4065b8 <_nl_explode_name>
  404554:	2a0003fb 	mov	w27, w0
  404558:	3100041f 	cmn	w0, #0x1
  40455c:	54000420 	b.eq	4045e0 <_nl_find_domain+0x220>  // b.none
  404560:	f0000260 	adrp	x0, 453000 <_nl_locale_subfreeres+0x1a8>
  404564:	f9469400 	ldr	x0, [x0, #3368]
  404568:	b4000060 	cbz	x0, 404574 <_nl_find_domain+0x1b4>
  40456c:	aa1703e0 	mov	x0, x23
  404570:	d503201f 	nop
  404574:	aa1803e0 	mov	x0, x24
  404578:	97ffef62 	bl	400300 <.plt+0x60>
  40457c:	91000402 	add	x2, x0, #0x1
  404580:	52800021 	mov	w1, #0x1                   	// #1
  404584:	a94803e4 	ldp	x4, x0, [sp, #128]
  404588:	a9006be0 	stp	x0, x26, [sp]
  40458c:	2a1b03e3 	mov	w3, w27
  404590:	a9491be5 	ldp	x5, x6, [sp, #144]
  404594:	b90013e1 	str	w1, [sp, #16]
  404598:	f94053e7 	ldr	x7, [sp, #160]
  40459c:	aa1803e1 	mov	x1, x24
  4045a0:	9100e2e0 	add	x0, x23, #0x38
  4045a4:	94000659 	bl	405f08 <_nl_make_l10nflist>
  4045a8:	aa0003f3 	mov	x19, x0
  4045ac:	b4000074 	cbz	x20, 4045b8 <_nl_find_domain+0x1f8>
  4045b0:	aa1703e0 	mov	x0, x23
  4045b4:	d503201f 	nop
  4045b8:	b4000133 	cbz	x19, 4045dc <_nl_find_domain+0x21c>
  4045bc:	b9400a60 	ldr	w0, [x19, #8]
  4045c0:	7100001f 	cmp	w0, #0x0
  4045c4:	5400038d 	b.le	404634 <_nl_find_domain+0x274>
  4045c8:	f9400a60 	ldr	x0, [x19, #16]
  4045cc:	b4000160 	cbz	x0, 4045f8 <_nl_find_domain+0x238>
  4045d0:	b400007c 	cbz	x28, 4045dc <_nl_find_domain+0x21c>
  4045d4:	aa1903e0 	mov	x0, x25
  4045d8:	940042e2 	bl	415160 <__free>
  4045dc:	3700007b 	tbnz	w27, #0, 4045e8 <_nl_find_domain+0x228>
  4045e0:	a94773fb 	ldp	x27, x28, [sp, #112]
  4045e4:	17ffffa7 	b	404480 <_nl_find_domain+0xc0>
  4045e8:	f94053e0 	ldr	x0, [sp, #160]
  4045ec:	940042dd 	bl	415160 <__free>
  4045f0:	a94773fb 	ldp	x27, x28, [sp, #112]
  4045f4:	17ffffa3 	b	404480 <_nl_find_domain+0xc0>
  4045f8:	f9401260 	ldr	x0, [x19, #32]
  4045fc:	b4fffea0 	cbz	x0, 4045d0 <_nl_find_domain+0x210>
  404600:	91008274 	add	x20, x19, #0x20
  404604:	14000006 	b	40461c <_nl_find_domain+0x25c>
  404608:	f9400280 	ldr	x0, [x20]
  40460c:	f9400800 	ldr	x0, [x0, #16]
  404610:	b5fffe00 	cbnz	x0, 4045d0 <_nl_find_domain+0x210>
  404614:	f8408e80 	ldr	x0, [x20, #8]!
  404618:	b4fffdc0 	cbz	x0, 4045d0 <_nl_find_domain+0x210>
  40461c:	b9400801 	ldr	w1, [x0, #8]
  404620:	7100003f 	cmp	w1, #0x0
  404624:	54ffff2c 	b.gt	404608 <_nl_find_domain+0x248>
  404628:	aa1603e1 	mov	x1, x22
  40462c:	94000009 	bl	404650 <_nl_load_domain>
  404630:	17fffff6 	b	404608 <_nl_find_domain+0x248>
  404634:	aa1603e1 	mov	x1, x22
  404638:	aa1303e0 	mov	x0, x19
  40463c:	94000005 	bl	404650 <_nl_load_domain>
  404640:	17ffffe2 	b	4045c8 <_nl_find_domain+0x208>
  404644:	a90773fb 	stp	x27, x28, [sp, #112]
  404648:	94005efe 	bl	41c240 <__stack_chk_fail>
  40464c:	d503201f 	nop

0000000000404650 <_nl_load_domain>:
  404650:	a9a67bfd 	stp	x29, x30, [sp, #-416]!
  404654:	90000446 	adrp	x6, 48c000 <_dl_main_map+0xa0>
  404658:	d0000422 	adrp	x2, 48a000 <__FRAME_END__+0xfbac>
  40465c:	910003fd 	mov	x29, sp
  404660:	a90573fb 	stp	x27, x28, [sp, #80]
  404664:	913be0db 	add	x27, x6, #0xef8
  404668:	a9046bf9 	stp	x25, x26, [sp, #64]
  40466c:	9126805a 	add	x26, x2, #0x9a0
  404670:	f9400342 	ldr	x2, [x26]
  404674:	f900cfe2 	str	x2, [sp, #408]
  404678:	d2800002 	mov	x2, #0x0                   	// #0
  40467c:	f9400762 	ldr	x2, [x27, #8]
  404680:	a90153f3 	stp	x19, x20, [sp, #16]
  404684:	d53bd054 	mrs	x20, tpidr_el0
  404688:	a9025bf5 	stp	x21, x22, [sp, #32]
  40468c:	d11c0293 	sub	x19, x20, #0x700
  404690:	aa0003f6 	mov	x22, x0
  404694:	a90363f7 	stp	x23, x24, [sp, #48]
  404698:	eb13005f 	cmp	x2, x19
  40469c:	aa0103f7 	mov	x23, x1
  4046a0:	54000120 	b.eq	4046c4 <_nl_load_domain+0x74>  // b.none
  4046a4:	52800020 	mov	w0, #0x1                   	// #1
  4046a8:	885fff61 	ldaxr	w1, [x27]
  4046ac:	35000061 	cbnz	w1, 4046b8 <_nl_load_domain+0x68>
  4046b0:	88027f60 	stxr	w2, w0, [x27]
  4046b4:	35ffffa2 	cbnz	w2, 4046a8 <_nl_load_domain+0x58>
  4046b8:	7100003f 	cmp	w1, #0x0
  4046bc:	540012e1 	b.ne	404918 <_nl_load_domain+0x2c8>  // b.any
  4046c0:	f9000773 	str	x19, [x27, #8]
  4046c4:	b9400761 	ldr	w1, [x27, #4]
  4046c8:	b9400ac0 	ldr	w0, [x22, #8]
  4046cc:	11000422 	add	w2, w1, #0x1
  4046d0:	b9000762 	str	w2, [x27, #4]
  4046d4:	35000d60 	cbnz	w0, 404880 <_nl_load_domain+0x230>
  4046d8:	f94002c0 	ldr	x0, [x22]
  4046dc:	12800002 	mov	w2, #0xffffffff            	// #-1
  4046e0:	b9000ac2 	str	w2, [x22, #8]
  4046e4:	f9000adf 	str	xzr, [x22, #16]
  4046e8:	b4000c80 	cbz	x0, 404878 <_nl_load_domain+0x228>
  4046ec:	52800001 	mov	w1, #0x0                   	// #0
  4046f0:	940058dc 	bl	41aa60 <__open64_nocancel>
  4046f4:	2a0003f3 	mov	w19, w0
  4046f8:	3100041f 	cmn	w0, #0x1
  4046fc:	54000ee0 	b.eq	4048d8 <_nl_load_domain+0x288>  // b.none
  404700:	2a0003e1 	mov	w1, w0
  404704:	910463e2 	add	x2, sp, #0x118
  404708:	52800000 	mov	w0, #0x0                   	// #0
  40470c:	94005613 	bl	419f58 <__fxstat>
  404710:	b90067e0 	str	w0, [sp, #100]
  404714:	35000de0 	cbnz	w0, 4048d0 <_nl_load_domain+0x280>
  404718:	f940a7f9 	ldr	x25, [sp, #328]
  40471c:	f100bf3f 	cmp	x25, #0x2f
  404720:	54000d89 	b.ls	4048d0 <_nl_load_domain+0x280>  // b.plast
  404724:	2a1303e4 	mov	w4, w19
  404728:	aa1903e1 	mov	x1, x25
  40472c:	d2800005 	mov	x5, #0x0                   	// #0
  404730:	52800043 	mov	w3, #0x2                   	// #2
  404734:	52800022 	mov	w2, #0x1                   	// #1
  404738:	d2800000 	mov	x0, #0x0                   	// #0
  40473c:	940059a9 	bl	41ade0 <__mmap64>
  404740:	aa0003fc 	mov	x28, x0
  404744:	b100041f 	cmn	x0, #0x1
  404748:	54002da0 	b.eq	404cfc <_nl_load_domain+0x6ac>  // b.none
  40474c:	2a1303e0 	mov	w0, w19
  404750:	9400586c 	bl	41a900 <__close_nocancel>
  404754:	b9400398 	ldr	w24, [x28]
  404758:	52825bc1 	mov	w1, #0x12de                	// #4830
  40475c:	72b2a081 	movk	w1, #0x9504, lsl #16
  404760:	528092a0 	mov	w0, #0x495                 	// #1173
  404764:	6b01031f 	cmp	w24, w1
  404768:	72bbc240 	movk	w0, #0xde12, lsl #16
  40476c:	1a9f07f3 	cset	w19, ne  // ne = any
  404770:	7100027f 	cmp	w19, #0x0
  404774:	7a401304 	ccmp	w24, w0, #0x4, ne  // ne = any
  404778:	54002561 	b.ne	404c24 <_nl_load_domain+0x5d4>  // b.any
  40477c:	52800020 	mov	w0, #0x1                   	// #1
  404780:	b90067e0 	str	w0, [sp, #100]
  404784:	d2801900 	mov	x0, #0xc8                  	// #200
  404788:	940040fe 	bl	414b80 <__libc_malloc>
  40478c:	aa0003f5 	mov	x21, x0
  404790:	b4000a40 	cbz	x0, 4048d8 <_nl_load_domain+0x288>
  404794:	52825bc0 	mov	w0, #0x12de                	// #4830
  404798:	b94067e1 	ldr	w1, [sp, #100]
  40479c:	72b2a080 	movk	w0, #0x9504, lsl #16
  4047a0:	6b00031f 	cmp	w24, w0
  4047a4:	b9400780 	ldr	w0, [x28, #4]
  4047a8:	f90002bc 	str	x28, [x21]
  4047ac:	b9000aa1 	str	w1, [x21, #8]
  4047b0:	f9000ab9 	str	x25, [x21, #16]
  4047b4:	f9000ad5 	str	x21, [x22, #16]
  4047b8:	b9001ab3 	str	w19, [x21, #24]
  4047bc:	f90012bf 	str	xzr, [x21, #32]
  4047c0:	54000ca0 	b.eq	404954 <_nl_load_domain+0x304>  // b.none
  4047c4:	5ac00800 	rev	w0, w0
  4047c8:	13107c01 	asr	w1, w0, #16
  4047cc:	7100043f 	cmp	w1, #0x1
  4047d0:	54000aa8 	b.hi	404924 <_nl_load_domain+0x2d4>  // b.pmore
  4047d4:	29410b84 	ldp	w4, w2, [x28, #8]
  4047d8:	12003c00 	and	w0, w0, #0xffff
  4047dc:	29422781 	ldp	w1, w9, [x28, #16]
  4047e0:	5ac00842 	rev	w2, w2
  4047e4:	8b020382 	add	x2, x28, x2
  4047e8:	5ac00884 	rev	w4, w4
  4047ec:	5ac00821 	rev	w1, w1
  4047f0:	5ac00923 	rev	w3, w9
  4047f4:	8b010381 	add	x1, x28, x1
  4047f8:	b9002aa4 	str	w4, [x21, #40]
  4047fc:	a90306a2 	stp	x2, x1, [x21, #48]
  404800:	7100087f 	cmp	w3, #0x2
  404804:	b9005aa3 	str	w3, [x21, #88]
  404808:	b9006be3 	str	w3, [sp, #104]
  40480c:	54000de8 	b.hi	4049c8 <_nl_load_domain+0x378>  // b.pmore
  404810:	f90032bf 	str	xzr, [x21, #96]
  404814:	b9006ab3 	str	w19, [x21, #104]
  404818:	35000860 	cbnz	w0, 404924 <_nl_load_domain+0x2d4>
  40481c:	b90042bf 	str	wzr, [x21, #64]
  404820:	a904febf 	stp	xzr, xzr, [x21, #72]
  404824:	f0000260 	adrp	x0, 453000 <_nl_locale_subfreeres+0x1a8>
  404828:	a9077ebf 	stp	xzr, xzr, [x21, #112]
  40482c:	f946c400 	ldr	x0, [x0, #3464]
  404830:	b4000080 	cbz	x0, 404840 <_nl_load_domain+0x1f0>
  404834:	910202a0 	add	x0, x21, #0x80
  404838:	d2800001 	mov	x1, #0x0                   	// #0
  40483c:	d503201f 	nop
  404840:	aa1703e1 	mov	x1, x23
  404844:	910403e4 	add	x4, sp, #0x100
  404848:	aa1603e0 	mov	x0, x22
  40484c:	b0000302 	adrp	x2, 465000 <translit_from_idx+0xdc0>
  404850:	52800003 	mov	w3, #0x0                   	// #0
  404854:	913dc042 	add	x2, x2, #0xf70
  404858:	97fffa86 	bl	403270 <_nl_find_msg>
  40485c:	b100041f 	cmn	x0, #0x1
  404860:	54002de0 	b.eq	404e1c <_nl_load_domain+0x7cc>  // b.none
  404864:	9102e2a1 	add	x1, x21, #0xb8
  404868:	910302a2 	add	x2, x21, #0xc0
  40486c:	940009fd 	bl	407060 <__gettext_extract_plural>
  404870:	b9400761 	ldr	w1, [x27, #4]
  404874:	51000421 	sub	w1, w1, #0x1
  404878:	52800020 	mov	w0, #0x1                   	// #1
  40487c:	b9000ac0 	str	w0, [x22, #8]
  404880:	b9000761 	str	w1, [x27, #4]
  404884:	34000301 	cbz	w1, 4048e4 <_nl_load_domain+0x294>
  404888:	f940cfe0 	ldr	x0, [sp, #408]
  40488c:	f9400341 	ldr	x1, [x26]
  404890:	eb010000 	subs	x0, x0, x1
  404894:	d2800001 	mov	x1, #0x0                   	// #0
  404898:	54006141 	b.ne	4054c0 <_nl_load_domain+0xe70>  // b.any
  40489c:	a94153f3 	ldp	x19, x20, [sp, #16]
  4048a0:	a9425bf5 	ldp	x21, x22, [sp, #32]
  4048a4:	a94363f7 	ldp	x23, x24, [sp, #48]
  4048a8:	a9446bf9 	ldp	x25, x26, [sp, #64]
  4048ac:	a94573fb 	ldp	x27, x28, [sp, #80]
  4048b0:	a8da7bfd 	ldp	x29, x30, [sp], #416
  4048b4:	d65f03c0 	ret
  4048b8:	b100041f 	cmn	x0, #0x1
  4048bc:	540000a1 	b.ne	4048d0 <_nl_load_domain+0x280>  // b.any
  4048c0:	f94037e0 	ldr	x0, [sp, #104]
  4048c4:	b8606a80 	ldr	w0, [x20, x0]
  4048c8:	7100101f 	cmp	w0, #0x4
  4048cc:	540022a0 	b.eq	404d20 <_nl_load_domain+0x6d0>  // b.none
  4048d0:	2a1303e0 	mov	w0, w19
  4048d4:	9400580b 	bl	41a900 <__close_nocancel>
  4048d8:	b9400761 	ldr	w1, [x27, #4]
  4048dc:	51000421 	sub	w1, w1, #0x1
  4048e0:	17ffffe6 	b	404878 <_nl_load_domain+0x228>
  4048e4:	f900077f 	str	xzr, [x27, #8]
  4048e8:	885f7f60 	ldxr	w0, [x27]
  4048ec:	8801ff7f 	stlxr	w1, wzr, [x27]
  4048f0:	35ffffc1 	cbnz	w1, 4048e8 <_nl_load_domain+0x298>
  4048f4:	7100041f 	cmp	w0, #0x1
  4048f8:	54fffc8d 	b.le	404888 <_nl_load_domain+0x238>
  4048fc:	aa1b03e0 	mov	x0, x27
  404900:	d2801021 	mov	x1, #0x81                  	// #129
  404904:	d2800022 	mov	x2, #0x1                   	// #1
  404908:	d2800003 	mov	x3, #0x0                   	// #0
  40490c:	d2800c48 	mov	x8, #0x62                  	// #98
  404910:	d4000001 	svc	#0x0
  404914:	17ffffdd 	b	404888 <_nl_load_domain+0x238>
  404918:	aa1b03e0 	mov	x0, x27
  40491c:	94002f31 	bl	4105e0 <__lll_lock_wait_private>
  404920:	17ffff68 	b	4046c0 <_nl_load_domain+0x70>
  404924:	d2800000 	mov	x0, #0x0                   	// #0
  404928:	9400420e 	bl	415160 <__free>
  40492c:	b94067e0 	ldr	w0, [sp, #100]
  404930:	35000440 	cbnz	w0, 4049b8 <_nl_load_domain+0x368>
  404934:	aa1c03e0 	mov	x0, x28
  404938:	9400420a 	bl	415160 <__free>
  40493c:	aa1503e0 	mov	x0, x21
  404940:	94004208 	bl	415160 <__free>
  404944:	b9400761 	ldr	w1, [x27, #4]
  404948:	f9000adf 	str	xzr, [x22, #16]
  40494c:	51000421 	sub	w1, w1, #0x1
  404950:	17ffffca 	b	404878 <_nl_load_domain+0x228>
  404954:	13107c01 	asr	w1, w0, #16
  404958:	7100043f 	cmp	w1, #0x1
  40495c:	54fffe48 	b.hi	404924 <_nl_load_domain+0x2d4>  // b.pmore
  404960:	29420f81 	ldp	w1, w3, [x28, #16]
  404964:	b9006be3 	str	w3, [sp, #104]
  404968:	29410b84 	ldp	w4, w2, [x28, #8]
  40496c:	8b010381 	add	x1, x28, x1
  404970:	b9002aa4 	str	w4, [x21, #40]
  404974:	12003c00 	and	w0, w0, #0xffff
  404978:	8b020382 	add	x2, x28, x2
  40497c:	a90306a2 	stp	x2, x1, [x21, #48]
  404980:	7100087f 	cmp	w3, #0x2
  404984:	b9005aa3 	str	w3, [x21, #88]
  404988:	54fff449 	b.ls	404810 <_nl_load_domain+0x1c0>  // b.plast
  40498c:	b9401b81 	ldr	w1, [x28, #24]
  404990:	b9006ab3 	str	w19, [x21, #104]
  404994:	8b010381 	add	x1, x28, x1
  404998:	f90032a1 	str	x1, [x21, #96]
  40499c:	f90047e1 	str	x1, [sp, #136]
  4049a0:	34fff3e0 	cbz	w0, 40481c <_nl_load_domain+0x1cc>
  4049a4:	b9402794 	ldr	w20, [x28, #36]
  4049a8:	34fff3b4 	cbz	w20, 40481c <_nl_load_domain+0x1cc>
  4049ac:	2943cf80 	ldp	w0, w19, [x28, #28]
  4049b0:	b90073e0 	str	w0, [sp, #112]
  4049b4:	14000013 	b	404a00 <_nl_load_domain+0x3b0>
  4049b8:	aa1903e1 	mov	x1, x25
  4049bc:	aa1c03e0 	mov	x0, x28
  4049c0:	94005920 	bl	41ae40 <__munmap>
  4049c4:	17ffffde 	b	40493c <_nl_load_domain+0x2ec>
  4049c8:	b9401b81 	ldr	w1, [x28, #24]
  4049cc:	b9006ab3 	str	w19, [x21, #104]
  4049d0:	5ac00821 	rev	w1, w1
  4049d4:	8b010381 	add	x1, x28, x1
  4049d8:	f90032a1 	str	x1, [x21, #96]
  4049dc:	f90047e1 	str	x1, [sp, #136]
  4049e0:	34fff1e0 	cbz	w0, 40481c <_nl_load_domain+0x1cc>
  4049e4:	b9402780 	ldr	w0, [x28, #36]
  4049e8:	5ac00814 	rev	w20, w0
  4049ec:	34fff180 	cbz	w0, 40481c <_nl_load_domain+0x1cc>
  4049f0:	2943cf80 	ldp	w0, w19, [x28, #28]
  4049f4:	5ac00a73 	rev	w19, w19
  4049f8:	5ac00800 	rev	w0, w0
  4049fc:	b90073e0 	str	w0, [sp, #112]
  404a00:	b94073e0 	ldr	w0, [sp, #112]
  404a04:	d2800101 	mov	x1, #0x8                   	// #8
  404a08:	8b130393 	add	x19, x28, x19
  404a0c:	94004381 	bl	415810 <__calloc>
  404a10:	f90043e0 	str	x0, [sp, #128]
  404a14:	b4fff880 	cbz	x0, 404924 <_nl_load_domain+0x2d4>
  404a18:	b94073e0 	ldr	w0, [sp, #112]
  404a1c:	340007a0 	cbz	w0, 404b10 <_nl_load_domain+0x4c0>
  404a20:	b94073e0 	ldr	w0, [sp, #112]
  404a24:	f0000261 	adrp	x1, 453000 <_nl_locale_subfreeres+0x1a8>
  404a28:	f94043ed 	ldr	x13, [sp, #128]
  404a2c:	51000409 	sub	w9, w0, #0x1
  404a30:	f0000260 	adrp	x0, 453000 <_nl_locale_subfreeres+0x1a8>
  404a34:	91350000 	add	x0, x0, #0xd40
  404a38:	91000529 	add	x9, x9, #0x1
  404a3c:	f9004be0 	str	x0, [sp, #144]
  404a40:	f0000260 	adrp	x0, 453000 <_nl_locale_subfreeres+0x1a8>
  404a44:	9135a007 	add	x7, x0, #0xd68
  404a48:	f0000260 	adrp	x0, 453000 <_nl_locale_subfreeres+0x1a8>
  404a4c:	9135c028 	add	x8, x1, #0xd70
  404a50:	9134e005 	add	x5, x0, #0xd38
  404a54:	f000026c 	adrp	x12, 453000 <_nl_locale_subfreeres+0x1a8>
  404a58:	f0000260 	adrp	x0, 453000 <_nl_locale_subfreeres+0x1a8>
  404a5c:	f0000270 	adrp	x16, 453000 <_nl_locale_subfreeres+0x1a8>
  404a60:	f000026f 	adrp	x15, 453000 <_nl_locale_subfreeres+0x1a8>
  404a64:	f000026e 	adrp	x14, 453000 <_nl_locale_subfreeres+0x1a8>
  404a68:	f0000321 	adrp	x1, 46b000 <__sys_errlist_internal+0x1f0>
  404a6c:	f000027e 	adrp	x30, 453000 <_nl_locale_subfreeres+0x1a8>
  404a70:	52825bca 	mov	w10, #0x12de                	// #4830
  404a74:	9136018c 	add	x12, x12, #0xd80
  404a78:	91352210 	add	x16, x16, #0xd48
  404a7c:	913581ef 	add	x15, x15, #0xd60
  404a80:	913561ce 	add	x14, x14, #0xd58
  404a84:	9121e026 	add	x6, x1, #0x878
  404a88:	913543de 	add	x30, x30, #0xd50
  404a8c:	9100126b 	add	x11, x19, #0x4
  404a90:	d37df129 	lsl	x9, x9, #3
  404a94:	9134c004 	add	x4, x0, #0xd30
  404a98:	d2800002 	mov	x2, #0x0                   	// #0
  404a9c:	f0000260 	adrp	x0, 453000 <_nl_locale_subfreeres+0x1a8>
  404aa0:	72b2a08a 	movk	w10, #0x9504, lsl #16
  404aa4:	9135e000 	add	x0, x0, #0xd78
  404aa8:	b9007bf4 	str	w20, [sp, #120]
  404aac:	f9004fe0 	str	x0, [sp, #152]
  404ab0:	b8626960 	ldr	w0, [x11, x2]
  404ab4:	6b0a031f 	cmp	w24, w10
  404ab8:	b8626a61 	ldr	w1, [x19, x2]
  404abc:	54000c00 	b.eq	404c3c <_nl_load_domain+0x5ec>  // b.none
  404ac0:	5ac00800 	rev	w0, w0
  404ac4:	5ac00821 	rev	w1, w1
  404ac8:	8b000380 	add	x0, x28, x0
  404acc:	340016c1 	cbz	w1, 404da4 <_nl_load_domain+0x754>
  404ad0:	51000421 	sub	w1, w1, #0x1
  404ad4:	38614801 	ldrb	w1, [x0, w1, uxtw]
  404ad8:	35001661 	cbnz	w1, 404da4 <_nl_load_domain+0x754>
  404adc:	39400001 	ldrb	w1, [x0]
  404ae0:	7101403f 	cmp	w1, #0x50
  404ae4:	54000b00 	b.eq	404c44 <_nl_load_domain+0x5f4>  // b.none
  404ae8:	7101243f 	cmp	w1, #0x49
  404aec:	54001641 	b.ne	404db4 <_nl_load_domain+0x764>  // b.any
  404af0:	39400400 	ldrb	w0, [x0, #1]
  404af4:	7100001f 	cmp	w0, #0x0
  404af8:	9a9f0181 	csel	x1, x12, xzr, eq  // eq = none
  404afc:	f82269a1 	str	x1, [x13, x2]
  404b00:	91002042 	add	x2, x2, #0x8
  404b04:	eb02013f 	cmp	x9, x2
  404b08:	54fffd41 	b.ne	404ab0 <_nl_load_domain+0x460>  // b.any
  404b0c:	b9407bf4 	ldr	w20, [sp, #120]
  404b10:	52825bc0 	mov	w0, #0x12de                	// #4830
  404b14:	72b2a080 	movk	w0, #0x9504, lsl #16
  404b18:	6b00031f 	cmp	w24, w0
  404b1c:	29450780 	ldp	w0, w1, [x28, #40]
  404b20:	540018c0 	b.eq	404e38 <_nl_load_domain+0x7e8>  // b.none
  404b24:	5ac00800 	rev	w0, w0
  404b28:	5ac00821 	rev	w1, w1
  404b2c:	8b000382 	add	x2, x28, x0
  404b30:	f94037e3 	ldr	x3, [sp, #104]
  404b34:	51000680 	sub	w0, w20, #0x1
  404b38:	8b010381 	add	x1, x28, x1
  404b3c:	91000400 	add	x0, x0, #0x1
  404b40:	a90b5ff5 	stp	x21, x23, [sp, #176]
  404b44:	aa0203f7 	mov	x23, x2
  404b48:	d37e7c63 	ubfiz	x3, x3, #2, #32
  404b4c:	f94043f5 	ldr	x21, [sp, #128]
  404b50:	a90a67e3 	stp	x3, x25, [sp, #160]
  404b54:	aa0103f9 	mov	x25, x1
  404b58:	b94073f4 	ldr	w20, [sp, #112]
  404b5c:	8b000840 	add	x0, x2, x0, lsl #2
  404b60:	a90773f6 	stp	x22, x28, [sp, #112]
  404b64:	f9004be0 	str	x0, [sp, #144]
  404b68:	b9009bff 	str	wzr, [sp, #152]
  404b6c:	a90c07e3 	stp	x3, x1, [sp, #192]
  404b70:	f9006be2 	str	x2, [sp, #208]
  404b74:	d503201f 	nop
  404b78:	d2800013 	mov	x19, #0x0                   	// #0
  404b7c:	52825bc0 	mov	w0, #0x12de                	// #4830
  404b80:	72b2a080 	movk	w0, #0x9504, lsl #16
  404b84:	6b00031f 	cmp	w24, w0
  404b88:	54001000 	b.eq	404d88 <_nl_load_domain+0x738>  // b.none
  404b8c:	f100027f 	cmp	x19, #0x0
  404b90:	9a9902e0 	csel	x0, x23, x25, eq  // eq = none
  404b94:	b9400001 	ldr	w1, [x0]
  404b98:	5ac00821 	rev	w1, w1
  404b9c:	f9403fe0 	ldr	x0, [sp, #120]
  404ba0:	d2800016 	mov	x22, #0x0                   	// #0
  404ba4:	8b010001 	add	x1, x0, x1
  404ba8:	b9400820 	ldr	w0, [x1, #8]
  404bac:	3100041f 	cmn	w0, #0x1
  404bb0:	1a9f07e0 	cset	w0, ne  // ne = any
  404bb4:	35001040 	cbnz	w0, 404dbc <_nl_load_domain+0x76c>
  404bb8:	910423e0 	add	x0, sp, #0x108
  404bbc:	f8337816 	str	x22, [x0, x19, lsl #3]
  404bc0:	b4000eb3 	cbz	x19, 404d94 <_nl_load_domain+0x744>
  404bc4:	b9409be1 	ldr	w1, [sp, #152]
  404bc8:	f94087e0 	ldr	x0, [sp, #264]
  404bcc:	11000421 	add	w1, w1, #0x1
  404bd0:	b9009be1 	str	w1, [sp, #152]
  404bd4:	f9408be1 	ldr	x1, [sp, #272]
  404bd8:	8b010000 	add	x0, x0, x1
  404bdc:	f94053e1 	ldr	x1, [sp, #160]
  404be0:	8b000020 	add	x0, x1, x0
  404be4:	f90053e0 	str	x0, [sp, #160]
  404be8:	f9404be0 	ldr	x0, [sp, #144]
  404bec:	910012f7 	add	x23, x23, #0x4
  404bf0:	91001339 	add	x25, x25, #0x4
  404bf4:	eb17001f 	cmp	x0, x23
  404bf8:	54fffc01 	b.ne	404b78 <_nl_load_domain+0x528>  // b.any
  404bfc:	b9409bf3 	ldr	w19, [sp, #152]
  404c00:	a94773f6 	ldp	x22, x28, [sp, #112]
  404c04:	a94ad7f9 	ldp	x25, x21, [sp, #168]
  404c08:	f9405ff7 	ldr	x23, [sp, #184]
  404c0c:	350027b3 	cbnz	w19, 405100 <_nl_load_domain+0xab0>
  404c10:	b90042bf 	str	wzr, [x21, #64]
  404c14:	a904febf 	stp	xzr, xzr, [x21, #72]
  404c18:	f94043e0 	ldr	x0, [sp, #128]
  404c1c:	94004151 	bl	415160 <__free>
  404c20:	17ffff01 	b	404824 <_nl_load_domain+0x1d4>
  404c24:	aa1903e1 	mov	x1, x25
  404c28:	aa1c03e0 	mov	x0, x28
  404c2c:	94005885 	bl	41ae40 <__munmap>
  404c30:	b9400761 	ldr	w1, [x27, #4]
  404c34:	51000421 	sub	w1, w1, #0x1
  404c38:	17ffff10 	b	404878 <_nl_load_domain+0x228>
  404c3c:	8b204380 	add	x0, x28, w0, uxtw
  404c40:	17ffffa3 	b	404acc <_nl_load_domain+0x47c>
  404c44:	39400411 	ldrb	w17, [x0, #1]
  404c48:	d2800001 	mov	x1, #0x0                   	// #0
  404c4c:	71014a3f 	cmp	w17, #0x52
  404c50:	54fff561 	b.ne	404afc <_nl_load_domain+0x4ac>  // b.any
  404c54:	39400811 	ldrb	w17, [x0, #2]
  404c58:	7101263f 	cmp	w17, #0x49
  404c5c:	54fff501 	b.ne	404afc <_nl_load_domain+0x4ac>  // b.any
  404c60:	39400c11 	ldrb	w17, [x0, #3]
  404c64:	7101923f 	cmp	w17, #0x64
  404c68:	121a7a32 	and	w18, w17, #0xffffffdf
  404c6c:	1a9f17f4 	cset	w20, eq  // eq = none
  404c70:	7101a63f 	cmp	w17, #0x69
  404c74:	1a9f1694 	csinc	w20, w20, wzr, ne  // ne = any
  404c78:	7101be3f 	cmp	w17, #0x6f
  404c7c:	1a9f1683 	csinc	w3, w20, wzr, ne  // ne = any
  404c80:	7101d63f 	cmp	w17, #0x75
  404c84:	b900a3e3 	str	w3, [sp, #160]
  404c88:	1a9f1463 	csinc	w3, w3, wzr, ne  // ne = any
  404c8c:	7101625f 	cmp	w18, #0x58
  404c90:	7a401860 	ccmp	w3, #0x0, #0x0, ne  // ne = any
  404c94:	54fff340 	b.eq	404afc <_nl_load_domain+0x4ac>  // b.none
  404c98:	39401012 	ldrb	w18, [x0, #4]
  404c9c:	7100e25f 	cmp	w18, #0x38
  404ca0:	54001c00 	b.eq	405020 <_nl_load_domain+0x9d0>  // b.none
  404ca4:	7100c65f 	cmp	w18, #0x31
  404ca8:	54001da0 	b.eq	40505c <_nl_load_domain+0xa0c>  // b.none
  404cac:	7100ce5f 	cmp	w18, #0x33
  404cb0:	54000ca1 	b.ne	404e44 <_nl_load_domain+0x7f4>  // b.any
  404cb4:	39401412 	ldrb	w18, [x0, #5]
  404cb8:	7100ca5f 	cmp	w18, #0x32
  404cbc:	54fff201 	b.ne	404afc <_nl_load_domain+0x4ac>  // b.any
  404cc0:	39401800 	ldrb	w0, [x0, #6]
  404cc4:	35004000 	cbnz	w0, 4054c4 <_nl_load_domain+0xe74>
  404cc8:	7101923f 	cmp	w17, #0x64
  404ccc:	540041c0 	b.eq	405504 <_nl_load_domain+0xeb4>  // b.none
  404cd0:	35004174 	cbnz	w20, 4054fc <_nl_load_domain+0xeac>
  404cd4:	b940a3e0 	ldr	w0, [sp, #160]
  404cd8:	350044a0 	cbnz	w0, 40556c <_nl_load_domain+0xf1c>
  404cdc:	35004443 	cbnz	w3, 405564 <_nl_load_domain+0xf14>
  404ce0:	7101e23f 	cmp	w17, #0x78
  404ce4:	54004600 	b.eq	4055a4 <_nl_load_domain+0xf54>  // b.none
  404ce8:	7101623f 	cmp	w17, #0x58
  404cec:	54005f61 	b.ne	4058d8 <_nl_load_domain+0x1288>  // b.any
  404cf0:	b0000301 	adrp	x1, 465000 <translit_from_idx+0xdc0>
  404cf4:	913d0021 	add	x1, x1, #0xf40
  404cf8:	17ffff81 	b	404afc <_nl_load_domain+0x4ac>
  404cfc:	aa1903e0 	mov	x0, x25
  404d00:	94003fa0 	bl	414b80 <__libc_malloc>
  404d04:	aa0003fc 	mov	x28, x0
  404d08:	b4ffde40 	cbz	x0, 4048d0 <_nl_load_domain+0x280>
  404d0c:	aa0003f5 	mov	x21, x0
  404d10:	aa1903f8 	mov	x24, x25
  404d14:	d0000420 	adrp	x0, 48a000 <__FRAME_END__+0xfbac>
  404d18:	f947c400 	ldr	x0, [x0, #3976]
  404d1c:	f90037e0 	str	x0, [sp, #104]
  404d20:	aa1803e2 	mov	x2, x24
  404d24:	aa1503e1 	mov	x1, x21
  404d28:	2a1303e0 	mov	w0, w19
  404d2c:	940057ad 	bl	41abe0 <__read_nocancel>
  404d30:	f100001f 	cmp	x0, #0x0
  404d34:	54ffdc2d 	b.le	4048b8 <_nl_load_domain+0x268>
  404d38:	8b0002b5 	add	x21, x21, x0
  404d3c:	eb000318 	subs	x24, x24, x0
  404d40:	54ffff01 	b.ne	404d20 <_nl_load_domain+0x6d0>  // b.any
  404d44:	2a1303e0 	mov	w0, w19
  404d48:	940056ee 	bl	41a900 <__close_nocancel>
  404d4c:	b9400398 	ldr	w24, [x28]
  404d50:	52825bc1 	mov	w1, #0x12de                	// #4830
  404d54:	72b2a081 	movk	w1, #0x9504, lsl #16
  404d58:	528092a0 	mov	w0, #0x495                 	// #1173
  404d5c:	6b01031f 	cmp	w24, w1
  404d60:	72bbc240 	movk	w0, #0xde12, lsl #16
  404d64:	1a9f07f3 	cset	w19, ne  // ne = any
  404d68:	7100027f 	cmp	w19, #0x0
  404d6c:	7a401304 	ccmp	w24, w0, #0x4, ne  // ne = any
  404d70:	54ffd0a0 	b.eq	404784 <_nl_load_domain+0x134>  // b.none
  404d74:	aa1c03e0 	mov	x0, x28
  404d78:	940040fa 	bl	415160 <__free>
  404d7c:	b9400761 	ldr	w1, [x27, #4]
  404d80:	51000421 	sub	w1, w1, #0x1
  404d84:	17fffebd 	b	404878 <_nl_load_domain+0x228>
  404d88:	b4000473 	cbz	x19, 404e14 <_nl_load_domain+0x7c4>
  404d8c:	b9400321 	ldr	w1, [x25]
  404d90:	17ffff83 	b	404b9c <_nl_load_domain+0x54c>
  404d94:	d2800033 	mov	x19, #0x1                   	// #1
  404d98:	17ffff79 	b	404b7c <_nl_load_domain+0x52c>
  404d9c:	a94773f6 	ldp	x22, x28, [sp, #112]
  404da0:	a94ad7f9 	ldp	x25, x21, [sp, #168]
  404da4:	f94043e0 	ldr	x0, [sp, #128]
  404da8:	940040ee 	bl	415160 <__free>
  404dac:	d2800000 	mov	x0, #0x0                   	// #0
  404db0:	17fffede 	b	404928 <_nl_load_domain+0x2d8>
  404db4:	d2800001 	mov	x1, #0x0                   	// #0
  404db8:	17ffff51 	b	404afc <_nl_load_domain+0x4ac>
  404dbc:	9100103c 	add	x28, x1, #0x4
  404dc0:	d2800003 	mov	x3, #0x0                   	// #0
  404dc4:	1400000d 	b	404df8 <_nl_load_domain+0x7a8>
  404dc8:	5ac00800 	rev	w0, w0
  404dcc:	5ac00842 	rev	w2, w2
  404dd0:	8b030016 	add	x22, x0, x3
  404dd4:	3100045f 	cmn	w2, #0x1
  404dd8:	54ffef00 	b.eq	404bb8 <_nl_load_domain+0x568>  // b.none
  404ddc:	6b14005f 	cmp	w2, w20
  404de0:	54fffde2 	b.cs	404d9c <_nl_load_domain+0x74c>  // b.hs, b.nlast
  404de4:	f8625aa0 	ldr	x0, [x21, w2, uxtw #3]
  404de8:	b4fff000 	cbz	x0, 404be8 <_nl_load_domain+0x598>
  404dec:	97ffed45 	bl	400300 <.plt+0x60>
  404df0:	9100239c 	add	x28, x28, #0x8
  404df4:	8b160003 	add	x3, x0, x22
  404df8:	52825bc0 	mov	w0, #0x12de                	// #4830
  404dfc:	72b2a080 	movk	w0, #0x9504, lsl #16
  404e00:	6b00031f 	cmp	w24, w0
  404e04:	29400b80 	ldp	w0, w2, [x28]
  404e08:	54fffe01 	b.ne	404dc8 <_nl_load_domain+0x778>  // b.any
  404e0c:	8b204076 	add	x22, x3, w0, uxtw
  404e10:	17fffff1 	b	404dd4 <_nl_load_domain+0x784>
  404e14:	b94002e1 	ldr	w1, [x23]
  404e18:	17ffff61 	b	404b9c <_nl_load_domain+0x54c>
  404e1c:	f0000260 	adrp	x0, 453000 <_nl_locale_subfreeres+0x1a8>
  404e20:	f946c800 	ldr	x0, [x0, #3472]
  404e24:	b4000060 	cbz	x0, 404e30 <_nl_load_domain+0x7e0>
  404e28:	910202a0 	add	x0, x21, #0x80
  404e2c:	d503201f 	nop
  404e30:	f94012a0 	ldr	x0, [x21, #32]
  404e34:	17fffebd 	b	404928 <_nl_load_domain+0x2d8>
  404e38:	8b204382 	add	x2, x28, w0, uxtw
  404e3c:	2a0103e1 	mov	w1, w1
  404e40:	17ffff3c 	b	404b30 <_nl_load_domain+0x4e0>
  404e44:	7100da5f 	cmp	w18, #0x36
  404e48:	54000261 	b.ne	404e94 <_nl_load_domain+0x844>  // b.any
  404e4c:	39401412 	ldrb	w18, [x0, #5]
  404e50:	d2800001 	mov	x1, #0x0                   	// #0
  404e54:	7100d25f 	cmp	w18, #0x34
  404e58:	54ffe521 	b.ne	404afc <_nl_load_domain+0x4ac>  // b.any
  404e5c:	39401800 	ldrb	w0, [x0, #6]
  404e60:	35ffe4e0 	cbnz	w0, 404afc <_nl_load_domain+0x4ac>
  404e64:	7101923f 	cmp	w17, #0x64
  404e68:	54003560 	b.eq	405514 <_nl_load_domain+0xec4>  // b.none
  404e6c:	35003514 	cbnz	w20, 40550c <_nl_load_domain+0xebc>
  404e70:	b940a3e0 	ldr	w0, [sp, #160]
  404e74:	35003840 	cbnz	w0, 40557c <_nl_load_domain+0xf2c>
  404e78:	350037e3 	cbnz	w3, 405574 <_nl_load_domain+0xf24>
  404e7c:	7101e23f 	cmp	w17, #0x78
  404e80:	54003660 	b.eq	40554c <_nl_load_domain+0xefc>  // b.none
  404e84:	7101623f 	cmp	w17, #0x58
  404e88:	54005281 	b.ne	4058d8 <_nl_load_domain+0x1288>  // b.any
  404e8c:	aa0703e1 	mov	x1, x7
  404e90:	17ffff1b 	b	404afc <_nl_load_domain+0x4ac>
  404e94:	7101325f 	cmp	w18, #0x4c
  404e98:	540004e1 	b.ne	404f34 <_nl_load_domain+0x8e4>  // b.any
  404e9c:	39401412 	ldrb	w18, [x0, #5]
  404ea0:	d2800001 	mov	x1, #0x0                   	// #0
  404ea4:	7101165f 	cmp	w18, #0x45
  404ea8:	54ffe2a1 	b.ne	404afc <_nl_load_domain+0x4ac>  // b.any
  404eac:	39401812 	ldrb	w18, [x0, #6]
  404eb0:	7101065f 	cmp	w18, #0x41
  404eb4:	54ffe241 	b.ne	404afc <_nl_load_domain+0x4ac>  // b.any
  404eb8:	39401c12 	ldrb	w18, [x0, #7]
  404ebc:	71014e5f 	cmp	w18, #0x53
  404ec0:	54ffe1e1 	b.ne	404afc <_nl_load_domain+0x4ac>  // b.any
  404ec4:	39402012 	ldrb	w18, [x0, #8]
  404ec8:	7101525f 	cmp	w18, #0x54
  404ecc:	54ffe181 	b.ne	404afc <_nl_load_domain+0x4ac>  // b.any
  404ed0:	39402412 	ldrb	w18, [x0, #9]
  404ed4:	7100e25f 	cmp	w18, #0x38
  404ed8:	54003c80 	b.eq	405668 <_nl_load_domain+0x1018>  // b.none
  404edc:	7100c65f 	cmp	w18, #0x31
  404ee0:	54003a00 	b.eq	405620 <_nl_load_domain+0xfd0>  // b.none
  404ee4:	7100ce5f 	cmp	w18, #0x33
  404ee8:	540038e1 	b.ne	405604 <_nl_load_domain+0xfb4>  // b.any
  404eec:	39402812 	ldrb	w18, [x0, #10]
  404ef0:	7100ca5f 	cmp	w18, #0x32
  404ef4:	54ffe041 	b.ne	404afc <_nl_load_domain+0x4ac>  // b.any
  404ef8:	39402c00 	ldrb	w0, [x0, #11]
  404efc:	35003800 	cbnz	w0, 4055fc <_nl_load_domain+0xfac>
  404f00:	7101923f 	cmp	w17, #0x64
  404f04:	54003780 	b.eq	4055f4 <_nl_load_domain+0xfa4>  // b.none
  404f08:	35003734 	cbnz	w20, 4055ec <_nl_load_domain+0xf9c>
  404f0c:	b940a3e0 	ldr	w0, [sp, #160]
  404f10:	350036a0 	cbnz	w0, 4055e4 <_nl_load_domain+0xf94>
  404f14:	35003643 	cbnz	w3, 4055dc <_nl_load_domain+0xf8c>
  404f18:	7101e23f 	cmp	w17, #0x78
  404f1c:	540033c0 	b.eq	405594 <_nl_load_domain+0xf44>  // b.none
  404f20:	7101623f 	cmp	w17, #0x58
  404f24:	54004da1 	b.ne	4058d8 <_nl_load_domain+0x1288>  // b.any
  404f28:	b0000301 	adrp	x1, 465000 <translit_from_idx+0xdc0>
  404f2c:	913d0021 	add	x1, x1, #0xf40
  404f30:	17fffef3 	b	404afc <_nl_load_domain+0x4ac>
  404f34:	71011a5f 	cmp	w18, #0x46
  404f38:	54000461 	b.ne	404fc4 <_nl_load_domain+0x974>  // b.any
  404f3c:	39401412 	ldrb	w18, [x0, #5]
  404f40:	d2800001 	mov	x1, #0x0                   	// #0
  404f44:	7101065f 	cmp	w18, #0x41
  404f48:	54ffdda1 	b.ne	404afc <_nl_load_domain+0x4ac>  // b.any
  404f4c:	39401812 	ldrb	w18, [x0, #6]
  404f50:	71014e5f 	cmp	w18, #0x53
  404f54:	54ffdd41 	b.ne	404afc <_nl_load_domain+0x4ac>  // b.any
  404f58:	39401c12 	ldrb	w18, [x0, #7]
  404f5c:	7101525f 	cmp	w18, #0x54
  404f60:	54ffdce1 	b.ne	404afc <_nl_load_domain+0x4ac>  // b.any
  404f64:	39402012 	ldrb	w18, [x0, #8]
  404f68:	7100e25f 	cmp	w18, #0x38
  404f6c:	540043c0 	b.eq	4057e4 <_nl_load_domain+0x1194>  // b.none
  404f70:	7100c65f 	cmp	w18, #0x31
  404f74:	54004160 	b.eq	4057a0 <_nl_load_domain+0x1150>  // b.none
  404f78:	7100ce5f 	cmp	w18, #0x33
  404f7c:	54004041 	b.ne	405784 <_nl_load_domain+0x1134>  // b.any
  404f80:	39402412 	ldrb	w18, [x0, #9]
  404f84:	7100ca5f 	cmp	w18, #0x32
  404f88:	54ffdba1 	b.ne	404afc <_nl_load_domain+0x4ac>  // b.any
  404f8c:	39402800 	ldrb	w0, [x0, #10]
  404f90:	35003f60 	cbnz	w0, 40577c <_nl_load_domain+0x112c>
  404f94:	7101923f 	cmp	w17, #0x64
  404f98:	54003ee0 	b.eq	405774 <_nl_load_domain+0x1124>  // b.none
  404f9c:	35003e94 	cbnz	w20, 40576c <_nl_load_domain+0x111c>
  404fa0:	b940a3e0 	ldr	w0, [sp, #160]
  404fa4:	35003e00 	cbnz	w0, 405764 <_nl_load_domain+0x1114>
  404fa8:	35003da3 	cbnz	w3, 40575c <_nl_load_domain+0x110c>
  404fac:	7101e23f 	cmp	w17, #0x78
  404fb0:	54002f60 	b.eq	40559c <_nl_load_domain+0xf4c>  // b.none
  404fb4:	7101623f 	cmp	w17, #0x58
  404fb8:	54004901 	b.ne	4058d8 <_nl_load_domain+0x1288>  // b.any
  404fbc:	aa0703e1 	mov	x1, x7
  404fc0:	17fffecf 	b	404afc <_nl_load_domain+0x4ac>
  404fc4:	7101365f 	cmp	w18, #0x4d
  404fc8:	540006e1 	b.ne	4050a4 <_nl_load_domain+0xa54>  // b.any
  404fcc:	39401412 	ldrb	w18, [x0, #5]
  404fd0:	d2800001 	mov	x1, #0x0                   	// #0
  404fd4:	7101065f 	cmp	w18, #0x41
  404fd8:	54ffd921 	b.ne	404afc <_nl_load_domain+0x4ac>  // b.any
  404fdc:	39401812 	ldrb	w18, [x0, #6]
  404fe0:	7101625f 	cmp	w18, #0x58
  404fe4:	54ffd8c1 	b.ne	404afc <_nl_load_domain+0x4ac>  // b.any
  404fe8:	39401c00 	ldrb	w0, [x0, #7]
  404fec:	35ffd880 	cbnz	w0, 404afc <_nl_load_domain+0x4ac>
  404ff0:	7101923f 	cmp	w17, #0x64
  404ff4:	54002a80 	b.eq	405544 <_nl_load_domain+0xef4>  // b.none
  404ff8:	35002b34 	cbnz	w20, 40555c <_nl_load_domain+0xf0c>
  404ffc:	b940a3e0 	ldr	w0, [sp, #160]
  405000:	35002aa0 	cbnz	w0, 405554 <_nl_load_domain+0xf04>
  405004:	35002c43 	cbnz	w3, 40558c <_nl_load_domain+0xf3c>
  405008:	7101e23f 	cmp	w17, #0x78
  40500c:	54002bc0 	b.eq	405584 <_nl_load_domain+0xf34>  // b.none
  405010:	7101623f 	cmp	w17, #0x58
  405014:	54004621 	b.ne	4058d8 <_nl_load_domain+0x1288>  // b.any
  405018:	aa0703e1 	mov	x1, x7
  40501c:	17fffeb8 	b	404afc <_nl_load_domain+0x4ac>
  405020:	39401400 	ldrb	w0, [x0, #5]
  405024:	35ffd6c0 	cbnz	w0, 404afc <_nl_load_domain+0x4ac>
  405028:	7101923f 	cmp	w17, #0x64
  40502c:	54002540 	b.eq	4054d4 <_nl_load_domain+0xe84>  // b.none
  405030:	35002574 	cbnz	w20, 4054dc <_nl_load_domain+0xe8c>
  405034:	b940a3e0 	ldr	w0, [sp, #160]
  405038:	35002560 	cbnz	w0, 4054e4 <_nl_load_domain+0xe94>
  40503c:	350025c3 	cbnz	w3, 4054f4 <_nl_load_domain+0xea4>
  405040:	7101e23f 	cmp	w17, #0x78
  405044:	54002540 	b.eq	4054ec <_nl_load_domain+0xe9c>  // b.none
  405048:	7101623f 	cmp	w17, #0x58
  40504c:	54004461 	b.ne	4058d8 <_nl_load_domain+0x1288>  // b.any
  405050:	90000301 	adrp	x1, 465000 <translit_from_idx+0xdc0>
  405054:	913d0021 	add	x1, x1, #0xf40
  405058:	17fffea9 	b	404afc <_nl_load_domain+0x4ac>
  40505c:	39401412 	ldrb	w18, [x0, #5]
  405060:	7100da5f 	cmp	w18, #0x36
  405064:	54ffd4c1 	b.ne	404afc <_nl_load_domain+0x4ac>  // b.any
  405068:	39401800 	ldrb	w0, [x0, #6]
  40506c:	35002300 	cbnz	w0, 4054cc <_nl_load_domain+0xe7c>
  405070:	7101923f 	cmp	w17, #0x64
  405074:	54002540 	b.eq	40551c <_nl_load_domain+0xecc>  // b.none
  405078:	350025b4 	cbnz	w20, 40552c <_nl_load_domain+0xedc>
  40507c:	b940a3e0 	ldr	w0, [sp, #160]
  405080:	35002520 	cbnz	w0, 405524 <_nl_load_domain+0xed4>
  405084:	350025c3 	cbnz	w3, 40553c <_nl_load_domain+0xeec>
  405088:	7101e23f 	cmp	w17, #0x78
  40508c:	54002540 	b.eq	405534 <_nl_load_domain+0xee4>  // b.none
  405090:	7101623f 	cmp	w17, #0x58
  405094:	54004221 	b.ne	4058d8 <_nl_load_domain+0x1288>  // b.any
  405098:	90000301 	adrp	x1, 465000 <translit_from_idx+0xdc0>
  40509c:	913d0021 	add	x1, x1, #0xf40
  4050a0:	17fffe97 	b	404afc <_nl_load_domain+0x4ac>
  4050a4:	7101425f 	cmp	w18, #0x50
  4050a8:	54002961 	b.ne	4055d4 <_nl_load_domain+0xf84>  // b.any
  4050ac:	39401412 	ldrb	w18, [x0, #5]
  4050b0:	d2800001 	mov	x1, #0x0                   	// #0
  4050b4:	7101525f 	cmp	w18, #0x54
  4050b8:	54ffd221 	b.ne	404afc <_nl_load_domain+0x4ac>  // b.any
  4050bc:	39401812 	ldrb	w18, [x0, #6]
  4050c0:	71014a5f 	cmp	w18, #0x52
  4050c4:	54ffd1c1 	b.ne	404afc <_nl_load_domain+0x4ac>  // b.any
  4050c8:	39401c00 	ldrb	w0, [x0, #7]
  4050cc:	35ffd180 	cbnz	w0, 404afc <_nl_load_domain+0x4ac>
  4050d0:	7101923f 	cmp	w17, #0x64
  4050d4:	540027c0 	b.eq	4055cc <_nl_load_domain+0xf7c>  // b.none
  4050d8:	35002774 	cbnz	w20, 4055c4 <_nl_load_domain+0xf74>
  4050dc:	b940a3e0 	ldr	w0, [sp, #160]
  4050e0:	350026e0 	cbnz	w0, 4055bc <_nl_load_domain+0xf6c>
  4050e4:	35002683 	cbnz	w3, 4055b4 <_nl_load_domain+0xf64>
  4050e8:	7101e23f 	cmp	w17, #0x78
  4050ec:	54002600 	b.eq	4055ac <_nl_load_domain+0xf5c>  // b.none
  4050f0:	7101623f 	cmp	w17, #0x58
  4050f4:	54003f21 	b.ne	4058d8 <_nl_load_domain+0x1288>  // b.any
  4050f8:	aa0703e1 	mov	x1, x7
  4050fc:	17fffe80 	b	404afc <_nl_load_domain+0x4ac>
  405100:	f94053e1 	ldr	x1, [sp, #160]
  405104:	531f7a60 	lsl	w0, w19, #1
  405108:	8b205020 	add	x0, x1, w0, uxtw #4
  40510c:	94003e9d 	bl	414b80 <__libc_malloc>
  405110:	f90053e0 	str	x0, [sp, #160]
  405114:	b4ffc080 	cbz	x0, 404924 <_nl_load_domain+0x2d4>
  405118:	d37c7e69 	ubfiz	x9, x19, #4, #32
  40511c:	f90012a0 	str	x0, [x21, #32]
  405120:	8b090001 	add	x1, x0, x9
  405124:	f9007ff7 	str	x23, [sp, #248]
  405128:	8b090409 	add	x9, x0, x9, lsl #1
  40512c:	a90ea7f5 	stp	x21, x9, [sp, #232]
  405130:	52825bca 	mov	w10, #0x12de                	// #4830
  405134:	f94063e0 	ldr	x0, [sp, #192]
  405138:	72b2a08a 	movk	w10, #0x9504, lsl #16
  40513c:	b9007bff 	str	wzr, [sp, #120]
  405140:	8b000134 	add	x20, x9, x0
  405144:	aa1c03e0 	mov	x0, x28
  405148:	aa1403f7 	mov	x23, x20
  40514c:	2a1803fc 	mov	w28, w24
  405150:	a94cd3f5 	ldp	x21, x20, [sp, #200]
  405154:	f90067f6 	str	x22, [sp, #200]
  405158:	f94043f6 	ldr	x22, [sp, #128]
  40515c:	aa0003f8 	mov	x24, x0
  405160:	a90de7e1 	stp	x1, x25, [sp, #216]
  405164:	52800009 	mov	w9, #0x0                   	// #0
  405168:	6b0a039f 	cmp	w28, w10
  40516c:	54001580 	b.eq	40541c <_nl_load_domain+0xdcc>  // b.none
  405170:	7100013f 	cmp	w9, #0x0
  405174:	9a950280 	csel	x0, x20, x21, eq  // eq = none
  405178:	b9400001 	ldr	w1, [x0]
  40517c:	5ac00821 	rev	w1, w1
  405180:	8b010301 	add	x1, x24, x1
  405184:	b9400820 	ldr	w0, [x1, #8]
  405188:	3100041f 	cmn	w0, #0x1
  40518c:	1a9f07e0 	cset	w0, ne  // ne = any
  405190:	35000480 	cbnz	w0, 405220 <_nl_load_domain+0xbd0>
  405194:	34001549 	cbz	w9, 40543c <_nl_load_domain+0xdec>
  405198:	f9403fe0 	ldr	x0, [sp, #120]
  40519c:	a90ad3f5 	stp	x21, x20, [sp, #168]
  4051a0:	aa1703f4 	mov	x20, x23
  4051a4:	b90073ff 	str	wzr, [sp, #112]
  4051a8:	d37c7c13 	ubfiz	x19, x0, #4, #32
  4051ac:	f94053e0 	ldr	x0, [sp, #160]
  4051b0:	8b130000 	add	x0, x0, x19
  4051b4:	f90063e0 	str	x0, [sp, #192]
  4051b8:	f9406fe0 	ldr	x0, [sp, #216]
  4051bc:	8b130000 	add	x0, x0, x19
  4051c0:	f9005fe0 	str	x0, [sp, #184]
  4051c4:	b94073e0 	ldr	w0, [sp, #112]
  4051c8:	6b0a039f 	cmp	w28, w10
  4051cc:	54000420 	b.eq	405250 <_nl_load_domain+0xc00>  // b.none
  4051d0:	34001580 	cbz	w0, 405480 <_nl_load_domain+0xe30>
  4051d4:	f94057e0 	ldr	x0, [sp, #168]
  4051d8:	f9405ff9 	ldr	x25, [sp, #184]
  4051dc:	b9400000 	ldr	w0, [x0]
  4051e0:	5ac00801 	rev	w1, w0
  4051e4:	5ac00800 	rev	w0, w0
  4051e8:	8b000300 	add	x0, x24, x0
  4051ec:	b8614b13 	ldr	w19, [x24, w1, uxtw]
  4051f0:	5ac00a73 	rev	w19, w19
  4051f4:	8b130313 	add	x19, x24, x19
  4051f8:	29408801 	ldp	w1, w2, [x0, #4]
  4051fc:	3100045f 	cmn	w2, #0x1
  405200:	5ac00821 	rev	w1, w1
  405204:	540003a1 	b.ne	405278 <_nl_load_domain+0xc28>  // b.any
  405208:	a9004f21 	stp	x1, x19, [x25]
  40520c:	b94073e0 	ldr	w0, [sp, #112]
  405210:	35000600 	cbnz	w0, 4052d0 <_nl_load_domain+0xc80>
  405214:	52800020 	mov	w0, #0x1                   	// #1
  405218:	b90073e0 	str	w0, [sp, #112]
  40521c:	17ffffea 	b	4051c4 <_nl_load_domain+0xb74>
  405220:	91001021 	add	x1, x1, #0x4
  405224:	14000004 	b	405234 <_nl_load_domain+0xbe4>
  405228:	f8605ac0 	ldr	x0, [x22, w0, uxtw #3]
  40522c:	b40005c0 	cbz	x0, 4052e4 <_nl_load_domain+0xc94>
  405230:	91002021 	add	x1, x1, #0x8
  405234:	b9400420 	ldr	w0, [x1, #4]
  405238:	6b0a039f 	cmp	w28, w10
  40523c:	5ac00802 	rev	w2, w0
  405240:	1a801040 	csel	w0, w2, w0, ne  // ne = any
  405244:	3100041f 	cmn	w0, #0x1
  405248:	54ffff01 	b.ne	405228 <_nl_load_domain+0xbd8>  // b.any
  40524c:	17ffffd2 	b	405194 <_nl_load_domain+0xb44>
  405250:	340012a0 	cbz	w0, 4054a4 <_nl_load_domain+0xe54>
  405254:	f94057e0 	ldr	x0, [sp, #168]
  405258:	f9405ff9 	ldr	x25, [sp, #184]
  40525c:	b9400001 	ldr	w1, [x0]
  405260:	8b010300 	add	x0, x24, x1
  405264:	b8616b13 	ldr	w19, [x24, x1]
  405268:	8b130313 	add	x19, x24, x19
  40526c:	29408801 	ldp	w1, w2, [x0, #4]
  405270:	3100045f 	cmn	w2, #0x1
  405274:	54fffca0 	b.eq	405208 <_nl_load_domain+0xbb8>  // b.none
  405278:	91001017 	add	x23, x0, #0x4
  40527c:	f9000734 	str	x20, [x25, #8]
  405280:	294056e0 	ldp	w0, w21, [x23]
  405284:	6b0a039f 	cmp	w28, w10
  405288:	54000060 	b.eq	405294 <_nl_load_domain+0xc44>  // b.none
  40528c:	5ac00800 	rev	w0, w0
  405290:	5ac00ab5 	rev	w21, w21
  405294:	35000d80 	cbnz	w0, 405444 <_nl_load_domain+0xdf4>
  405298:	310006bf 	cmn	w21, #0x1
  40529c:	54000ea0 	b.eq	405470 <_nl_load_domain+0xe20>  // b.none
  4052a0:	f8755ad5 	ldr	x21, [x22, w21, uxtw #3]
  4052a4:	910022f7 	add	x23, x23, #0x8
  4052a8:	aa1503e0 	mov	x0, x21
  4052ac:	97ffec15 	bl	400300 <.plt+0x60>
  4052b0:	aa0003e2 	mov	x2, x0
  4052b4:	aa1503e1 	mov	x1, x21
  4052b8:	aa1403e0 	mov	x0, x20
  4052bc:	8b020294 	add	x20, x20, x2
  4052c0:	97ffebfc 	bl	4002b0 <.plt+0x10>
  4052c4:	52825bca 	mov	w10, #0x12de                	// #4830
  4052c8:	72b2a08a 	movk	w10, #0x9504, lsl #16
  4052cc:	17ffffed 	b	405280 <_nl_load_domain+0xc30>
  4052d0:	aa1403f7 	mov	x23, x20
  4052d4:	b9407be0 	ldr	w0, [sp, #120]
  4052d8:	a94ad3f5 	ldp	x21, x20, [sp, #168]
  4052dc:	11000400 	add	w0, w0, #0x1
  4052e0:	b9007be0 	str	w0, [sp, #120]
  4052e4:	f9404be0 	ldr	x0, [sp, #144]
  4052e8:	91001294 	add	x20, x20, #0x4
  4052ec:	910012b5 	add	x21, x21, #0x4
  4052f0:	eb14001f 	cmp	x0, x20
  4052f4:	54fff381 	b.ne	405164 <_nl_load_domain+0xb14>  // b.any
  4052f8:	aa1803e0 	mov	x0, x24
  4052fc:	b9407be1 	ldr	w1, [sp, #120]
  405300:	2a1c03f8 	mov	w24, w28
  405304:	aa0003fc 	mov	x28, x0
  405308:	b9409be0 	ldr	w0, [sp, #152]
  40530c:	f94067f6 	ldr	x22, [sp, #200]
  405310:	6b01001f 	cmp	w0, w1
  405314:	a94e57f9 	ldp	x25, x21, [sp, #224]
  405318:	a94f5fe9 	ldp	x9, x23, [sp, #240]
  40531c:	54002de1 	b.ne	4058d8 <_nl_load_domain+0x1288>  // b.any
  405320:	b9406be4 	ldr	w4, [sp, #104]
  405324:	52825bca 	mov	w10, #0x12de                	// #4830
  405328:	f94047e3 	ldr	x3, [sp, #136]
  40532c:	d2800000 	mov	x0, #0x0                   	// #0
  405330:	72b2a08a 	movk	w10, #0x9504, lsl #16
  405334:	b8607861 	ldr	w1, [x3, x0, lsl #2]
  405338:	6b0a031f 	cmp	w24, w10
  40533c:	5ac00822 	rev	w2, w1
  405340:	1a811041 	csel	w1, w2, w1, ne  // ne = any
  405344:	b8207921 	str	w1, [x9, x0, lsl #2]
  405348:	91000400 	add	x0, x0, #0x1
  40534c:	6b00009f 	cmp	w4, w0
  405350:	54ffff28 	b.hi	405334 <_nl_load_domain+0xce4>  // b.pmore
  405354:	f94053e0 	ldr	x0, [sp, #160]
  405358:	52800013 	mov	w19, #0x0                   	// #0
  40535c:	b9409bf8 	ldr	w24, [sp, #152]
  405360:	91002014 	add	x20, x0, #0x8
  405364:	f90037f6 	str	x22, [sp, #104]
  405368:	aa1503f6 	mov	x22, x21
  40536c:	aa1403f5 	mov	x21, x20
  405370:	2a1303f4 	mov	w20, w19
  405374:	aa0903f3 	mov	x19, x9
  405378:	f94002a0 	ldr	x0, [x21]
  40537c:	94000783 	bl	407188 <__hash_string>
  405380:	b9405ac4 	ldr	w4, [x22, #88]
  405384:	51000882 	sub	w2, w4, #0x2
  405388:	1ac40801 	udiv	w1, w0, w4
  40538c:	1ac20803 	udiv	w3, w0, w2
  405390:	1b048021 	msub	w1, w1, w4, w0
  405394:	1b028063 	msub	w3, w3, w2, w0
  405398:	8b214a62 	add	x2, x19, w1, uxtw #2
  40539c:	b8615a60 	ldr	w0, [x19, w1, uxtw #2]
  4053a0:	11000463 	add	w3, w3, #0x1
  4053a4:	4b030085 	sub	w5, w4, w3
  4053a8:	4b040064 	sub	w4, w3, w4
  4053ac:	34000120 	cbz	w0, 4053d0 <_nl_load_domain+0xd80>
  4053b0:	0b040022 	add	w2, w1, w4
  4053b4:	6b0100bf 	cmp	w5, w1
  4053b8:	0b030021 	add	w1, w1, w3
  4053bc:	1a828020 	csel	w0, w1, w2, hi  // hi = pmore
  4053c0:	1a828021 	csel	w1, w1, w2, hi  // hi = pmore
  4053c4:	8b000a62 	add	x2, x19, x0, lsl #2
  4053c8:	b8607a60 	ldr	w0, [x19, x0, lsl #2]
  4053cc:	35ffff20 	cbnz	w0, 4053b0 <_nl_load_domain+0xd60>
  4053d0:	b9402ac0 	ldr	w0, [x22, #40]
  4053d4:	910042b5 	add	x21, x21, #0x10
  4053d8:	11000400 	add	w0, w0, #0x1
  4053dc:	0b140000 	add	w0, w0, w20
  4053e0:	b9000040 	str	w0, [x2]
  4053e4:	11000694 	add	w20, w20, #0x1
  4053e8:	6b14031f 	cmp	w24, w20
  4053ec:	54fffc61 	b.ne	405378 <_nl_load_domain+0xd28>  // b.any
  4053f0:	aa1603f5 	mov	x21, x22
  4053f4:	b9409be0 	ldr	w0, [sp, #152]
  4053f8:	f94037f6 	ldr	x22, [sp, #104]
  4053fc:	b90042a0 	str	w0, [x21, #64]
  405400:	f94053e0 	ldr	x0, [sp, #160]
  405404:	f90026a0 	str	x0, [x21, #72]
  405408:	f9406fe0 	ldr	x0, [sp, #216]
  40540c:	f9002aa0 	str	x0, [x21, #80]
  405410:	f90032b3 	str	x19, [x21, #96]
  405414:	b9006abf 	str	wzr, [x21, #104]
  405418:	17fffe00 	b	404c18 <_nl_load_domain+0x5c8>
  40541c:	34000269 	cbz	w9, 405468 <_nl_load_domain+0xe18>
  405420:	b94002a1 	ldr	w1, [x21]
  405424:	8b010301 	add	x1, x24, x1
  405428:	b9400820 	ldr	w0, [x1, #8]
  40542c:	3100041f 	cmn	w0, #0x1
  405430:	1a9f07e0 	cset	w0, ne  // ne = any
  405434:	34ffeb00 	cbz	w0, 405194 <_nl_load_domain+0xb44>
  405438:	17ffff7a 	b	405220 <_nl_load_domain+0xbd0>
  40543c:	52800029 	mov	w9, #0x1                   	// #1
  405440:	17ffff4a 	b	405168 <_nl_load_domain+0xb18>
  405444:	2a0003e2 	mov	w2, w0
  405448:	aa1303e1 	mov	x1, x19
  40544c:	aa1403e0 	mov	x0, x20
  405450:	8b020273 	add	x19, x19, x2
  405454:	8b020294 	add	x20, x20, x2
  405458:	97ffeb96 	bl	4002b0 <.plt+0x10>
  40545c:	52825bca 	mov	w10, #0x12de                	// #4830
  405460:	72b2a08a 	movk	w10, #0x9504, lsl #16
  405464:	17ffff8d 	b	405298 <_nl_load_domain+0xc48>
  405468:	b9400281 	ldr	w1, [x20]
  40546c:	17ffffee 	b	405424 <_nl_load_domain+0xdd4>
  405470:	f9400720 	ldr	x0, [x25, #8]
  405474:	cb000280 	sub	x0, x20, x0
  405478:	f9000320 	str	x0, [x25]
  40547c:	17ffff64 	b	40520c <_nl_load_domain+0xbbc>
  405480:	f9405be0 	ldr	x0, [sp, #176]
  405484:	f94063f9 	ldr	x25, [sp, #192]
  405488:	b9400001 	ldr	w1, [x0]
  40548c:	5ac00821 	rev	w1, w1
  405490:	8b010300 	add	x0, x24, x1
  405494:	b8616b13 	ldr	w19, [x24, x1]
  405498:	5ac00a73 	rev	w19, w19
  40549c:	8b130313 	add	x19, x24, x19
  4054a0:	17ffff56 	b	4051f8 <_nl_load_domain+0xba8>
  4054a4:	f9405be0 	ldr	x0, [sp, #176]
  4054a8:	f94063f9 	ldr	x25, [sp, #192]
  4054ac:	b9400001 	ldr	w1, [x0]
  4054b0:	8b010300 	add	x0, x24, x1
  4054b4:	b8616b13 	ldr	w19, [x24, x1]
  4054b8:	8b130313 	add	x19, x24, x19
  4054bc:	17ffff6c 	b	40526c <_nl_load_domain+0xc1c>
  4054c0:	94005b60 	bl	41c240 <__stack_chk_fail>
  4054c4:	d2800001 	mov	x1, #0x0                   	// #0
  4054c8:	17fffd8d 	b	404afc <_nl_load_domain+0x4ac>
  4054cc:	d2800001 	mov	x1, #0x0                   	// #0
  4054d0:	17fffd8b 	b	404afc <_nl_load_domain+0x4ac>
  4054d4:	aa0603e1 	mov	x1, x6
  4054d8:	17fffd89 	b	404afc <_nl_load_domain+0x4ac>
  4054dc:	aa0503e1 	mov	x1, x5
  4054e0:	17fffd87 	b	404afc <_nl_load_domain+0x4ac>
  4054e4:	aa0403e1 	mov	x1, x4
  4054e8:	17fffd85 	b	404afc <_nl_load_domain+0x4ac>
  4054ec:	f9404fe1 	ldr	x1, [sp, #152]
  4054f0:	17fffd83 	b	404afc <_nl_load_domain+0x4ac>
  4054f4:	aa1e03e1 	mov	x1, x30
  4054f8:	17fffd81 	b	404afc <_nl_load_domain+0x4ac>
  4054fc:	aa0503e1 	mov	x1, x5
  405500:	17fffd7f 	b	404afc <_nl_load_domain+0x4ac>
  405504:	aa0603e1 	mov	x1, x6
  405508:	17fffd7d 	b	404afc <_nl_load_domain+0x4ac>
  40550c:	aa0f03e1 	mov	x1, x15
  405510:	17fffd7b 	b	404afc <_nl_load_domain+0x4ac>
  405514:	aa1003e1 	mov	x1, x16
  405518:	17fffd79 	b	404afc <_nl_load_domain+0x4ac>
  40551c:	aa0603e1 	mov	x1, x6
  405520:	17fffd77 	b	404afc <_nl_load_domain+0x4ac>
  405524:	aa0403e1 	mov	x1, x4
  405528:	17fffd75 	b	404afc <_nl_load_domain+0x4ac>
  40552c:	aa0503e1 	mov	x1, x5
  405530:	17fffd73 	b	404afc <_nl_load_domain+0x4ac>
  405534:	f9404fe1 	ldr	x1, [sp, #152]
  405538:	17fffd71 	b	404afc <_nl_load_domain+0x4ac>
  40553c:	aa1e03e1 	mov	x1, x30
  405540:	17fffd6f 	b	404afc <_nl_load_domain+0x4ac>
  405544:	aa1003e1 	mov	x1, x16
  405548:	17fffd6d 	b	404afc <_nl_load_domain+0x4ac>
  40554c:	aa0803e1 	mov	x1, x8
  405550:	17fffd6b 	b	404afc <_nl_load_domain+0x4ac>
  405554:	aa0e03e1 	mov	x1, x14
  405558:	17fffd69 	b	404afc <_nl_load_domain+0x4ac>
  40555c:	aa0f03e1 	mov	x1, x15
  405560:	17fffd67 	b	404afc <_nl_load_domain+0x4ac>
  405564:	aa1e03e1 	mov	x1, x30
  405568:	17fffd65 	b	404afc <_nl_load_domain+0x4ac>
  40556c:	aa0403e1 	mov	x1, x4
  405570:	17fffd63 	b	404afc <_nl_load_domain+0x4ac>
  405574:	f9404be1 	ldr	x1, [sp, #144]
  405578:	17fffd61 	b	404afc <_nl_load_domain+0x4ac>
  40557c:	aa0e03e1 	mov	x1, x14
  405580:	17fffd5f 	b	404afc <_nl_load_domain+0x4ac>
  405584:	aa0803e1 	mov	x1, x8
  405588:	17fffd5d 	b	404afc <_nl_load_domain+0x4ac>
  40558c:	f9404be1 	ldr	x1, [sp, #144]
  405590:	17fffd5b 	b	404afc <_nl_load_domain+0x4ac>
  405594:	f9404fe1 	ldr	x1, [sp, #152]
  405598:	17fffd59 	b	404afc <_nl_load_domain+0x4ac>
  40559c:	aa0803e1 	mov	x1, x8
  4055a0:	17fffd57 	b	404afc <_nl_load_domain+0x4ac>
  4055a4:	f9404fe1 	ldr	x1, [sp, #152]
  4055a8:	17fffd55 	b	404afc <_nl_load_domain+0x4ac>
  4055ac:	aa0803e1 	mov	x1, x8
  4055b0:	17fffd53 	b	404afc <_nl_load_domain+0x4ac>
  4055b4:	f9404be1 	ldr	x1, [sp, #144]
  4055b8:	17fffd51 	b	404afc <_nl_load_domain+0x4ac>
  4055bc:	aa0e03e1 	mov	x1, x14
  4055c0:	17fffd4f 	b	404afc <_nl_load_domain+0x4ac>
  4055c4:	aa0f03e1 	mov	x1, x15
  4055c8:	17fffd4d 	b	404afc <_nl_load_domain+0x4ac>
  4055cc:	aa1003e1 	mov	x1, x16
  4055d0:	17fffd4b 	b	404afc <_nl_load_domain+0x4ac>
  4055d4:	d2800001 	mov	x1, #0x0                   	// #0
  4055d8:	17fffd49 	b	404afc <_nl_load_domain+0x4ac>
  4055dc:	aa1e03e1 	mov	x1, x30
  4055e0:	17fffd47 	b	404afc <_nl_load_domain+0x4ac>
  4055e4:	aa0403e1 	mov	x1, x4
  4055e8:	17fffd45 	b	404afc <_nl_load_domain+0x4ac>
  4055ec:	aa0503e1 	mov	x1, x5
  4055f0:	17fffd43 	b	404afc <_nl_load_domain+0x4ac>
  4055f4:	aa0603e1 	mov	x1, x6
  4055f8:	17fffd41 	b	404afc <_nl_load_domain+0x4ac>
  4055fc:	d2800001 	mov	x1, #0x0                   	// #0
  405600:	17fffd3f 	b	404afc <_nl_load_domain+0x4ac>
  405604:	7100da5f 	cmp	w18, #0x36
  405608:	54ffa7a1 	b.ne	404afc <_nl_load_domain+0x4ac>  // b.any
  40560c:	39402801 	ldrb	w1, [x0, #10]
  405610:	7100d03f 	cmp	w1, #0x34
  405614:	54000480 	b.eq	4056a4 <_nl_load_domain+0x1054>  // b.none
  405618:	d2800001 	mov	x1, #0x0                   	// #0
  40561c:	17fffd38 	b	404afc <_nl_load_domain+0x4ac>
  405620:	39402812 	ldrb	w18, [x0, #10]
  405624:	7100da5f 	cmp	w18, #0x36
  405628:	54ffa6a1 	b.ne	404afc <_nl_load_domain+0x4ac>  // b.any
  40562c:	39402c00 	ldrb	w0, [x0, #11]
  405630:	35ffa660 	cbnz	w0, 404afc <_nl_load_domain+0x4ac>
  405634:	7101923f 	cmp	w17, #0x64
  405638:	540008e0 	b.eq	405754 <_nl_load_domain+0x1104>  // b.none
  40563c:	35000894 	cbnz	w20, 40574c <_nl_load_domain+0x10fc>
  405640:	b940a3e0 	ldr	w0, [sp, #160]
  405644:	35000800 	cbnz	w0, 405744 <_nl_load_domain+0x10f4>
  405648:	350007a3 	cbnz	w3, 40573c <_nl_load_domain+0x10ec>
  40564c:	7101e23f 	cmp	w17, #0x78
  405650:	54000460 	b.eq	4056dc <_nl_load_domain+0x108c>  // b.none
  405654:	7101623f 	cmp	w17, #0x58
  405658:	54001401 	b.ne	4058d8 <_nl_load_domain+0x1288>  // b.any
  40565c:	90000301 	adrp	x1, 465000 <translit_from_idx+0xdc0>
  405660:	913d0021 	add	x1, x1, #0xf40
  405664:	17fffd26 	b	404afc <_nl_load_domain+0x4ac>
  405668:	39402800 	ldrb	w0, [x0, #10]
  40566c:	35ffa480 	cbnz	w0, 404afc <_nl_load_domain+0x4ac>
  405670:	7101923f 	cmp	w17, #0x64
  405674:	54000600 	b.eq	405734 <_nl_load_domain+0x10e4>  // b.none
  405678:	350005b4 	cbnz	w20, 40572c <_nl_load_domain+0x10dc>
  40567c:	b940a3e0 	ldr	w0, [sp, #160]
  405680:	35000520 	cbnz	w0, 405724 <_nl_load_domain+0x10d4>
  405684:	350004c3 	cbnz	w3, 40571c <_nl_load_domain+0x10cc>
  405688:	7101e23f 	cmp	w17, #0x78
  40568c:	540002c0 	b.eq	4056e4 <_nl_load_domain+0x1094>  // b.none
  405690:	7101623f 	cmp	w17, #0x58
  405694:	54001221 	b.ne	4058d8 <_nl_load_domain+0x1288>  // b.any
  405698:	90000301 	adrp	x1, 465000 <translit_from_idx+0xdc0>
  40569c:	913d0021 	add	x1, x1, #0xf40
  4056a0:	17fffd17 	b	404afc <_nl_load_domain+0x4ac>
  4056a4:	39402c00 	ldrb	w0, [x0, #11]
  4056a8:	35000360 	cbnz	w0, 405714 <_nl_load_domain+0x10c4>
  4056ac:	7101923f 	cmp	w17, #0x64
  4056b0:	540002e0 	b.eq	40570c <_nl_load_domain+0x10bc>  // b.none
  4056b4:	35000294 	cbnz	w20, 405704 <_nl_load_domain+0x10b4>
  4056b8:	b940a3e0 	ldr	w0, [sp, #160]
  4056bc:	35000200 	cbnz	w0, 4056fc <_nl_load_domain+0x10ac>
  4056c0:	350001a3 	cbnz	w3, 4056f4 <_nl_load_domain+0x10a4>
  4056c4:	7101e23f 	cmp	w17, #0x78
  4056c8:	54000120 	b.eq	4056ec <_nl_load_domain+0x109c>  // b.none
  4056cc:	7101623f 	cmp	w17, #0x58
  4056d0:	54001041 	b.ne	4058d8 <_nl_load_domain+0x1288>  // b.any
  4056d4:	aa0703e1 	mov	x1, x7
  4056d8:	17fffd09 	b	404afc <_nl_load_domain+0x4ac>
  4056dc:	f9404fe1 	ldr	x1, [sp, #152]
  4056e0:	17fffd07 	b	404afc <_nl_load_domain+0x4ac>
  4056e4:	f9404fe1 	ldr	x1, [sp, #152]
  4056e8:	17fffd05 	b	404afc <_nl_load_domain+0x4ac>
  4056ec:	aa0803e1 	mov	x1, x8
  4056f0:	17fffd03 	b	404afc <_nl_load_domain+0x4ac>
  4056f4:	f9404be1 	ldr	x1, [sp, #144]
  4056f8:	17fffd01 	b	404afc <_nl_load_domain+0x4ac>
  4056fc:	aa0e03e1 	mov	x1, x14
  405700:	17fffcff 	b	404afc <_nl_load_domain+0x4ac>
  405704:	aa0f03e1 	mov	x1, x15
  405708:	17fffcfd 	b	404afc <_nl_load_domain+0x4ac>
  40570c:	aa1003e1 	mov	x1, x16
  405710:	17fffcfb 	b	404afc <_nl_load_domain+0x4ac>
  405714:	d2800001 	mov	x1, #0x0                   	// #0
  405718:	17fffcf9 	b	404afc <_nl_load_domain+0x4ac>
  40571c:	aa1e03e1 	mov	x1, x30
  405720:	17fffcf7 	b	404afc <_nl_load_domain+0x4ac>
  405724:	aa0403e1 	mov	x1, x4
  405728:	17fffcf5 	b	404afc <_nl_load_domain+0x4ac>
  40572c:	aa0503e1 	mov	x1, x5
  405730:	17fffcf3 	b	404afc <_nl_load_domain+0x4ac>
  405734:	aa0603e1 	mov	x1, x6
  405738:	17fffcf1 	b	404afc <_nl_load_domain+0x4ac>
  40573c:	aa1e03e1 	mov	x1, x30
  405740:	17fffcef 	b	404afc <_nl_load_domain+0x4ac>
  405744:	aa0403e1 	mov	x1, x4
  405748:	17fffced 	b	404afc <_nl_load_domain+0x4ac>
  40574c:	aa0503e1 	mov	x1, x5
  405750:	17fffceb 	b	404afc <_nl_load_domain+0x4ac>
  405754:	aa0603e1 	mov	x1, x6
  405758:	17fffce9 	b	404afc <_nl_load_domain+0x4ac>
  40575c:	f9404be1 	ldr	x1, [sp, #144]
  405760:	17fffce7 	b	404afc <_nl_load_domain+0x4ac>
  405764:	aa0e03e1 	mov	x1, x14
  405768:	17fffce5 	b	404afc <_nl_load_domain+0x4ac>
  40576c:	aa0f03e1 	mov	x1, x15
  405770:	17fffce3 	b	404afc <_nl_load_domain+0x4ac>
  405774:	aa1003e1 	mov	x1, x16
  405778:	17fffce1 	b	404afc <_nl_load_domain+0x4ac>
  40577c:	d2800001 	mov	x1, #0x0                   	// #0
  405780:	17fffcdf 	b	404afc <_nl_load_domain+0x4ac>
  405784:	7100da5f 	cmp	w18, #0x36
  405788:	54ff9ba1 	b.ne	404afc <_nl_load_domain+0x4ac>  // b.any
  40578c:	39402401 	ldrb	w1, [x0, #9]
  405790:	7100d03f 	cmp	w1, #0x34
  405794:	54000460 	b.eq	405820 <_nl_load_domain+0x11d0>  // b.none
  405798:	d2800001 	mov	x1, #0x0                   	// #0
  40579c:	17fffcd8 	b	404afc <_nl_load_domain+0x4ac>
  4057a0:	39402412 	ldrb	w18, [x0, #9]
  4057a4:	7100da5f 	cmp	w18, #0x36
  4057a8:	54ff9aa1 	b.ne	404afc <_nl_load_domain+0x4ac>  // b.any
  4057ac:	39402800 	ldrb	w0, [x0, #10]
  4057b0:	35ff9a60 	cbnz	w0, 404afc <_nl_load_domain+0x4ac>
  4057b4:	7101923f 	cmp	w17, #0x64
  4057b8:	540008c0 	b.eq	4058d0 <_nl_load_domain+0x1280>  // b.none
  4057bc:	35000874 	cbnz	w20, 4058c8 <_nl_load_domain+0x1278>
  4057c0:	b940a3e0 	ldr	w0, [sp, #160]
  4057c4:	350007e0 	cbnz	w0, 4058c0 <_nl_load_domain+0x1270>
  4057c8:	35000783 	cbnz	w3, 4058b8 <_nl_load_domain+0x1268>
  4057cc:	7101e23f 	cmp	w17, #0x78
  4057d0:	54000440 	b.eq	405858 <_nl_load_domain+0x1208>  // b.none
  4057d4:	7101623f 	cmp	w17, #0x58
  4057d8:	54000801 	b.ne	4058d8 <_nl_load_domain+0x1288>  // b.any
  4057dc:	aa0703e1 	mov	x1, x7
  4057e0:	17fffcc7 	b	404afc <_nl_load_domain+0x4ac>
  4057e4:	39402400 	ldrb	w0, [x0, #9]
  4057e8:	35ff98a0 	cbnz	w0, 404afc <_nl_load_domain+0x4ac>
  4057ec:	7101923f 	cmp	w17, #0x64
  4057f0:	54000600 	b.eq	4058b0 <_nl_load_domain+0x1260>  // b.none
  4057f4:	350005b4 	cbnz	w20, 4058a8 <_nl_load_domain+0x1258>
  4057f8:	b940a3e0 	ldr	w0, [sp, #160]
  4057fc:	35000520 	cbnz	w0, 4058a0 <_nl_load_domain+0x1250>
  405800:	350004c3 	cbnz	w3, 405898 <_nl_load_domain+0x1248>
  405804:	7101e23f 	cmp	w17, #0x78
  405808:	540002c0 	b.eq	405860 <_nl_load_domain+0x1210>  // b.none
  40580c:	7101623f 	cmp	w17, #0x58
  405810:	54000641 	b.ne	4058d8 <_nl_load_domain+0x1288>  // b.any
  405814:	90000301 	adrp	x1, 465000 <translit_from_idx+0xdc0>
  405818:	913d0021 	add	x1, x1, #0xf40
  40581c:	17fffcb8 	b	404afc <_nl_load_domain+0x4ac>
  405820:	39402800 	ldrb	w0, [x0, #10]
  405824:	35000360 	cbnz	w0, 405890 <_nl_load_domain+0x1240>
  405828:	7101923f 	cmp	w17, #0x64
  40582c:	540002e0 	b.eq	405888 <_nl_load_domain+0x1238>  // b.none
  405830:	35000294 	cbnz	w20, 405880 <_nl_load_domain+0x1230>
  405834:	b940a3e0 	ldr	w0, [sp, #160]
  405838:	35000200 	cbnz	w0, 405878 <_nl_load_domain+0x1228>
  40583c:	350001a3 	cbnz	w3, 405870 <_nl_load_domain+0x1220>
  405840:	7101e23f 	cmp	w17, #0x78
  405844:	54000120 	b.eq	405868 <_nl_load_domain+0x1218>  // b.none
  405848:	7101623f 	cmp	w17, #0x58
  40584c:	54000461 	b.ne	4058d8 <_nl_load_domain+0x1288>  // b.any
  405850:	aa0703e1 	mov	x1, x7
  405854:	17fffcaa 	b	404afc <_nl_load_domain+0x4ac>
  405858:	aa0803e1 	mov	x1, x8
  40585c:	17fffca8 	b	404afc <_nl_load_domain+0x4ac>
  405860:	f9404fe1 	ldr	x1, [sp, #152]
  405864:	17fffca6 	b	404afc <_nl_load_domain+0x4ac>
  405868:	aa0803e1 	mov	x1, x8
  40586c:	17fffca4 	b	404afc <_nl_load_domain+0x4ac>
  405870:	f9404be1 	ldr	x1, [sp, #144]
  405874:	17fffca2 	b	404afc <_nl_load_domain+0x4ac>
  405878:	aa0e03e1 	mov	x1, x14
  40587c:	17fffca0 	b	404afc <_nl_load_domain+0x4ac>
  405880:	aa0f03e1 	mov	x1, x15
  405884:	17fffc9e 	b	404afc <_nl_load_domain+0x4ac>
  405888:	aa1003e1 	mov	x1, x16
  40588c:	17fffc9c 	b	404afc <_nl_load_domain+0x4ac>
  405890:	d2800001 	mov	x1, #0x0                   	// #0
  405894:	17fffc9a 	b	404afc <_nl_load_domain+0x4ac>
  405898:	aa1e03e1 	mov	x1, x30
  40589c:	17fffc98 	b	404afc <_nl_load_domain+0x4ac>
  4058a0:	aa0403e1 	mov	x1, x4
  4058a4:	17fffc96 	b	404afc <_nl_load_domain+0x4ac>
  4058a8:	aa0503e1 	mov	x1, x5
  4058ac:	17fffc94 	b	404afc <_nl_load_domain+0x4ac>
  4058b0:	aa0603e1 	mov	x1, x6
  4058b4:	17fffc92 	b	404afc <_nl_load_domain+0x4ac>
  4058b8:	f9404be1 	ldr	x1, [sp, #144]
  4058bc:	17fffc90 	b	404afc <_nl_load_domain+0x4ac>
  4058c0:	aa0e03e1 	mov	x1, x14
  4058c4:	17fffc8e 	b	404afc <_nl_load_domain+0x4ac>
  4058c8:	aa0f03e1 	mov	x1, x15
  4058cc:	17fffc8c 	b	404afc <_nl_load_domain+0x4ac>
  4058d0:	aa1003e1 	mov	x1, x16
  4058d4:	17fffc8a 	b	404afc <_nl_load_domain+0x4ac>
  4058d8:	97ffea9a 	bl	400340 <abort>
  4058dc:	d503201f 	nop

00000000004058e0 <alias_compare>:
  4058e0:	f9400000 	ldr	x0, [x0]
  4058e4:	90000302 	adrp	x2, 465000 <translit_from_idx+0xdc0>
  4058e8:	f9400021 	ldr	x1, [x1]
  4058ec:	91312042 	add	x2, x2, #0xc48
  4058f0:	140047da 	b	417858 <__strcasecmp_l>
  4058f4:	d503201f 	nop

00000000004058f8 <read_alias_file>:
  4058f8:	d10943ff 	sub	sp, sp, #0x250
  4058fc:	93407c22 	sxtw	x2, w1
  405900:	91007443 	add	x3, x2, #0x1d
  405904:	9270bc64 	and	x4, x3, #0xffffffffffff0000
  405908:	927cec63 	and	x3, x3, #0xfffffffffffffff0
  40590c:	a9017bfd 	stp	x29, x30, [sp, #16]
  405910:	910043fd 	add	x29, sp, #0x10
  405914:	cb2463e4 	sub	x4, sp, x4
  405918:	eb2463ff 	cmp	sp, x4
  40591c:	a90463f7 	stp	x23, x24, [sp, #64]
  405920:	b0000437 	adrp	x23, 48a000 <__FRAME_END__+0xfbac>
  405924:	912682f7 	add	x23, x23, #0x9a0
  405928:	f94002e1 	ldr	x1, [x23]
  40592c:	f9011fa1 	str	x1, [x29, #568]
  405930:	d2800001 	mov	x1, #0x0                   	// #0
  405934:	a90253f3 	stp	x19, x20, [sp, #32]
  405938:	a9035bf5 	stp	x21, x22, [sp, #48]
  40593c:	a9056bf9 	stp	x25, x26, [sp, #80]
  405940:	a90673fb 	stp	x27, x28, [sp, #96]
  405944:	540000a0 	b.eq	405958 <read_alias_file+0x60>  // b.none
  405948:	d14043ff 	sub	sp, sp, #0x10, lsl #12
  40594c:	eb2463ff 	cmp	sp, x4
  405950:	f90203ff 	str	xzr, [sp, #1024]
  405954:	54ffffa1 	b.ne	405948 <read_alias_file+0x50>  // b.any
  405958:	92403c63 	and	x3, x3, #0xffff
  40595c:	cb2363ff 	sub	sp, sp, x3
  405960:	f110007f 	cmp	x3, #0x400
  405964:	f90003ff 	str	xzr, [sp]
  405968:	54001b62 	b.cs	405cd4 <read_alias_file+0x3dc>  // b.hs, b.nlast
  40596c:	910043f3 	add	x19, sp, #0x10
  405970:	aa0003e1 	mov	x1, x0
  405974:	aa1303e0 	mov	x0, x19
  405978:	94004748 	bl	417698 <__mempcpy>
  40597c:	d0000263 	adrp	x3, 453000 <_nl_locale_subfreeres+0x1a8>
  405980:	91368063 	add	x3, x3, #0xda0
  405984:	aa0003e2 	mov	x2, x0
  405988:	d0000261 	adrp	x1, 453000 <_nl_locale_subfreeres+0x1a8>
  40598c:	aa1303e0 	mov	x0, x19
  405990:	91366021 	add	x1, x1, #0xd98
  405994:	f9400064 	ldr	x4, [x3]
  405998:	f9000044 	str	x4, [x2]
  40599c:	f8406063 	ldur	x3, [x3, #6]
  4059a0:	f8006043 	stur	x3, [x2, #6]
  4059a4:	94000e15 	bl	4091f8 <_IO_new_fopen>
  4059a8:	aa0003f4 	mov	x20, x0
  4059ac:	b4001980 	cbz	x0, 405cdc <read_alias_file+0x3e4>
  4059b0:	b9400001 	ldr	w1, [x0]
  4059b4:	d2800018 	mov	x24, #0x0                   	// #0
  4059b8:	32110022 	orr	w2, w1, #0x8000
  4059bc:	b9000002 	str	w2, [x0]
  4059c0:	37201ae1 	tbnz	w1, #4, 405d1c <read_alias_file+0x424>
  4059c4:	b0000420 	adrp	x0, 48a000 <__FRAME_END__+0xfbac>
  4059c8:	f947d000 	ldr	x0, [x0, #4000]
  4059cc:	d53bd055 	mrs	x21, tpidr_el0
  4059d0:	f0000436 	adrp	x22, 48c000 <_dl_main_map+0xa0>
  4059d4:	913c22d6 	add	x22, x22, #0xf08
  4059d8:	8b0002b5 	add	x21, x21, x0
  4059dc:	d503201f 	nop
  4059e0:	aa1403e2 	mov	x2, x20
  4059e4:	9102a3a0 	add	x0, x29, #0xa8
  4059e8:	52803201 	mov	w1, #0x190                 	// #400
  4059ec:	94001775 	bl	40b7c0 <__fgets_unlocked>
  4059f0:	b40002c0 	cbz	x0, 405a48 <read_alias_file+0x150>
  4059f4:	52800141 	mov	w1, #0xa                   	// #10
  4059f8:	9102a3a0 	add	x0, x29, #0xa8
  4059fc:	940042b9 	bl	4164e0 <strchr>
  405a00:	9102a3b3 	add	x19, x29, #0xa8
  405a04:	3942a3a1 	ldrb	w1, [x29, #168]
  405a08:	aa0003fa 	mov	x26, x0
  405a0c:	f94002a3 	ldr	x3, [x21]
  405a10:	d37f1c22 	ubfiz	x2, x1, #1, #8
  405a14:	78626862 	ldrh	w2, [x3, x2]
  405a18:	366800c2 	tbz	w2, #13, 405a30 <read_alias_file+0x138>
  405a1c:	d503201f 	nop
  405a20:	38401e61 	ldrb	w1, [x19, #1]!
  405a24:	d37f1c22 	ubfiz	x2, x1, #1, #8
  405a28:	78626862 	ldrh	w2, [x3, x2]
  405a2c:	376fffa2 	tbnz	w2, #13, 405a20 <read_alias_file+0x128>
  405a30:	71008c3f 	cmp	w1, #0x23
  405a34:	7a401824 	ccmp	w1, #0x0, #0x4, ne  // ne = any
  405a38:	54000501 	b.ne	405ad8 <read_alias_file+0x1e0>  // b.any
  405a3c:	b400043a 	cbz	x26, 405ac0 <read_alias_file+0x1c8>
  405a40:	b9400280 	ldr	w0, [x20]
  405a44:	3627fce0 	tbz	w0, #4, 4059e0 <read_alias_file+0xe8>
  405a48:	aa1403e0 	mov	x0, x20
  405a4c:	94000c9b 	bl	408cb8 <_IO_new_fclose>
  405a50:	b4000138 	cbz	x24, 405a74 <read_alias_file+0x17c>
  405a54:	f0000421 	adrp	x1, 48c000 <_dl_main_map+0xa0>
  405a58:	90000440 	adrp	x0, 48d000 <initial+0x90>
  405a5c:	90000003 	adrp	x3, 405000 <_nl_load_domain+0x9b0>
  405a60:	d2800202 	mov	x2, #0x10                  	// #16
  405a64:	f9478421 	ldr	x1, [x1, #3848]
  405a68:	91238063 	add	x3, x3, #0x8e0
  405a6c:	f947cc00 	ldr	x0, [x0, #3992]
  405a70:	9400080e 	bl	407aa8 <qsort>
  405a74:	f9411fa0 	ldr	x0, [x29, #568]
  405a78:	f94002e1 	ldr	x1, [x23]
  405a7c:	eb010000 	subs	x0, x0, x1
  405a80:	d2800001 	mov	x1, #0x0                   	// #0
  405a84:	54001501 	b.ne	405d24 <read_alias_file+0x42c>  // b.any
  405a88:	d10043bf 	sub	sp, x29, #0x10
  405a8c:	aa1803e0 	mov	x0, x24
  405a90:	a9417bfd 	ldp	x29, x30, [sp, #16]
  405a94:	a94253f3 	ldp	x19, x20, [sp, #32]
  405a98:	a9435bf5 	ldp	x21, x22, [sp, #48]
  405a9c:	a94463f7 	ldp	x23, x24, [sp, #64]
  405aa0:	a9456bf9 	ldp	x25, x26, [sp, #80]
  405aa4:	a94673fb 	ldp	x27, x28, [sp, #96]
  405aa8:	910943ff 	add	sp, sp, #0x250
  405aac:	d65f03c0 	ret
  405ab0:	9102a3a0 	add	x0, x29, #0xa8
  405ab4:	52800141 	mov	w1, #0xa                   	// #10
  405ab8:	9400428a 	bl	4164e0 <strchr>
  405abc:	b5fffc20 	cbnz	x0, 405a40 <read_alias_file+0x148>
  405ac0:	aa1403e2 	mov	x2, x20
  405ac4:	9102a3a0 	add	x0, x29, #0xa8
  405ac8:	52803201 	mov	w1, #0x190                 	// #400
  405acc:	9400173d 	bl	40b7c0 <__fgets_unlocked>
  405ad0:	b5ffff00 	cbnz	x0, 405ab0 <read_alias_file+0x1b8>
  405ad4:	17ffffdb 	b	405a40 <read_alias_file+0x148>
  405ad8:	39400661 	ldrb	w1, [x19, #1]
  405adc:	91000679 	add	x25, x19, #0x1
  405ae0:	35000061 	cbnz	w1, 405aec <read_alias_file+0x1f4>
  405ae4:	14000009 	b	405b08 <read_alias_file+0x210>
  405ae8:	34000101 	cbz	w1, 405b08 <read_alias_file+0x210>
  405aec:	d37f1c22 	ubfiz	x2, x1, #1, #8
  405af0:	aa1903e4 	mov	x4, x25
  405af4:	39400721 	ldrb	w1, [x25, #1]
  405af8:	91000739 	add	x25, x25, #0x1
  405afc:	78626862 	ldrh	w2, [x3, x2]
  405b00:	366fff42 	tbz	w2, #13, 405ae8 <read_alias_file+0x1f0>
  405b04:	3900009f 	strb	wzr, [x4]
  405b08:	d37f1c20 	ubfiz	x0, x1, #1, #8
  405b0c:	78606860 	ldrh	w0, [x3, x0]
  405b10:	366800c0 	tbz	w0, #13, 405b28 <read_alias_file+0x230>
  405b14:	d503201f 	nop
  405b18:	38401f21 	ldrb	w1, [x25, #1]!
  405b1c:	d37f1c22 	ubfiz	x2, x1, #1, #8
  405b20:	78626862 	ldrh	w2, [x3, x2]
