
coremark.exe:     file format elf64-littleaarch64


Disassembly of section .init:

0000000000400280 <_init>:
  400280:	a9bf7bfd 	stp	x29, x30, [sp, #-16]!
  400284:	910003fd 	mov	x29, sp
  400288:	940000c8 	bl	4005a8 <call_weak_fn>
  40028c:	a8c17bfd 	ldp	x29, x30, [sp], #16
  400290:	d65f03c0 	ret

Disassembly of section .plt:

00000000004002a0 <.plt>:
  4002a0:	d0000470 	adrp	x16, 48e000 <_GLOBAL_OFFSET_TABLE_+0xc8>
  4002a4:	f9400211 	ldr	x17, [x16]
  4002a8:	91000210 	add	x16, x16, #0x0
  4002ac:	d61f0220 	br	x17
  4002b0:	d0000470 	adrp	x16, 48e000 <_GLOBAL_OFFSET_TABLE_+0xc8>
  4002b4:	f9400611 	ldr	x17, [x16, #8]
  4002b8:	91002210 	add	x16, x16, #0x8
  4002bc:	d61f0220 	br	x17
  4002c0:	d0000470 	adrp	x16, 48e000 <_GLOBAL_OFFSET_TABLE_+0xc8>
  4002c4:	f9400a11 	ldr	x17, [x16, #16]
  4002c8:	91004210 	add	x16, x16, #0x10
  4002cc:	d61f0220 	br	x17
  4002d0:	d0000470 	adrp	x16, 48e000 <_GLOBAL_OFFSET_TABLE_+0xc8>
  4002d4:	f9400e11 	ldr	x17, [x16, #24]
  4002d8:	91006210 	add	x16, x16, #0x18
  4002dc:	d61f0220 	br	x17
  4002e0:	d0000470 	adrp	x16, 48e000 <_GLOBAL_OFFSET_TABLE_+0xc8>
  4002e4:	f9401211 	ldr	x17, [x16, #32]
  4002e8:	91008210 	add	x16, x16, #0x20
  4002ec:	d61f0220 	br	x17
  4002f0:	d0000470 	adrp	x16, 48e000 <_GLOBAL_OFFSET_TABLE_+0xc8>
  4002f4:	f9401611 	ldr	x17, [x16, #40]
  4002f8:	9100a210 	add	x16, x16, #0x28
  4002fc:	d61f0220 	br	x17
  400300:	d0000470 	adrp	x16, 48e000 <_GLOBAL_OFFSET_TABLE_+0xc8>
  400304:	f9401a11 	ldr	x17, [x16, #48]
  400308:	9100c210 	add	x16, x16, #0x30
  40030c:	d61f0220 	br	x17

Disassembly of section .text:

0000000000400340 <abort>:
  400340:	a9ac7bfd 	stp	x29, x30, [sp, #-320]!
  400344:	b0000460 	adrp	x0, 48d000 <__FRAME_END__+0x1034c>
  400348:	91268000 	add	x0, x0, #0x9a0
  40034c:	910003fd 	mov	x29, sp
  400350:	a90153f3 	stp	x19, x20, [sp, #16]
  400354:	f0000473 	adrp	x19, 48f000 <__progname_full>
  400358:	913fa273 	add	x19, x19, #0xfe8
  40035c:	f9400001 	ldr	x1, [x0]
  400360:	f9009fe1 	str	x1, [sp, #312]
  400364:	d2800001 	mov	x1, #0x0                   	// #0
  400368:	d53bd054 	mrs	x20, tpidr_el0
  40036c:	d11c0294 	sub	x20, x20, #0x700
  400370:	f9400660 	ldr	x0, [x19, #8]
  400374:	eb14001f 	cmp	x0, x20
  400378:	54000160 	b.eq	4003a4 <abort+0x64>  // b.none
  40037c:	52800020 	mov	w0, #0x1                   	// #1
  400380:	885ffe61 	ldaxr	w1, [x19]
  400384:	35000061 	cbnz	w1, 400390 <abort+0x50>
  400388:	88027e60 	stxr	w2, w0, [x19]
  40038c:	35ffffa2 	cbnz	w2, 400380 <abort+0x40>
  400390:	7100003f 	cmp	w1, #0x0
  400394:	54000060 	b.eq	4003a0 <abort+0x60>  // b.none
  400398:	aa1303e0 	mov	x0, x19
  40039c:	94005d5b 	bl	417908 <__lll_lock_wait_private>
  4003a0:	f9000674 	str	x20, [x19, #8]
  4003a4:	b9400660 	ldr	w0, [x19, #4]
  4003a8:	b9401261 	ldr	w1, [x19, #16]
  4003ac:	11000400 	add	w0, w0, #0x1
  4003b0:	b9000660 	str	w0, [x19, #4]
  4003b4:	35000201 	cbnz	w1, 4003f4 <abort+0xb4>
  4003b8:	910083e1 	add	x1, sp, #0x20
  4003bc:	52800022 	mov	w2, #0x1                   	// #1
  4003c0:	d2800200 	mov	x0, #0x10                  	// #16
  4003c4:	b9001262 	str	w2, [x19, #16]
  4003c8:	d1000400 	sub	x0, x0, #0x1
  4003cc:	b100041f 	cmn	x0, #0x1
  4003d0:	54000060 	b.eq	4003dc <abort+0x9c>  // b.none
  4003d4:	f820783f 	str	xzr, [x1, x0, lsl #3]
  4003d8:	17fffffc 	b	4003c8 <abort+0x88>
  4003dc:	f94013e3 	ldr	x3, [sp, #32]
  4003e0:	d2800002 	mov	x2, #0x0                   	// #0
  4003e4:	52800020 	mov	w0, #0x1                   	// #1
  4003e8:	b27b0063 	orr	x3, x3, #0x20
  4003ec:	f90013e3 	str	x3, [sp, #32]
  4003f0:	94002212 	bl	408c38 <__sigprocmask>
  4003f4:	b9401260 	ldr	w0, [x19, #16]
  4003f8:	7100041f 	cmp	w0, #0x1
  4003fc:	540004a1 	b.ne	400490 <abort+0x150>  // b.any
  400400:	b9400660 	ldr	w0, [x19, #4]
  400404:	b900127f 	str	wzr, [x19, #16]
  400408:	51000400 	sub	w0, w0, #0x1
  40040c:	b9000660 	str	w0, [x19, #4]
  400410:	350001a0 	cbnz	w0, 400444 <abort+0x104>
  400414:	f900067f 	str	xzr, [x19, #8]
  400418:	885f7e60 	ldxr	w0, [x19]
  40041c:	8801fe7f 	stlxr	w1, wzr, [x19]
  400420:	35ffffc1 	cbnz	w1, 400418 <abort+0xd8>
  400424:	7100041f 	cmp	w0, #0x1
  400428:	540000ed 	b.le	400444 <abort+0x104>
  40042c:	aa1303e0 	mov	x0, x19
  400430:	d2801021 	mov	x1, #0x81                  	// #129
  400434:	d2800022 	mov	x2, #0x1                   	// #1
  400438:	d2800003 	mov	x3, #0x0                   	// #0
  40043c:	d2800c48 	mov	x8, #0x62                  	// #98
  400440:	d4000001 	svc	#0x0
  400444:	528000c0 	mov	w0, #0x6                   	// #6
  400448:	940021b4 	bl	408b18 <raise>
  40044c:	f9400660 	ldr	x0, [x19, #8]
  400450:	eb14001f 	cmp	x0, x20
  400454:	54000160 	b.eq	400480 <abort+0x140>  // b.none
  400458:	52800020 	mov	w0, #0x1                   	// #1
  40045c:	885ffe61 	ldaxr	w1, [x19]
  400460:	35000061 	cbnz	w1, 40046c <abort+0x12c>
  400464:	88027e60 	stxr	w2, w0, [x19]
  400468:	35ffffa2 	cbnz	w2, 40045c <abort+0x11c>
  40046c:	7100003f 	cmp	w1, #0x0
  400470:	54000060 	b.eq	40047c <abort+0x13c>  // b.none
  400474:	aa1303e0 	mov	x0, x19
  400478:	94005d24 	bl	417908 <__lll_lock_wait_private>
  40047c:	f9000674 	str	x20, [x19, #8]
  400480:	b9400660 	ldr	w0, [x19, #4]
  400484:	11000400 	add	w0, w0, #0x1
  400488:	b9000660 	str	w0, [x19, #4]
  40048c:	14000003 	b	400498 <abort+0x158>
  400490:	7100081f 	cmp	w0, #0x2
  400494:	54000261 	b.ne	4004e0 <abort+0x1a0>  // b.any
  400498:	52800063 	mov	w3, #0x3                   	// #3
  40049c:	910283f4 	add	x20, sp, #0xa0
  4004a0:	52800001 	mov	w1, #0x0                   	// #0
  4004a4:	91002280 	add	x0, x20, #0x8
  4004a8:	d2801202 	mov	x2, #0x90                  	// #144
  4004ac:	b9001263 	str	w3, [x19, #16]
  4004b0:	97ffff88 	bl	4002d0 <.plt+0x30>
  4004b4:	f90053ff 	str	xzr, [sp, #160]
  4004b8:	d2800200 	mov	x0, #0x10                  	// #16
  4004bc:	92800001 	mov	x1, #0xffffffffffffffff    	// #-1
  4004c0:	f8207a81 	str	x1, [x20, x0, lsl #3]
  4004c4:	f1000400 	subs	x0, x0, #0x1
  4004c8:	54ffffc1 	b.ne	4004c0 <abort+0x180>  // b.any
  4004cc:	aa1403e1 	mov	x1, x20
  4004d0:	d2800002 	mov	x2, #0x0                   	// #0
  4004d4:	528000c0 	mov	w0, #0x6                   	// #6
  4004d8:	b9012bff 	str	wzr, [sp, #296]
  4004dc:	9400c48b 	bl	431708 <__sigaction>
  4004e0:	b9401260 	ldr	w0, [x19, #16]
  4004e4:	71000c1f 	cmp	w0, #0x3
  4004e8:	540000a1 	b.ne	4004fc <abort+0x1bc>  // b.any
  4004ec:	52800081 	mov	w1, #0x4                   	// #4
  4004f0:	528000c0 	mov	w0, #0x6                   	// #6
  4004f4:	b9001261 	str	w1, [x19, #16]
  4004f8:	94002188 	bl	408b18 <raise>
  4004fc:	b9401260 	ldr	w0, [x19, #16]
  400500:	7100101f 	cmp	w0, #0x4
  400504:	54000081 	b.ne	400514 <abort+0x1d4>  // b.any
  400508:	528000a0 	mov	w0, #0x5                   	// #5
  40050c:	b9001260 	str	w0, [x19, #16]
  400510:	d4207d00 	brk	#0x3e8
  400514:	b9401260 	ldr	w0, [x19, #16]
  400518:	7100141f 	cmp	w0, #0x5
  40051c:	540000a1 	b.ne	400530 <abort+0x1f0>  // b.any
  400520:	528000c1 	mov	w1, #0x6                   	// #6
  400524:	52800fe0 	mov	w0, #0x7f                  	// #127
  400528:	b9001261 	str	w1, [x19, #16]
  40052c:	940084a7 	bl	4217c8 <_exit>
  400530:	d4207d00 	brk	#0x3e8
  400534:	17ffffff 	b	400530 <abort+0x1f0>

0000000000400538 <_dl_start>:
  400538:	a9bf7bfd 	stp	x29, x30, [sp, #-16]!
  40053c:	910003fd 	mov	x29, sp
  400540:	97ffff80 	bl	400340 <abort>
  400544:	d503201f 	nop

0000000000400548 <fini>:
  400548:	90000480 	adrp	x0, 490000 <__abort_msg>
  40054c:	911bc000 	add	x0, x0, #0x6f0
  400550:	91008000 	add	x0, x0, #0x20
  400554:	14012af9 	b	44b138 <check_free.isra.0>

0000000000400558 <_start>:
  400558:	d280001d 	mov	x29, #0x0                   	// #0
  40055c:	d280001e 	mov	x30, #0x0                   	// #0
  400560:	aa0003e5 	mov	x5, x0
  400564:	f94003e1 	ldr	x1, [sp]
  400568:	910023e2 	add	x2, sp, #0x8
  40056c:	910003e6 	mov	x6, sp
  400570:	d2e00000 	movz	x0, #0x0, lsl #48
  400574:	f2c00000 	movk	x0, #0x0, lsl #32
  400578:	f2a00800 	movk	x0, #0x40, lsl #16
  40057c:	f282a380 	movk	x0, #0x151c
  400580:	d2e00003 	movz	x3, #0x0, lsl #48
  400584:	f2c00003 	movk	x3, #0x0, lsl #32
  400588:	f2a00803 	movk	x3, #0x40, lsl #16
  40058c:	f2889d03 	movk	x3, #0x44e8
  400590:	d2e00004 	movz	x4, #0x0, lsl #48
  400594:	f2c00004 	movk	x4, #0x0, lsl #32
  400598:	f2a00804 	movk	x4, #0x40, lsl #16
  40059c:	f288b604 	movk	x4, #0x45b0
  4005a0:	94000e1e 	bl	403e18 <__libc_start_main>
  4005a4:	97ffff67 	bl	400340 <abort>

00000000004005a8 <call_weak_fn>:
  4005a8:	b0000460 	adrp	x0, 48d000 <__FRAME_END__+0x1034c>
  4005ac:	f947f000 	ldr	x0, [x0, #4064]
  4005b0:	b4000040 	cbz	x0, 4005b8 <call_weak_fn+0x10>
  4005b4:	d503201f 	nop
  4005b8:	d65f03c0 	ret
  4005bc:	d503201f 	nop

00000000004005c0 <deregister_tm_clones>:
  4005c0:	f0000460 	adrp	x0, 48f000 <__progname_full>
  4005c4:	91296000 	add	x0, x0, #0xa58
  4005c8:	f0000461 	adrp	x1, 48f000 <__progname_full>
  4005cc:	91296021 	add	x1, x1, #0xa58
  4005d0:	eb00003f 	cmp	x1, x0
  4005d4:	540000c0 	b.eq	4005ec <deregister_tm_clones+0x2c>  // b.none
  4005d8:	b00002a1 	adrp	x1, 455000 <__gcc_personality_v0+0x240>
  4005dc:	f9468421 	ldr	x1, [x1, #3336]
  4005e0:	b4000061 	cbz	x1, 4005ec <deregister_tm_clones+0x2c>
  4005e4:	aa0103f0 	mov	x16, x1
  4005e8:	d61f0200 	br	x16
  4005ec:	d65f03c0 	ret

00000000004005f0 <register_tm_clones>:
  4005f0:	f0000460 	adrp	x0, 48f000 <__progname_full>
  4005f4:	91296000 	add	x0, x0, #0xa58
  4005f8:	f0000461 	adrp	x1, 48f000 <__progname_full>
  4005fc:	91296021 	add	x1, x1, #0xa58
  400600:	cb000021 	sub	x1, x1, x0
  400604:	d37ffc22 	lsr	x2, x1, #63
  400608:	8b810c41 	add	x1, x2, x1, asr #3
  40060c:	eb8107ff 	cmp	xzr, x1, asr #1
  400610:	9341fc21 	asr	x1, x1, #1
  400614:	540000c0 	b.eq	40062c <register_tm_clones+0x3c>  // b.none
  400618:	b00002a2 	adrp	x2, 455000 <__gcc_personality_v0+0x240>
  40061c:	f9468842 	ldr	x2, [x2, #3344]
  400620:	b4000062 	cbz	x2, 40062c <register_tm_clones+0x3c>
  400624:	aa0203f0 	mov	x16, x2
  400628:	d61f0200 	br	x16
  40062c:	d65f03c0 	ret

0000000000400630 <__do_global_dtors_aux>:
  400630:	a9be7bfd 	stp	x29, x30, [sp, #-32]!
  400634:	910003fd 	mov	x29, sp
  400638:	f9000bf3 	str	x19, [sp, #16]
  40063c:	f0000473 	adrp	x19, 48f000 <__progname_full>
  400640:	39696260 	ldrb	w0, [x19, #2648]
  400644:	35000140 	cbnz	w0, 40066c <__do_global_dtors_aux+0x3c>
  400648:	97ffffde 	bl	4005c0 <deregister_tm_clones>
  40064c:	b00002a0 	adrp	x0, 455000 <__gcc_personality_v0+0x240>
  400650:	f9468c00 	ldr	x0, [x0, #3352]
  400654:	b4000080 	cbz	x0, 400664 <__do_global_dtors_aux+0x34>
  400658:	d0000380 	adrp	x0, 472000 <__PRETTY_FUNCTION__.10494+0x1e8>
  40065c:	911c8000 	add	x0, x0, #0x720
  400660:	940150dc 	bl	4549d0 <__deregister_frame_info>
  400664:	52800020 	mov	w0, #0x1                   	// #1
  400668:	39296260 	strb	w0, [x19, #2648]
  40066c:	f9400bf3 	ldr	x19, [sp, #16]
  400670:	a8c27bfd 	ldp	x29, x30, [sp], #32
  400674:	d65f03c0 	ret

0000000000400678 <frame_dummy>:
  400678:	b00002a0 	adrp	x0, 455000 <__gcc_personality_v0+0x240>
  40067c:	f9469000 	ldr	x0, [x0, #3360]
  400680:	b4000140 	cbz	x0, 4006a8 <frame_dummy+0x30>
  400684:	a9bf7bfd 	stp	x29, x30, [sp, #-16]!
  400688:	f0000461 	adrp	x1, 48f000 <__progname_full>
  40068c:	d0000380 	adrp	x0, 472000 <__PRETTY_FUNCTION__.10494+0x1e8>
  400690:	910003fd 	mov	x29, sp
  400694:	91298021 	add	x1, x1, #0xa60
  400698:	911c8000 	add	x0, x0, #0x720
  40069c:	9401502b 	bl	454748 <__register_frame_info>
  4006a0:	a8c17bfd 	ldp	x29, x30, [sp], #16
  4006a4:	17ffffd3 	b	4005f0 <register_tm_clones>
  4006a8:	17ffffd2 	b	4005f0 <register_tm_clones>

00000000004006ac <calc_func>:
  4006ac:	a9bd7bfd 	stp	x29, x30, [sp, #-48]!
  4006b0:	910003fd 	mov	x29, sp
  4006b4:	f9000fe0 	str	x0, [sp, #24]
  4006b8:	f9000be1 	str	x1, [sp, #16]
  4006bc:	f9400fe0 	ldr	x0, [sp, #24]
  4006c0:	79400000 	ldrh	w0, [x0]
  4006c4:	79005be0 	strh	w0, [sp, #44]
  4006c8:	79c05be0 	ldrsh	w0, [sp, #44]
  4006cc:	13077c00 	asr	w0, w0, #7
  4006d0:	13003c00 	sxth	w0, w0
  4006d4:	12001c00 	and	w0, w0, #0xff
  4006d8:	12000000 	and	w0, w0, #0x1
  4006dc:	39009fe0 	strb	w0, [sp, #39]
  4006e0:	39409fe0 	ldrb	w0, [sp, #39]
  4006e4:	7100001f 	cmp	w0, #0x0
  4006e8:	540000a0 	b.eq	4006fc <calc_func+0x50>  // b.none
  4006ec:	79405be0 	ldrh	w0, [sp, #44]
  4006f0:	12001800 	and	w0, w0, #0x7f
  4006f4:	13003c00 	sxth	w0, w0
  4006f8:	14000061 	b	40087c <calc_func+0x1d0>
  4006fc:	79405be0 	ldrh	w0, [sp, #44]
  400700:	12000800 	and	w0, w0, #0x7
  400704:	79005fe0 	strh	w0, [sp, #46]
  400708:	79c05be0 	ldrsh	w0, [sp, #44]
  40070c:	13037c00 	asr	w0, w0, #3
  400710:	13003c00 	sxth	w0, w0
  400714:	12000c00 	and	w0, w0, #0xf
  400718:	790057e0 	strh	w0, [sp, #42]
  40071c:	79c057e0 	ldrsh	w0, [sp, #42]
  400720:	531c6c00 	lsl	w0, w0, #4
  400724:	13003c01 	sxth	w1, w0
  400728:	794057e0 	ldrh	w0, [sp, #42]
  40072c:	2a000020 	orr	w0, w1, w0
  400730:	790057e0 	strh	w0, [sp, #42]
  400734:	79c05fe0 	ldrsh	w0, [sp, #46]
  400738:	7100001f 	cmp	w0, #0x0
  40073c:	54000080 	b.eq	40074c <calc_func+0xa0>  // b.none
  400740:	7100041f 	cmp	w0, #0x1
  400744:	540003e0 	b.eq	4007c0 <calc_func+0x114>  // b.none
  400748:	14000030 	b	400808 <calc_func+0x15c>
  40074c:	79c057e0 	ldrsh	w0, [sp, #42]
  400750:	7100841f 	cmp	w0, #0x21
  400754:	5400006c 	b.gt	400760 <calc_func+0xb4>
  400758:	52800440 	mov	w0, #0x22                  	// #34
  40075c:	790057e0 	strh	w0, [sp, #42]
  400760:	f9400be0 	ldr	x0, [sp, #16]
  400764:	b9402806 	ldr	w6, [x0, #40]
  400768:	f9400be0 	ldr	x0, [sp, #16]
  40076c:	f9401001 	ldr	x1, [x0, #32]
  400770:	f9400be0 	ldr	x0, [sp, #16]
  400774:	79c00002 	ldrsh	w2, [x0]
  400778:	f9400be0 	ldr	x0, [sp, #16]
  40077c:	79c00403 	ldrsh	w3, [x0, #2]
  400780:	f9400be0 	ldr	x0, [sp, #16]
  400784:	7940c000 	ldrh	w0, [x0, #96]
  400788:	2a0003e5 	mov	w5, w0
  40078c:	794057e4 	ldrh	w4, [sp, #42]
  400790:	2a0603e0 	mov	w0, w6
  400794:	94000a08 	bl	402fb4 <core_bench_state>
  400798:	12003c00 	and	w0, w0, #0xffff
  40079c:	790053e0 	strh	w0, [sp, #40]
  4007a0:	f9400be0 	ldr	x0, [sp, #16]
  4007a4:	7940cc00 	ldrh	w0, [x0, #102]
  4007a8:	7100001f 	cmp	w0, #0x0
  4007ac:	54000341 	b.ne	400814 <calc_func+0x168>  // b.any
  4007b0:	794053e1 	ldrh	w1, [sp, #40]
  4007b4:	f9400be0 	ldr	x0, [sp, #16]
  4007b8:	7900cc01 	strh	w1, [x0, #102]
  4007bc:	14000016 	b	400814 <calc_func+0x168>
  4007c0:	f9400be0 	ldr	x0, [sp, #16]
  4007c4:	91010003 	add	x3, x0, #0x40
  4007c8:	f9400be0 	ldr	x0, [sp, #16]
  4007cc:	7940c000 	ldrh	w0, [x0, #96]
  4007d0:	2a0003e2 	mov	w2, w0
  4007d4:	794057e1 	ldrh	w1, [sp, #42]
  4007d8:	aa0303e0 	mov	x0, x3
  4007dc:	94000764 	bl	40256c <core_bench_matrix>
  4007e0:	12003c00 	and	w0, w0, #0xffff
  4007e4:	790053e0 	strh	w0, [sp, #40]
  4007e8:	f9400be0 	ldr	x0, [sp, #16]
  4007ec:	7940c800 	ldrh	w0, [x0, #100]
  4007f0:	7100001f 	cmp	w0, #0x0
  4007f4:	54000141 	b.ne	40081c <calc_func+0x170>  // b.any
  4007f8:	794053e1 	ldrh	w1, [sp, #40]
  4007fc:	f9400be0 	ldr	x0, [sp, #16]
  400800:	7900c801 	strh	w1, [x0, #100]
  400804:	14000006 	b	40081c <calc_func+0x170>
  400808:	79405be0 	ldrh	w0, [sp, #44]
  40080c:	790053e0 	strh	w0, [sp, #40]
  400810:	14000004 	b	400820 <calc_func+0x174>
  400814:	d503201f 	nop
  400818:	14000002 	b	400820 <calc_func+0x174>
  40081c:	d503201f 	nop
  400820:	794053e2 	ldrh	w2, [sp, #40]
  400824:	f9400be0 	ldr	x0, [sp, #16]
  400828:	7940c000 	ldrh	w0, [x0, #96]
  40082c:	2a0003e1 	mov	w1, w0
  400830:	2a0203e0 	mov	w0, w2
  400834:	94000cdd 	bl	403ba8 <crcu16>
  400838:	12003c01 	and	w1, w0, #0xffff
  40083c:	f9400be0 	ldr	x0, [sp, #16]
  400840:	7900c001 	strh	w1, [x0, #96]
  400844:	794053e0 	ldrh	w0, [sp, #40]
  400848:	12001800 	and	w0, w0, #0x7f
  40084c:	790053e0 	strh	w0, [sp, #40]
  400850:	79405be0 	ldrh	w0, [sp, #44]
  400854:	12185c00 	and	w0, w0, #0xffffff00
  400858:	13003c00 	sxth	w0, w0
  40085c:	32190000 	orr	w0, w0, #0x80
  400860:	13003c01 	sxth	w1, w0
  400864:	794053e0 	ldrh	w0, [sp, #40]
  400868:	2a000020 	orr	w0, w1, w0
  40086c:	13003c01 	sxth	w1, w0
  400870:	f9400fe0 	ldr	x0, [sp, #24]
  400874:	79000001 	strh	w1, [x0]
  400878:	79c053e0 	ldrsh	w0, [sp, #40]
  40087c:	a8c37bfd 	ldp	x29, x30, [sp], #48
  400880:	d65f03c0 	ret

0000000000400884 <cmp_complex>:
  400884:	a9bc7bfd 	stp	x29, x30, [sp, #-64]!
  400888:	910003fd 	mov	x29, sp
  40088c:	f90017e0 	str	x0, [sp, #40]
  400890:	f90013e1 	str	x1, [sp, #32]
  400894:	f9000fe2 	str	x2, [sp, #24]
  400898:	f94017e0 	ldr	x0, [sp, #40]
  40089c:	f9400fe1 	ldr	x1, [sp, #24]
  4008a0:	97ffff83 	bl	4006ac <calc_func>
  4008a4:	79007be0 	strh	w0, [sp, #60]
  4008a8:	f94013e0 	ldr	x0, [sp, #32]
  4008ac:	f9400fe1 	ldr	x1, [sp, #24]
  4008b0:	97ffff7f 	bl	4006ac <calc_func>
  4008b4:	79007fe0 	strh	w0, [sp, #62]
  4008b8:	79c07be1 	ldrsh	w1, [sp, #60]
  4008bc:	79c07fe0 	ldrsh	w0, [sp, #62]
  4008c0:	4b000020 	sub	w0, w1, w0
  4008c4:	a8c47bfd 	ldp	x29, x30, [sp], #64
  4008c8:	d65f03c0 	ret

00000000004008cc <cmp_idx>:
  4008cc:	d10083ff 	sub	sp, sp, #0x20
  4008d0:	f9000fe0 	str	x0, [sp, #24]
  4008d4:	f9000be1 	str	x1, [sp, #16]
  4008d8:	f90007e2 	str	x2, [sp, #8]
  4008dc:	f94007e0 	ldr	x0, [sp, #8]
  4008e0:	f100001f 	cmp	x0, #0x0
  4008e4:	540003a1 	b.ne	400958 <cmp_idx+0x8c>  // b.any
  4008e8:	f9400fe0 	ldr	x0, [sp, #24]
  4008ec:	79c00000 	ldrsh	w0, [x0]
  4008f0:	12185c00 	and	w0, w0, #0xffffff00
  4008f4:	13003c01 	sxth	w1, w0
  4008f8:	f9400fe0 	ldr	x0, [sp, #24]
  4008fc:	79c00000 	ldrsh	w0, [x0]
  400900:	12003c00 	and	w0, w0, #0xffff
  400904:	53087c00 	lsr	w0, w0, #8
  400908:	12003c00 	and	w0, w0, #0xffff
  40090c:	13003c00 	sxth	w0, w0
  400910:	2a000020 	orr	w0, w1, w0
  400914:	13003c01 	sxth	w1, w0
  400918:	f9400fe0 	ldr	x0, [sp, #24]
  40091c:	79000001 	strh	w1, [x0]
  400920:	f9400be0 	ldr	x0, [sp, #16]
  400924:	79c00000 	ldrsh	w0, [x0]
  400928:	12185c00 	and	w0, w0, #0xffffff00
  40092c:	13003c01 	sxth	w1, w0
  400930:	f9400be0 	ldr	x0, [sp, #16]
  400934:	79c00000 	ldrsh	w0, [x0]
  400938:	12003c00 	and	w0, w0, #0xffff
  40093c:	53087c00 	lsr	w0, w0, #8
  400940:	12003c00 	and	w0, w0, #0xffff
  400944:	13003c00 	sxth	w0, w0
  400948:	2a000020 	orr	w0, w1, w0
  40094c:	13003c01 	sxth	w1, w0
  400950:	f9400be0 	ldr	x0, [sp, #16]
  400954:	79000001 	strh	w1, [x0]
  400958:	f9400fe0 	ldr	x0, [sp, #24]
  40095c:	79c00400 	ldrsh	w0, [x0, #2]
  400960:	2a0003e1 	mov	w1, w0
  400964:	f9400be0 	ldr	x0, [sp, #16]
  400968:	79c00400 	ldrsh	w0, [x0, #2]
  40096c:	4b000020 	sub	w0, w1, w0
  400970:	910083ff 	add	sp, sp, #0x20
  400974:	d65f03c0 	ret

0000000000400978 <copy_info>:
  400978:	d10043ff 	sub	sp, sp, #0x10
  40097c:	f90007e0 	str	x0, [sp, #8]
  400980:	f90003e1 	str	x1, [sp]
  400984:	f94003e0 	ldr	x0, [sp]
  400988:	79c00001 	ldrsh	w1, [x0]
  40098c:	f94007e0 	ldr	x0, [sp, #8]
  400990:	79000001 	strh	w1, [x0]
  400994:	f94003e0 	ldr	x0, [sp]
  400998:	79c00401 	ldrsh	w1, [x0, #2]
  40099c:	f94007e0 	ldr	x0, [sp, #8]
  4009a0:	79000401 	strh	w1, [x0, #2]
  4009a4:	d503201f 	nop
  4009a8:	910043ff 	add	sp, sp, #0x10
  4009ac:	d65f03c0 	ret

00000000004009b0 <core_bench_list>:
  4009b0:	a9ba7bfd 	stp	x29, x30, [sp, #-96]!
  4009b4:	910003fd 	mov	x29, sp
  4009b8:	f9000fe0 	str	x0, [sp, #24]
  4009bc:	79002fe1 	strh	w1, [sp, #22]
  4009c0:	b0000460 	adrp	x0, 48d000 <__FRAME_END__+0x1034c>
  4009c4:	f947a400 	ldr	x0, [x0, #3912]
  4009c8:	f9400001 	ldr	x1, [x0]
  4009cc:	f9002fe1 	str	x1, [sp, #88]
  4009d0:	d2800001 	mov	x1, #0x0                   	// #0
  4009d4:	79004fff 	strh	wzr, [sp, #38]
  4009d8:	790053ff 	strh	wzr, [sp, #40]
  4009dc:	790057ff 	strh	wzr, [sp, #42]
  4009e0:	f9400fe0 	ldr	x0, [sp, #24]
  4009e4:	f9401c00 	ldr	x0, [x0, #56]
  4009e8:	f9001fe0 	str	x0, [sp, #56]
  4009ec:	f9400fe0 	ldr	x0, [sp, #24]
  4009f0:	79400800 	ldrh	w0, [x0, #4]
  4009f4:	79005fe0 	strh	w0, [sp, #46]
  4009f8:	79402fe0 	ldrh	w0, [sp, #22]
  4009fc:	790067e0 	strh	w0, [sp, #50]
  400a00:	79005bff 	strh	wzr, [sp, #44]
  400a04:	14000055 	b	400b58 <core_bench_list+0x1a8>
  400a08:	79405be0 	ldrh	w0, [sp, #44]
  400a0c:	12001c00 	and	w0, w0, #0xff
  400a10:	13003c00 	sxth	w0, w0
  400a14:	790063e0 	strh	w0, [sp, #48]
  400a18:	9100c3e0 	add	x0, sp, #0x30
  400a1c:	aa0003e1 	mov	x1, x0
  400a20:	f9401fe0 	ldr	x0, [sp, #56]
  400a24:	940001bf 	bl	401120 <core_list_find>
  400a28:	f9002be0 	str	x0, [sp, #80]
  400a2c:	f9401fe0 	ldr	x0, [sp, #56]
  400a30:	940001e5 	bl	4011c4 <core_list_reverse>
  400a34:	f9001fe0 	str	x0, [sp, #56]
  400a38:	f9402be0 	ldr	x0, [sp, #80]
  400a3c:	f100001f 	cmp	x0, #0x0
  400a40:	54000221 	b.ne	400a84 <core_bench_list+0xd4>  // b.any
  400a44:	794057e0 	ldrh	w0, [sp, #42]
  400a48:	11000400 	add	w0, w0, #0x1
  400a4c:	790057e0 	strh	w0, [sp, #42]
  400a50:	f9401fe0 	ldr	x0, [sp, #56]
  400a54:	f9400000 	ldr	x0, [x0]
  400a58:	f9400400 	ldr	x0, [x0, #8]
  400a5c:	79c00000 	ldrsh	w0, [x0]
  400a60:	13087c00 	asr	w0, w0, #8
  400a64:	13003c00 	sxth	w0, w0
  400a68:	12003c00 	and	w0, w0, #0xffff
  400a6c:	12000000 	and	w0, w0, #0x1
  400a70:	12003c00 	and	w0, w0, #0xffff
  400a74:	79404fe1 	ldrh	w1, [sp, #38]
  400a78:	0b010000 	add	w0, w0, w1
  400a7c:	79004fe0 	strh	w0, [sp, #38]
  400a80:	14000028 	b	400b20 <core_bench_list+0x170>
  400a84:	794053e0 	ldrh	w0, [sp, #40]
  400a88:	11000400 	add	w0, w0, #0x1
  400a8c:	790053e0 	strh	w0, [sp, #40]
  400a90:	f9402be0 	ldr	x0, [sp, #80]
  400a94:	f9400400 	ldr	x0, [x0, #8]
  400a98:	79c00000 	ldrsh	w0, [x0]
  400a9c:	12003c00 	and	w0, w0, #0xffff
  400aa0:	12000000 	and	w0, w0, #0x1
  400aa4:	7100001f 	cmp	w0, #0x0
  400aa8:	54000180 	b.eq	400ad8 <core_bench_list+0x128>  // b.none
  400aac:	f9402be0 	ldr	x0, [sp, #80]
  400ab0:	f9400400 	ldr	x0, [x0, #8]
  400ab4:	79c00000 	ldrsh	w0, [x0]
  400ab8:	13097c00 	asr	w0, w0, #9
  400abc:	13003c00 	sxth	w0, w0
  400ac0:	12003c00 	and	w0, w0, #0xffff
  400ac4:	12000000 	and	w0, w0, #0x1
  400ac8:	12003c00 	and	w0, w0, #0xffff
  400acc:	79404fe1 	ldrh	w1, [sp, #38]
  400ad0:	0b010000 	add	w0, w0, w1
  400ad4:	79004fe0 	strh	w0, [sp, #38]
  400ad8:	f9402be0 	ldr	x0, [sp, #80]
  400adc:	f9400000 	ldr	x0, [x0]
  400ae0:	f100001f 	cmp	x0, #0x0
  400ae4:	540001e0 	b.eq	400b20 <core_bench_list+0x170>  // b.none
  400ae8:	f9402be0 	ldr	x0, [sp, #80]
  400aec:	f9400000 	ldr	x0, [x0]
  400af0:	f90023e0 	str	x0, [sp, #64]
  400af4:	f94023e0 	ldr	x0, [sp, #64]
  400af8:	f9400001 	ldr	x1, [x0]
  400afc:	f9402be0 	ldr	x0, [sp, #80]
  400b00:	f9000001 	str	x1, [x0]
  400b04:	f9401fe0 	ldr	x0, [sp, #56]
  400b08:	f9400001 	ldr	x1, [x0]
  400b0c:	f94023e0 	ldr	x0, [sp, #64]
  400b10:	f9000001 	str	x1, [x0]
  400b14:	f9401fe0 	ldr	x0, [sp, #56]
  400b18:	f94023e1 	ldr	x1, [sp, #64]
  400b1c:	f9000001 	str	x1, [x0]
  400b20:	79c067e0 	ldrsh	w0, [sp, #50]
  400b24:	7100001f 	cmp	w0, #0x0
  400b28:	540000eb 	b.lt	400b44 <core_bench_list+0x194>  // b.tstop
  400b2c:	79c067e0 	ldrsh	w0, [sp, #50]
  400b30:	12003c00 	and	w0, w0, #0xffff
  400b34:	11000400 	add	w0, w0, #0x1
  400b38:	12003c00 	and	w0, w0, #0xffff
  400b3c:	13003c00 	sxth	w0, w0
  400b40:	790067e0 	strh	w0, [sp, #50]
  400b44:	79c05be0 	ldrsh	w0, [sp, #44]
  400b48:	12003c00 	and	w0, w0, #0xffff
  400b4c:	11000400 	add	w0, w0, #0x1
  400b50:	12003c00 	and	w0, w0, #0xffff
  400b54:	79005be0 	strh	w0, [sp, #44]
  400b58:	79c05be1 	ldrsh	w1, [sp, #44]
  400b5c:	79c05fe0 	ldrsh	w0, [sp, #46]
  400b60:	6b00003f 	cmp	w1, w0
  400b64:	54fff52b 	b.lt	400a08 <core_bench_list+0x58>  // b.tstop
  400b68:	794053e0 	ldrh	w0, [sp, #40]
  400b6c:	531e3400 	ubfiz	w0, w0, #2, #14
  400b70:	12003c01 	and	w1, w0, #0xffff
  400b74:	794057e0 	ldrh	w0, [sp, #42]
  400b78:	4b000020 	sub	w0, w1, w0
  400b7c:	12003c00 	and	w0, w0, #0xffff
  400b80:	79404fe1 	ldrh	w1, [sp, #38]
  400b84:	0b010000 	add	w0, w0, w1
  400b88:	79004fe0 	strh	w0, [sp, #38]
  400b8c:	79c02fe0 	ldrsh	w0, [sp, #22]
  400b90:	7100001f 	cmp	w0, #0x0
  400b94:	540000ed 	b.le	400bb0 <core_bench_list+0x200>
  400b98:	f9400fe2 	ldr	x2, [sp, #24]
  400b9c:	90000000 	adrp	x0, 400000 <__ehdr_start>
  400ba0:	91221001 	add	x1, x0, #0x884
  400ba4:	f9401fe0 	ldr	x0, [sp, #56]
  400ba8:	9400019b 	bl	401214 <core_list_mergesort>
  400bac:	f9001fe0 	str	x0, [sp, #56]
  400bb0:	f9401fe0 	ldr	x0, [sp, #56]
  400bb4:	f9400000 	ldr	x0, [x0]
  400bb8:	9400012a 	bl	401060 <core_list_remove>
  400bbc:	f90027e0 	str	x0, [sp, #72]
  400bc0:	9100c3e0 	add	x0, sp, #0x30
  400bc4:	aa0003e1 	mov	x1, x0
  400bc8:	f9401fe0 	ldr	x0, [sp, #56]
  400bcc:	94000155 	bl	401120 <core_list_find>
  400bd0:	f90023e0 	str	x0, [sp, #64]
  400bd4:	f94023e0 	ldr	x0, [sp, #64]
  400bd8:	f100001f 	cmp	x0, #0x0
  400bdc:	540001c1 	b.ne	400c14 <core_bench_list+0x264>  // b.any
  400be0:	f9401fe0 	ldr	x0, [sp, #56]
  400be4:	f9400000 	ldr	x0, [x0]
  400be8:	f90023e0 	str	x0, [sp, #64]
  400bec:	1400000a 	b	400c14 <core_bench_list+0x264>
  400bf0:	f9401fe0 	ldr	x0, [sp, #56]
  400bf4:	f9400400 	ldr	x0, [x0, #8]
  400bf8:	79c00000 	ldrsh	w0, [x0]
  400bfc:	79404fe1 	ldrh	w1, [sp, #38]
  400c00:	94000c0f 	bl	403c3c <crc16>
  400c04:	79004fe0 	strh	w0, [sp, #38]
  400c08:	f94023e0 	ldr	x0, [sp, #64]
  400c0c:	f9400000 	ldr	x0, [x0]
  400c10:	f90023e0 	str	x0, [sp, #64]
  400c14:	f94023e0 	ldr	x0, [sp, #64]
  400c18:	f100001f 	cmp	x0, #0x0
  400c1c:	54fffea1 	b.ne	400bf0 <core_bench_list+0x240>  // b.any
  400c20:	f9401fe0 	ldr	x0, [sp, #56]
  400c24:	f9400000 	ldr	x0, [x0]
  400c28:	aa0003e1 	mov	x1, x0
  400c2c:	f94027e0 	ldr	x0, [sp, #72]
  400c30:	94000125 	bl	4010c4 <core_list_undo_remove>
  400c34:	f90027e0 	str	x0, [sp, #72]
  400c38:	d2800002 	mov	x2, #0x0                   	// #0
  400c3c:	90000000 	adrp	x0, 400000 <__ehdr_start>
  400c40:	91233001 	add	x1, x0, #0x8cc
  400c44:	f9401fe0 	ldr	x0, [sp, #56]
  400c48:	94000173 	bl	401214 <core_list_mergesort>
  400c4c:	f9001fe0 	str	x0, [sp, #56]
  400c50:	f9401fe0 	ldr	x0, [sp, #56]
  400c54:	f9400000 	ldr	x0, [x0]
  400c58:	f90023e0 	str	x0, [sp, #64]
  400c5c:	1400000a 	b	400c84 <core_bench_list+0x2d4>
  400c60:	f9401fe0 	ldr	x0, [sp, #56]
  400c64:	f9400400 	ldr	x0, [x0, #8]
  400c68:	79c00000 	ldrsh	w0, [x0]
  400c6c:	79404fe1 	ldrh	w1, [sp, #38]
  400c70:	94000bf3 	bl	403c3c <crc16>
  400c74:	79004fe0 	strh	w0, [sp, #38]
  400c78:	f94023e0 	ldr	x0, [sp, #64]
  400c7c:	f9400000 	ldr	x0, [x0]
  400c80:	f90023e0 	str	x0, [sp, #64]
  400c84:	f94023e0 	ldr	x0, [sp, #64]
  400c88:	f100001f 	cmp	x0, #0x0
  400c8c:	54fffea1 	b.ne	400c60 <core_bench_list+0x2b0>  // b.any
  400c90:	79404fe0 	ldrh	w0, [sp, #38]
  400c94:	2a0003e1 	mov	w1, w0
  400c98:	b0000460 	adrp	x0, 48d000 <__FRAME_END__+0x1034c>
  400c9c:	f947a400 	ldr	x0, [x0, #3912]
  400ca0:	f9402fe2 	ldr	x2, [sp, #88]
  400ca4:	f9400003 	ldr	x3, [x0]
  400ca8:	eb030042 	subs	x2, x2, x3
  400cac:	d2800003 	mov	x3, #0x0                   	// #0
  400cb0:	54000040 	b.eq	400cb8 <core_bench_list+0x308>  // b.none
  400cb4:	94008d2b 	bl	424160 <__stack_chk_fail>
  400cb8:	2a0103e0 	mov	w0, w1
  400cbc:	a8c67bfd 	ldp	x29, x30, [sp], #96
  400cc0:	d65f03c0 	ret

0000000000400cc4 <core_list_init>:
  400cc4:	a9b97bfd 	stp	x29, x30, [sp, #-112]!
  400cc8:	910003fd 	mov	x29, sp
  400ccc:	b9001fe0 	str	w0, [sp, #28]
  400cd0:	f9000be1 	str	x1, [sp, #16]
  400cd4:	790037e2 	strh	w2, [sp, #26]
  400cd8:	b0000460 	adrp	x0, 48d000 <__FRAME_END__+0x1034c>
  400cdc:	f947a400 	ldr	x0, [x0, #3912]
  400ce0:	f9400001 	ldr	x1, [x0]
  400ce4:	f90037e1 	str	x1, [sp, #104]
  400ce8:	d2800001 	mov	x1, #0x0                   	// #0
  400cec:	52800280 	mov	w0, #0x14                  	// #20
  400cf0:	b9003be0 	str	w0, [sp, #56]
  400cf4:	b9401fe1 	ldr	w1, [sp, #28]
  400cf8:	b9403be0 	ldr	w0, [sp, #56]
  400cfc:	1ac00820 	udiv	w0, w1, w0
  400d00:	51000800 	sub	w0, w0, #0x2
  400d04:	b9003fe0 	str	w0, [sp, #60]
  400d08:	f9400be1 	ldr	x1, [sp, #16]
  400d0c:	b9403fe0 	ldr	w0, [sp, #60]
  400d10:	d37cec00 	lsl	x0, x0, #4
  400d14:	8b000020 	add	x0, x1, x0
  400d18:	f9002be0 	str	x0, [sp, #80]
  400d1c:	f9402be0 	ldr	x0, [sp, #80]
  400d20:	f90023e0 	str	x0, [sp, #64]
  400d24:	f94023e1 	ldr	x1, [sp, #64]
  400d28:	b9403fe0 	ldr	w0, [sp, #60]
  400d2c:	d37ef400 	lsl	x0, x0, #2
  400d30:	8b000020 	add	x0, x1, x0
  400d34:	f9002fe0 	str	x0, [sp, #88]
  400d38:	f9400be0 	ldr	x0, [sp, #16]
  400d3c:	f90033e0 	str	x0, [sp, #96]
  400d40:	f94033e0 	ldr	x0, [sp, #96]
  400d44:	f900001f 	str	xzr, [x0]
  400d48:	f94023e1 	ldr	x1, [sp, #64]
  400d4c:	f94033e0 	ldr	x0, [sp, #96]
  400d50:	f9000401 	str	x1, [x0, #8]
  400d54:	f94033e0 	ldr	x0, [sp, #96]
  400d58:	f9400400 	ldr	x0, [x0, #8]
  400d5c:	7900041f 	strh	wzr, [x0, #2]
  400d60:	f94033e0 	ldr	x0, [sp, #96]
  400d64:	f9400400 	ldr	x0, [x0, #8]
  400d68:	128fefe1 	mov	w1, #0xffff8080            	// #-32640
  400d6c:	79000001 	strh	w1, [x0]
  400d70:	f9400be0 	ldr	x0, [sp, #16]
  400d74:	91004000 	add	x0, x0, #0x10
  400d78:	f9000be0 	str	x0, [sp, #16]
  400d7c:	f94023e0 	ldr	x0, [sp, #64]
  400d80:	91001000 	add	x0, x0, #0x4
  400d84:	f90023e0 	str	x0, [sp, #64]
  400d88:	528fffe0 	mov	w0, #0x7fff                	// #32767
  400d8c:	790067e0 	strh	w0, [sp, #50]
  400d90:	12800000 	mov	w0, #0xffffffff            	// #-1
  400d94:	790063e0 	strh	w0, [sp, #48]
  400d98:	910103e2 	add	x2, sp, #0x40
  400d9c:	910043e1 	add	x1, sp, #0x10
  400da0:	9100c3e0 	add	x0, sp, #0x30
  400da4:	f9402fe5 	ldr	x5, [sp, #88]
  400da8:	f9402be4 	ldr	x4, [sp, #80]
  400dac:	aa0203e3 	mov	x3, x2
  400db0:	aa0103e2 	mov	x2, x1
  400db4:	aa0003e1 	mov	x1, x0
  400db8:	f94033e0 	ldr	x0, [sp, #96]
  400dbc:	94000072 	bl	400f84 <core_list_insert_new>
  400dc0:	b90037ff 	str	wzr, [sp, #52]
  400dc4:	14000025 	b	400e58 <core_list_init+0x194>
  400dc8:	b94037e0 	ldr	w0, [sp, #52]
  400dcc:	12003c01 	and	w1, w0, #0xffff
  400dd0:	794037e0 	ldrh	w0, [sp, #26]
  400dd4:	4a000020 	eor	w0, w1, w0
  400dd8:	12003c00 	and	w0, w0, #0xffff
  400ddc:	12000c00 	and	w0, w0, #0xf
  400de0:	79005be0 	strh	w0, [sp, #44]
  400de4:	79405be0 	ldrh	w0, [sp, #44]
  400de8:	531d3000 	ubfiz	w0, w0, #3, #13
  400dec:	12003c01 	and	w1, w0, #0xffff
  400df0:	b94037e0 	ldr	w0, [sp, #52]
  400df4:	12003c00 	and	w0, w0, #0xffff
  400df8:	12000800 	and	w0, w0, #0x7
  400dfc:	12003c00 	and	w0, w0, #0xffff
  400e00:	2a000020 	orr	w0, w1, w0
  400e04:	79005fe0 	strh	w0, [sp, #46]
  400e08:	79405fe0 	ldrh	w0, [sp, #46]
  400e0c:	53185c00 	lsl	w0, w0, #8
  400e10:	13003c01 	sxth	w1, w0
  400e14:	79c05fe0 	ldrsh	w0, [sp, #46]
  400e18:	2a000020 	orr	w0, w1, w0
  400e1c:	13003c00 	sxth	w0, w0
  400e20:	790063e0 	strh	w0, [sp, #48]
  400e24:	910103e2 	add	x2, sp, #0x40
  400e28:	910043e1 	add	x1, sp, #0x10
  400e2c:	9100c3e0 	add	x0, sp, #0x30
  400e30:	f9402fe5 	ldr	x5, [sp, #88]
  400e34:	f9402be4 	ldr	x4, [sp, #80]
  400e38:	aa0203e3 	mov	x3, x2
  400e3c:	aa0103e2 	mov	x2, x1
  400e40:	aa0003e1 	mov	x1, x0
  400e44:	f94033e0 	ldr	x0, [sp, #96]
  400e48:	9400004f 	bl	400f84 <core_list_insert_new>
  400e4c:	b94037e0 	ldr	w0, [sp, #52]
  400e50:	11000400 	add	w0, w0, #0x1
  400e54:	b90037e0 	str	w0, [sp, #52]
  400e58:	b94037e1 	ldr	w1, [sp, #52]
  400e5c:	b9403fe0 	ldr	w0, [sp, #60]
  400e60:	6b00003f 	cmp	w1, w0
  400e64:	54fffb23 	b.cc	400dc8 <core_list_init+0x104>  // b.lo, b.ul, b.last
  400e68:	f94033e0 	ldr	x0, [sp, #96]
  400e6c:	f9400000 	ldr	x0, [x0]
  400e70:	f90027e0 	str	x0, [sp, #72]
  400e74:	52800020 	mov	w0, #0x1                   	// #1
  400e78:	b90037e0 	str	w0, [sp, #52]
  400e7c:	1400002b 	b	400f28 <core_list_init+0x264>
  400e80:	b9403fe1 	ldr	w1, [sp, #60]
  400e84:	529999a0 	mov	w0, #0xcccd                	// #52429
  400e88:	72b99980 	movk	w0, #0xcccc, lsl #16
  400e8c:	9ba07c20 	umull	x0, w1, w0
  400e90:	d360fc00 	lsr	x0, x0, #32
  400e94:	53027c00 	lsr	w0, w0, #2
  400e98:	b94037e1 	ldr	w1, [sp, #52]
  400e9c:	6b00003f 	cmp	w1, w0
  400ea0:	54000122 	b.cs	400ec4 <core_list_init+0x200>  // b.hs, b.nlast
  400ea4:	b94037e0 	ldr	w0, [sp, #52]
  400ea8:	11000401 	add	w1, w0, #0x1
  400eac:	b90037e1 	str	w1, [sp, #52]
  400eb0:	f94027e1 	ldr	x1, [sp, #72]
  400eb4:	f9400421 	ldr	x1, [x1, #8]
  400eb8:	13003c00 	sxth	w0, w0
  400ebc:	79000420 	strh	w0, [x1, #2]
  400ec0:	14000017 	b	400f1c <core_list_init+0x258>
  400ec4:	b94037e0 	ldr	w0, [sp, #52]
  400ec8:	11000401 	add	w1, w0, #0x1
  400ecc:	b90037e1 	str	w1, [sp, #52]
  400ed0:	12003c01 	and	w1, w0, #0xffff
  400ed4:	794037e0 	ldrh	w0, [sp, #26]
  400ed8:	4a000020 	eor	w0, w1, w0
  400edc:	790057e0 	strh	w0, [sp, #42]
  400ee0:	b94037e0 	ldr	w0, [sp, #52]
  400ee4:	12003c00 	and	w0, w0, #0xffff
  400ee8:	53181c00 	ubfiz	w0, w0, #8, #8
  400eec:	12003c00 	and	w0, w0, #0xffff
  400ef0:	12180800 	and	w0, w0, #0x700
  400ef4:	12003c01 	and	w1, w0, #0xffff
  400ef8:	794057e0 	ldrh	w0, [sp, #42]
  400efc:	2a000020 	orr	w0, w1, w0
  400f00:	12003c00 	and	w0, w0, #0xffff
  400f04:	13003c01 	sxth	w1, w0
  400f08:	f94027e0 	ldr	x0, [sp, #72]
  400f0c:	f9400400 	ldr	x0, [x0, #8]
  400f10:	12003421 	and	w1, w1, #0x3fff
  400f14:	13003c21 	sxth	w1, w1
  400f18:	79000401 	strh	w1, [x0, #2]
  400f1c:	f94027e0 	ldr	x0, [sp, #72]
  400f20:	f9400000 	ldr	x0, [x0]
  400f24:	f90027e0 	str	x0, [sp, #72]
  400f28:	f94027e0 	ldr	x0, [sp, #72]
  400f2c:	f9400000 	ldr	x0, [x0]
  400f30:	f100001f 	cmp	x0, #0x0
  400f34:	54fffa61 	b.ne	400e80 <core_list_init+0x1bc>  // b.any
  400f38:	d2800002 	mov	x2, #0x0                   	// #0
  400f3c:	90000000 	adrp	x0, 400000 <__ehdr_start>
  400f40:	91233001 	add	x1, x0, #0x8cc
  400f44:	f94033e0 	ldr	x0, [sp, #96]
  400f48:	940000b3 	bl	401214 <core_list_mergesort>
  400f4c:	f90033e0 	str	x0, [sp, #96]
  400f50:	f94033e0 	ldr	x0, [sp, #96]
  400f54:	aa0003e1 	mov	x1, x0
  400f58:	b0000460 	adrp	x0, 48d000 <__FRAME_END__+0x1034c>
  400f5c:	f947a400 	ldr	x0, [x0, #3912]
  400f60:	f94037e2 	ldr	x2, [sp, #104]
  400f64:	f9400003 	ldr	x3, [x0]
  400f68:	eb030042 	subs	x2, x2, x3
  400f6c:	d2800003 	mov	x3, #0x0                   	// #0
  400f70:	54000040 	b.eq	400f78 <core_list_init+0x2b4>  // b.none
  400f74:	94008c7b 	bl	424160 <__stack_chk_fail>
  400f78:	aa0103e0 	mov	x0, x1
  400f7c:	a8c77bfd 	ldp	x29, x30, [sp], #112
  400f80:	d65f03c0 	ret

0000000000400f84 <core_list_insert_new>:
  400f84:	a9bb7bfd 	stp	x29, x30, [sp, #-80]!
  400f88:	910003fd 	mov	x29, sp
  400f8c:	f9001fe0 	str	x0, [sp, #56]
  400f90:	f9001be1 	str	x1, [sp, #48]
  400f94:	f90017e2 	str	x2, [sp, #40]
  400f98:	f90013e3 	str	x3, [sp, #32]
  400f9c:	f9000fe4 	str	x4, [sp, #24]
  400fa0:	f9000be5 	str	x5, [sp, #16]
  400fa4:	f94017e0 	ldr	x0, [sp, #40]
  400fa8:	f9400000 	ldr	x0, [x0]
  400fac:	91004000 	add	x0, x0, #0x10
  400fb0:	f9400fe1 	ldr	x1, [sp, #24]
  400fb4:	eb00003f 	cmp	x1, x0
  400fb8:	54000068 	b.hi	400fc4 <core_list_insert_new+0x40>  // b.pmore
  400fbc:	d2800000 	mov	x0, #0x0                   	// #0
  400fc0:	14000026 	b	401058 <core_list_insert_new+0xd4>
  400fc4:	f94013e0 	ldr	x0, [sp, #32]
  400fc8:	f9400000 	ldr	x0, [x0]
  400fcc:	91001000 	add	x0, x0, #0x4
  400fd0:	f9400be1 	ldr	x1, [sp, #16]
  400fd4:	eb00003f 	cmp	x1, x0
  400fd8:	54000068 	b.hi	400fe4 <core_list_insert_new+0x60>  // b.pmore
  400fdc:	d2800000 	mov	x0, #0x0                   	// #0
  400fe0:	1400001e 	b	401058 <core_list_insert_new+0xd4>
  400fe4:	f94017e0 	ldr	x0, [sp, #40]
  400fe8:	f9400000 	ldr	x0, [x0]
  400fec:	f90027e0 	str	x0, [sp, #72]
  400ff0:	f94017e0 	ldr	x0, [sp, #40]
  400ff4:	f9400000 	ldr	x0, [x0]
  400ff8:	91004001 	add	x1, x0, #0x10
  400ffc:	f94017e0 	ldr	x0, [sp, #40]
  401000:	f9000001 	str	x1, [x0]
  401004:	f9401fe0 	ldr	x0, [sp, #56]
  401008:	f9400001 	ldr	x1, [x0]
  40100c:	f94027e0 	ldr	x0, [sp, #72]
  401010:	f9000001 	str	x1, [x0]
  401014:	f9401fe0 	ldr	x0, [sp, #56]
  401018:	f94027e1 	ldr	x1, [sp, #72]
  40101c:	f9000001 	str	x1, [x0]
  401020:	f94013e0 	ldr	x0, [sp, #32]
  401024:	f9400001 	ldr	x1, [x0]
  401028:	f94027e0 	ldr	x0, [sp, #72]
  40102c:	f9000401 	str	x1, [x0, #8]
  401030:	f94013e0 	ldr	x0, [sp, #32]
  401034:	f9400000 	ldr	x0, [x0]
  401038:	91001001 	add	x1, x0, #0x4
  40103c:	f94013e0 	ldr	x0, [sp, #32]
  401040:	f9000001 	str	x1, [x0]
  401044:	f94027e0 	ldr	x0, [sp, #72]
  401048:	f9400400 	ldr	x0, [x0, #8]
  40104c:	f9401be1 	ldr	x1, [sp, #48]
  401050:	97fffe4a 	bl	400978 <copy_info>
  401054:	f94027e0 	ldr	x0, [sp, #72]
  401058:	a8c57bfd 	ldp	x29, x30, [sp], #80
  40105c:	d65f03c0 	ret

0000000000401060 <core_list_remove>:
  401060:	d10083ff 	sub	sp, sp, #0x20
  401064:	f90007e0 	str	x0, [sp, #8]
  401068:	f94007e0 	ldr	x0, [sp, #8]
  40106c:	f9400000 	ldr	x0, [x0]
  401070:	f9000be0 	str	x0, [sp, #16]
  401074:	f94007e0 	ldr	x0, [sp, #8]
  401078:	f9400400 	ldr	x0, [x0, #8]
  40107c:	f9000fe0 	str	x0, [sp, #24]
  401080:	f9400be0 	ldr	x0, [sp, #16]
  401084:	f9400401 	ldr	x1, [x0, #8]
  401088:	f94007e0 	ldr	x0, [sp, #8]
  40108c:	f9000401 	str	x1, [x0, #8]
  401090:	f9400be0 	ldr	x0, [sp, #16]
  401094:	f9400fe1 	ldr	x1, [sp, #24]
  401098:	f9000401 	str	x1, [x0, #8]
  40109c:	f94007e0 	ldr	x0, [sp, #8]
  4010a0:	f9400000 	ldr	x0, [x0]
  4010a4:	f9400001 	ldr	x1, [x0]
  4010a8:	f94007e0 	ldr	x0, [sp, #8]
  4010ac:	f9000001 	str	x1, [x0]
  4010b0:	f9400be0 	ldr	x0, [sp, #16]
  4010b4:	f900001f 	str	xzr, [x0]
  4010b8:	f9400be0 	ldr	x0, [sp, #16]
  4010bc:	910083ff 	add	sp, sp, #0x20
  4010c0:	d65f03c0 	ret

00000000004010c4 <core_list_undo_remove>:
  4010c4:	d10083ff 	sub	sp, sp, #0x20
  4010c8:	f90007e0 	str	x0, [sp, #8]
  4010cc:	f90003e1 	str	x1, [sp]
  4010d0:	f94007e0 	ldr	x0, [sp, #8]
  4010d4:	f9400400 	ldr	x0, [x0, #8]
  4010d8:	f9000fe0 	str	x0, [sp, #24]
  4010dc:	f94003e0 	ldr	x0, [sp]
  4010e0:	f9400401 	ldr	x1, [x0, #8]
  4010e4:	f94007e0 	ldr	x0, [sp, #8]
  4010e8:	f9000401 	str	x1, [x0, #8]
  4010ec:	f94003e0 	ldr	x0, [sp]
  4010f0:	f9400fe1 	ldr	x1, [sp, #24]
  4010f4:	f9000401 	str	x1, [x0, #8]
  4010f8:	f94003e0 	ldr	x0, [sp]
  4010fc:	f9400001 	ldr	x1, [x0]
  401100:	f94007e0 	ldr	x0, [sp, #8]
  401104:	f9000001 	str	x1, [x0]
  401108:	f94003e0 	ldr	x0, [sp]
  40110c:	f94007e1 	ldr	x1, [sp, #8]
  401110:	f9000001 	str	x1, [x0]
  401114:	f94007e0 	ldr	x0, [sp, #8]
  401118:	910083ff 	add	sp, sp, #0x20
  40111c:	d65f03c0 	ret

0000000000401120 <core_list_find>:
  401120:	d10043ff 	sub	sp, sp, #0x10
  401124:	f90007e0 	str	x0, [sp, #8]
  401128:	f90003e1 	str	x1, [sp]
  40112c:	f94003e0 	ldr	x0, [sp]
  401130:	79c00400 	ldrsh	w0, [x0, #2]
  401134:	7100001f 	cmp	w0, #0x0
  401138:	5400028b 	b.lt	401188 <core_list_find+0x68>  // b.tstop
  40113c:	14000004 	b	40114c <core_list_find+0x2c>
  401140:	f94007e0 	ldr	x0, [sp, #8]
  401144:	f9400000 	ldr	x0, [x0]
  401148:	f90007e0 	str	x0, [sp, #8]
  40114c:	f94007e0 	ldr	x0, [sp, #8]
  401150:	f100001f 	cmp	x0, #0x0
  401154:	54000100 	b.eq	401174 <core_list_find+0x54>  // b.none
  401158:	f94007e0 	ldr	x0, [sp, #8]
  40115c:	f9400400 	ldr	x0, [x0, #8]
  401160:	79c00401 	ldrsh	w1, [x0, #2]
  401164:	f94003e0 	ldr	x0, [sp]
  401168:	79c00400 	ldrsh	w0, [x0, #2]
  40116c:	6b00003f 	cmp	w1, w0
  401170:	54fffe81 	b.ne	401140 <core_list_find+0x20>  // b.any
  401174:	f94007e0 	ldr	x0, [sp, #8]
  401178:	14000011 	b	4011bc <core_list_find+0x9c>
  40117c:	f94007e0 	ldr	x0, [sp, #8]
  401180:	f9400000 	ldr	x0, [x0]
  401184:	f90007e0 	str	x0, [sp, #8]
  401188:	f94007e0 	ldr	x0, [sp, #8]
  40118c:	f100001f 	cmp	x0, #0x0
  401190:	54000140 	b.eq	4011b8 <core_list_find+0x98>  // b.none
  401194:	f94007e0 	ldr	x0, [sp, #8]
  401198:	f9400400 	ldr	x0, [x0, #8]
  40119c:	79c00000 	ldrsh	w0, [x0]
  4011a0:	12003c00 	and	w0, w0, #0xffff
  4011a4:	12001c00 	and	w0, w0, #0xff
  4011a8:	f94003e1 	ldr	x1, [sp]
  4011ac:	79c00021 	ldrsh	w1, [x1]
  4011b0:	6b01001f 	cmp	w0, w1
  4011b4:	54fffe41 	b.ne	40117c <core_list_find+0x5c>  // b.any
  4011b8:	f94007e0 	ldr	x0, [sp, #8]
  4011bc:	910043ff 	add	sp, sp, #0x10
  4011c0:	d65f03c0 	ret

00000000004011c4 <core_list_reverse>:
  4011c4:	d10083ff 	sub	sp, sp, #0x20
  4011c8:	f90007e0 	str	x0, [sp, #8]
  4011cc:	f9000bff 	str	xzr, [sp, #16]
  4011d0:	1400000b 	b	4011fc <core_list_reverse+0x38>
  4011d4:	f94007e0 	ldr	x0, [sp, #8]
  4011d8:	f9400000 	ldr	x0, [x0]
  4011dc:	f9000fe0 	str	x0, [sp, #24]
  4011e0:	f94007e0 	ldr	x0, [sp, #8]
  4011e4:	f9400be1 	ldr	x1, [sp, #16]
  4011e8:	f9000001 	str	x1, [x0]
  4011ec:	f94007e0 	ldr	x0, [sp, #8]
  4011f0:	f9000be0 	str	x0, [sp, #16]
  4011f4:	f9400fe0 	ldr	x0, [sp, #24]
  4011f8:	f90007e0 	str	x0, [sp, #8]
  4011fc:	f94007e0 	ldr	x0, [sp, #8]
  401200:	f100001f 	cmp	x0, #0x0
  401204:	54fffe81 	b.ne	4011d4 <core_list_reverse+0x10>  // b.any
  401208:	f9400be0 	ldr	x0, [sp, #16]
  40120c:	910083ff 	add	sp, sp, #0x20
  401210:	d65f03c0 	ret

0000000000401214 <core_list_mergesort>:
  401214:	a9b97bfd 	stp	x29, x30, [sp, #-112]!
  401218:	910003fd 	mov	x29, sp
  40121c:	f90017e0 	str	x0, [sp, #40]
  401220:	f90013e1 	str	x1, [sp, #32]
  401224:	f9000fe2 	str	x2, [sp, #24]
  401228:	52800020 	mov	w0, #0x1                   	// #1
  40122c:	b9003fe0 	str	w0, [sp, #60]
  401230:	f94017e0 	ldr	x0, [sp, #40]
  401234:	f9002be0 	str	x0, [sp, #80]
  401238:	f90017ff 	str	xzr, [sp, #40]
  40123c:	f90037ff 	str	xzr, [sp, #104]
  401240:	b90043ff 	str	wzr, [sp, #64]
  401244:	1400006b 	b	4013f0 <core_list_mergesort+0x1dc>
  401248:	b94043e0 	ldr	w0, [sp, #64]
  40124c:	11000400 	add	w0, w0, #0x1
  401250:	b90043e0 	str	w0, [sp, #64]
  401254:	f9402be0 	ldr	x0, [sp, #80]
  401258:	f9002fe0 	str	x0, [sp, #88]
  40125c:	b90047ff 	str	wzr, [sp, #68]
  401260:	b9004fff 	str	wzr, [sp, #76]
  401264:	1400000d 	b	401298 <core_list_mergesort+0x84>
  401268:	b94047e0 	ldr	w0, [sp, #68]
  40126c:	11000400 	add	w0, w0, #0x1
  401270:	b90047e0 	str	w0, [sp, #68]
  401274:	f9402fe0 	ldr	x0, [sp, #88]
  401278:	f9400000 	ldr	x0, [x0]
  40127c:	f9002fe0 	str	x0, [sp, #88]
  401280:	f9402fe0 	ldr	x0, [sp, #88]
  401284:	f100001f 	cmp	x0, #0x0
  401288:	54000120 	b.eq	4012ac <core_list_mergesort+0x98>  // b.none
  40128c:	b9404fe0 	ldr	w0, [sp, #76]
  401290:	11000400 	add	w0, w0, #0x1
  401294:	b9004fe0 	str	w0, [sp, #76]
  401298:	b9404fe1 	ldr	w1, [sp, #76]
  40129c:	b9403fe0 	ldr	w0, [sp, #60]
  4012a0:	6b00003f 	cmp	w1, w0
  4012a4:	54fffe2b 	b.lt	401268 <core_list_mergesort+0x54>  // b.tstop
  4012a8:	14000002 	b	4012b0 <core_list_mergesort+0x9c>
  4012ac:	d503201f 	nop
  4012b0:	b9403fe0 	ldr	w0, [sp, #60]
  4012b4:	b9004be0 	str	w0, [sp, #72]
  4012b8:	14000043 	b	4013c4 <core_list_mergesort+0x1b0>
  4012bc:	b94047e0 	ldr	w0, [sp, #68]
  4012c0:	7100001f 	cmp	w0, #0x0
  4012c4:	54000141 	b.ne	4012ec <core_list_mergesort+0xd8>  // b.any
  4012c8:	f9402fe0 	ldr	x0, [sp, #88]
  4012cc:	f90033e0 	str	x0, [sp, #96]
  4012d0:	f9402fe0 	ldr	x0, [sp, #88]
  4012d4:	f9400000 	ldr	x0, [x0]
  4012d8:	f9002fe0 	str	x0, [sp, #88]
  4012dc:	b9404be0 	ldr	w0, [sp, #72]
  4012e0:	51000400 	sub	w0, w0, #0x1
  4012e4:	b9004be0 	str	w0, [sp, #72]
  4012e8:	1400002c 	b	401398 <core_list_mergesort+0x184>
  4012ec:	b9404be0 	ldr	w0, [sp, #72]
  4012f0:	7100001f 	cmp	w0, #0x0
  4012f4:	54000080 	b.eq	401304 <core_list_mergesort+0xf0>  // b.none
  4012f8:	f9402fe0 	ldr	x0, [sp, #88]
  4012fc:	f100001f 	cmp	x0, #0x0
  401300:	54000141 	b.ne	401328 <core_list_mergesort+0x114>  // b.any
  401304:	f9402be0 	ldr	x0, [sp, #80]
  401308:	f90033e0 	str	x0, [sp, #96]
  40130c:	f9402be0 	ldr	x0, [sp, #80]
  401310:	f9400000 	ldr	x0, [x0]
  401314:	f9002be0 	str	x0, [sp, #80]
  401318:	b94047e0 	ldr	w0, [sp, #68]
  40131c:	51000400 	sub	w0, w0, #0x1
  401320:	b90047e0 	str	w0, [sp, #68]
  401324:	1400001d 	b	401398 <core_list_mergesort+0x184>
  401328:	f9402be0 	ldr	x0, [sp, #80]
  40132c:	f9400404 	ldr	x4, [x0, #8]
  401330:	f9402fe0 	ldr	x0, [sp, #88]
  401334:	f9400400 	ldr	x0, [x0, #8]
  401338:	f94013e3 	ldr	x3, [sp, #32]
  40133c:	f9400fe2 	ldr	x2, [sp, #24]
  401340:	aa0003e1 	mov	x1, x0
  401344:	aa0403e0 	mov	x0, x4
  401348:	d63f0060 	blr	x3
  40134c:	7100001f 	cmp	w0, #0x0
  401350:	5400014c 	b.gt	401378 <core_list_mergesort+0x164>
  401354:	f9402be0 	ldr	x0, [sp, #80]
  401358:	f90033e0 	str	x0, [sp, #96]
  40135c:	f9402be0 	ldr	x0, [sp, #80]
  401360:	f9400000 	ldr	x0, [x0]
  401364:	f9002be0 	str	x0, [sp, #80]
  401368:	b94047e0 	ldr	w0, [sp, #68]
  40136c:	51000400 	sub	w0, w0, #0x1
  401370:	b90047e0 	str	w0, [sp, #68]
  401374:	14000009 	b	401398 <core_list_mergesort+0x184>
  401378:	f9402fe0 	ldr	x0, [sp, #88]
  40137c:	f90033e0 	str	x0, [sp, #96]
  401380:	f9402fe0 	ldr	x0, [sp, #88]
  401384:	f9400000 	ldr	x0, [x0]
  401388:	f9002fe0 	str	x0, [sp, #88]
  40138c:	b9404be0 	ldr	w0, [sp, #72]
  401390:	51000400 	sub	w0, w0, #0x1
  401394:	b9004be0 	str	w0, [sp, #72]
  401398:	f94037e0 	ldr	x0, [sp, #104]
  40139c:	f100001f 	cmp	x0, #0x0
  4013a0:	540000a0 	b.eq	4013b4 <core_list_mergesort+0x1a0>  // b.none
  4013a4:	f94037e0 	ldr	x0, [sp, #104]
  4013a8:	f94033e1 	ldr	x1, [sp, #96]
  4013ac:	f9000001 	str	x1, [x0]
  4013b0:	14000003 	b	4013bc <core_list_mergesort+0x1a8>
  4013b4:	f94033e0 	ldr	x0, [sp, #96]
  4013b8:	f90017e0 	str	x0, [sp, #40]
  4013bc:	f94033e0 	ldr	x0, [sp, #96]
  4013c0:	f90037e0 	str	x0, [sp, #104]
  4013c4:	b94047e0 	ldr	w0, [sp, #68]
  4013c8:	7100001f 	cmp	w0, #0x0
  4013cc:	54fff78c 	b.gt	4012bc <core_list_mergesort+0xa8>
  4013d0:	b9404be0 	ldr	w0, [sp, #72]
  4013d4:	7100001f 	cmp	w0, #0x0
  4013d8:	5400008d 	b.le	4013e8 <core_list_mergesort+0x1d4>
  4013dc:	f9402fe0 	ldr	x0, [sp, #88]
  4013e0:	f100001f 	cmp	x0, #0x0
  4013e4:	54fff6c1 	b.ne	4012bc <core_list_mergesort+0xa8>  // b.any
  4013e8:	f9402fe0 	ldr	x0, [sp, #88]
  4013ec:	f9002be0 	str	x0, [sp, #80]
  4013f0:	f9402be0 	ldr	x0, [sp, #80]
  4013f4:	f100001f 	cmp	x0, #0x0
  4013f8:	54fff281 	b.ne	401248 <core_list_mergesort+0x34>  // b.any
  4013fc:	f94037e0 	ldr	x0, [sp, #104]
  401400:	f900001f 	str	xzr, [x0]
  401404:	b94043e0 	ldr	w0, [sp, #64]
  401408:	7100041f 	cmp	w0, #0x1
  40140c:	5400006c 	b.gt	401418 <core_list_mergesort+0x204>
  401410:	f94017e0 	ldr	x0, [sp, #40]
  401414:	14000005 	b	401428 <core_list_mergesort+0x214>
  401418:	b9403fe0 	ldr	w0, [sp, #60]
  40141c:	531f7800 	lsl	w0, w0, #1
  401420:	b9003fe0 	str	w0, [sp, #60]
  401424:	17ffff83 	b	401230 <core_list_mergesort+0x1c>
  401428:	a8c77bfd 	ldp	x29, x30, [sp], #112
  40142c:	d65f03c0 	ret

0000000000401430 <iterate>:
  401430:	a9bc7bfd 	stp	x29, x30, [sp, #-64]!
  401434:	910003fd 	mov	x29, sp
  401438:	f9000fe0 	str	x0, [sp, #24]
  40143c:	f9400fe0 	ldr	x0, [sp, #24]
  401440:	f9001fe0 	str	x0, [sp, #56]
  401444:	f9401fe0 	ldr	x0, [sp, #56]
  401448:	b9402c00 	ldr	w0, [x0, #44]
  40144c:	b90037e0 	str	w0, [sp, #52]
  401450:	f9401fe0 	ldr	x0, [sp, #56]
  401454:	7900c01f 	strh	wzr, [x0, #96]
  401458:	f9401fe0 	ldr	x0, [sp, #56]
  40145c:	7900c41f 	strh	wzr, [x0, #98]
  401460:	f9401fe0 	ldr	x0, [sp, #56]
  401464:	7900c81f 	strh	wzr, [x0, #100]
  401468:	f9401fe0 	ldr	x0, [sp, #56]
  40146c:	7900cc1f 	strh	wzr, [x0, #102]
  401470:	b90033ff 	str	wzr, [sp, #48]
  401474:	14000023 	b	401500 <iterate+0xd0>
  401478:	52800021 	mov	w1, #0x1                   	// #1
  40147c:	f9401fe0 	ldr	x0, [sp, #56]
  401480:	97fffd4c 	bl	4009b0 <core_bench_list>
  401484:	79005fe0 	strh	w0, [sp, #46]
  401488:	f9401fe0 	ldr	x0, [sp, #56]
  40148c:	7940c000 	ldrh	w0, [x0, #96]
  401490:	2a0003e1 	mov	w1, w0
  401494:	79405fe0 	ldrh	w0, [sp, #46]
  401498:	940009c4 	bl	403ba8 <crcu16>
  40149c:	12003c01 	and	w1, w0, #0xffff
  4014a0:	f9401fe0 	ldr	x0, [sp, #56]
  4014a4:	7900c001 	strh	w1, [x0, #96]
  4014a8:	12800001 	mov	w1, #0xffffffff            	// #-1
  4014ac:	f9401fe0 	ldr	x0, [sp, #56]
  4014b0:	97fffd40 	bl	4009b0 <core_bench_list>
  4014b4:	79005fe0 	strh	w0, [sp, #46]
  4014b8:	f9401fe0 	ldr	x0, [sp, #56]
  4014bc:	7940c000 	ldrh	w0, [x0, #96]
  4014c0:	2a0003e1 	mov	w1, w0
  4014c4:	79405fe0 	ldrh	w0, [sp, #46]
  4014c8:	940009b8 	bl	403ba8 <crcu16>
  4014cc:	12003c01 	and	w1, w0, #0xffff
  4014d0:	f9401fe0 	ldr	x0, [sp, #56]
  4014d4:	7900c001 	strh	w1, [x0, #96]
  4014d8:	b94033e0 	ldr	w0, [sp, #48]
  4014dc:	7100001f 	cmp	w0, #0x0
  4014e0:	540000a1 	b.ne	4014f4 <iterate+0xc4>  // b.any
  4014e4:	f9401fe0 	ldr	x0, [sp, #56]
  4014e8:	7940c001 	ldrh	w1, [x0, #96]
  4014ec:	f9401fe0 	ldr	x0, [sp, #56]
  4014f0:	7900c401 	strh	w1, [x0, #98]
  4014f4:	b94033e0 	ldr	w0, [sp, #48]
  4014f8:	11000400 	add	w0, w0, #0x1
  4014fc:	b90033e0 	str	w0, [sp, #48]
  401500:	b94033e1 	ldr	w1, [sp, #48]
  401504:	b94037e0 	ldr	w0, [sp, #52]
  401508:	6b00003f 	cmp	w1, w0
  40150c:	54fffb63 	b.cc	401478 <iterate+0x48>  // b.lo, b.ul, b.last
  401510:	d2800000 	mov	x0, #0x0                   	// #0
  401514:	a8c47bfd 	ldp	x29, x30, [sp], #64
  401518:	d65f03c0 	ret

000000000040151c <main>:
  40151c:	a9b37bfd 	stp	x29, x30, [sp, #-208]!
  401520:	910003fd 	mov	x29, sp
  401524:	f9000bf3 	str	x19, [sp, #16]
  401528:	fd000fe8 	str	d8, [sp, #24]
  40152c:	b9002fe0 	str	w0, [sp, #44]
  401530:	f90013e1 	str	x1, [sp, #32]
  401534:	90000460 	adrp	x0, 48d000 <__FRAME_END__+0x1034c>
  401538:	f947a400 	ldr	x0, [x0, #3912]
  40153c:	f9400001 	ldr	x1, [x0]
  401540:	f90067e1 	str	x1, [sp, #200]
  401544:	d2800001 	mov	x1, #0x0                   	// #0
  401548:	790067ff 	strh	wzr, [sp, #50]
  40154c:	79006bff 	strh	wzr, [sp, #52]
  401550:	12800000 	mov	w0, #0xffffffff            	// #-1
  401554:	79006fe0 	strh	w0, [sp, #54]
  401558:	790073ff 	strh	wzr, [sp, #56]
  40155c:	790077ff 	strh	wzr, [sp, #58]
  401560:	9100b3e1 	add	x1, sp, #0x2c
  401564:	910163e0 	add	x0, sp, #0x58
  401568:	9101a800 	add	x0, x0, #0x6a
  40156c:	f94013e2 	ldr	x2, [sp, #32]
  401570:	94000a19 	bl	403dd4 <portable_init>
  401574:	b9402fe0 	ldr	w0, [sp, #44]
  401578:	f94013e2 	ldr	x2, [sp, #32]
  40157c:	2a0003e1 	mov	w1, w0
  401580:	52800020 	mov	w0, #0x1                   	// #1
  401584:	94000942 	bl	403a8c <get_seed_args>
  401588:	13003c00 	sxth	w0, w0
  40158c:	7900b3e0 	strh	w0, [sp, #88]
  401590:	b9402fe0 	ldr	w0, [sp, #44]
  401594:	f94013e2 	ldr	x2, [sp, #32]
  401598:	2a0003e1 	mov	w1, w0
  40159c:	52800040 	mov	w0, #0x2                   	// #2
  4015a0:	9400093b 	bl	403a8c <get_seed_args>
  4015a4:	13003c00 	sxth	w0, w0
  4015a8:	7900b7e0 	strh	w0, [sp, #90]
  4015ac:	b9402fe0 	ldr	w0, [sp, #44]
  4015b0:	f94013e2 	ldr	x2, [sp, #32]
  4015b4:	2a0003e1 	mov	w1, w0
  4015b8:	52800060 	mov	w0, #0x3                   	// #3
  4015bc:	94000934 	bl	403a8c <get_seed_args>
  4015c0:	13003c00 	sxth	w0, w0
  4015c4:	7900bbe0 	strh	w0, [sp, #92]
  4015c8:	52800140 	mov	w0, #0xa                   	// #10
  4015cc:	b90087e0 	str	w0, [sp, #132]
  4015d0:	b9402fe0 	ldr	w0, [sp, #44]
  4015d4:	f94013e2 	ldr	x2, [sp, #32]
  4015d8:	2a0003e1 	mov	w1, w0
  4015dc:	528000a0 	mov	w0, #0x5                   	// #5
  4015e0:	9400092b 	bl	403a8c <get_seed_args>
  4015e4:	b9008be0 	str	w0, [sp, #136]
  4015e8:	b9408be0 	ldr	w0, [sp, #136]
  4015ec:	7100001f 	cmp	w0, #0x0
  4015f0:	54000061 	b.ne	4015fc <main+0xe0>  // b.any
  4015f4:	528000e0 	mov	w0, #0x7                   	// #7
  4015f8:	b9008be0 	str	w0, [sp, #136]
  4015fc:	79c0b3e0 	ldrsh	w0, [sp, #88]
  401600:	7100001f 	cmp	w0, #0x0
  401604:	54000161 	b.ne	401630 <main+0x114>  // b.any
  401608:	79c0b7e0 	ldrsh	w0, [sp, #90]
  40160c:	7100001f 	cmp	w0, #0x0
  401610:	54000101 	b.ne	401630 <main+0x114>  // b.any
  401614:	79c0bbe0 	ldrsh	w0, [sp, #92]
  401618:	7100001f 	cmp	w0, #0x0
  40161c:	540000a1 	b.ne	401630 <main+0x114>  // b.any
  401620:	7900b3ff 	strh	wzr, [sp, #88]
  401624:	7900b7ff 	strh	wzr, [sp, #90]
  401628:	52800cc0 	mov	w0, #0x66                  	// #102
  40162c:	7900bbe0 	strh	w0, [sp, #92]
  401630:	79c0b3e0 	ldrsh	w0, [sp, #88]
  401634:	7100041f 	cmp	w0, #0x1
  401638:	540001a1 	b.ne	40166c <main+0x150>  // b.any
  40163c:	79c0b7e0 	ldrsh	w0, [sp, #90]
  401640:	7100001f 	cmp	w0, #0x0
  401644:	54000141 	b.ne	40166c <main+0x150>  // b.any
  401648:	79c0bbe0 	ldrsh	w0, [sp, #92]
  40164c:	7100001f 	cmp	w0, #0x0
  401650:	540000e1 	b.ne	40166c <main+0x150>  // b.any
  401654:	528682a0 	mov	w0, #0x3415                	// #13333
  401658:	7900b3e0 	strh	w0, [sp, #88]
  40165c:	528682a0 	mov	w0, #0x3415                	// #13333
  401660:	7900b7e0 	strh	w0, [sp, #90]
  401664:	52800cc0 	mov	w0, #0x66                  	// #102
  401668:	7900bbe0 	strh	w0, [sp, #92]
  40166c:	790063ff 	strh	wzr, [sp, #48]
  401670:	14000060 	b	4017f0 <main+0x2d4>
  401674:	b9402fe0 	ldr	w0, [sp, #44]
  401678:	f94013e2 	ldr	x2, [sp, #32]
  40167c:	2a0003e1 	mov	w1, w0
  401680:	528000e0 	mov	w0, #0x7                   	// #7
  401684:	94000902 	bl	403a8c <get_seed_args>
  401688:	13003c00 	sxth	w0, w0
  40168c:	b90047e0 	str	w0, [sp, #68]
  401690:	b94047e0 	ldr	w0, [sp, #68]
  401694:	7100001f 	cmp	w0, #0x0
  401698:	54000160 	b.eq	4016c4 <main+0x1a8>  // b.none
  40169c:	794063e0 	ldrh	w0, [sp, #48]
  4016a0:	b94047e2 	ldr	w2, [sp, #68]
  4016a4:	93407c01 	sxtw	x1, w0
  4016a8:	aa0103e0 	mov	x0, x1
  4016ac:	d37df000 	lsl	x0, x0, #3
  4016b0:	cb010000 	sub	x0, x0, x1
  4016b4:	d37cec00 	lsl	x0, x0, #4
  4016b8:	910203e1 	add	x1, sp, #0x80
  4016bc:	b8206822 	str	w2, [x1, x0]
  4016c0:	1400000a 	b	4016e8 <main+0x1cc>
  4016c4:	794063e0 	ldrh	w0, [sp, #48]
  4016c8:	93407c01 	sxtw	x1, w0
  4016cc:	aa0103e0 	mov	x0, x1
  4016d0:	d37df000 	lsl	x0, x0, #3
  4016d4:	cb010000 	sub	x0, x0, x1
  4016d8:	d37cec00 	lsl	x0, x0, #4
  4016dc:	910203e1 	add	x1, sp, #0x80
  4016e0:	5280fa02 	mov	w2, #0x7d0                 	// #2000
  4016e4:	b8206822 	str	w2, [x1, x0]
  4016e8:	794063e0 	ldrh	w0, [sp, #48]
  4016ec:	93407c01 	sxtw	x1, w0
  4016f0:	aa0103e0 	mov	x0, x1
  4016f4:	d37df000 	lsl	x0, x0, #3
  4016f8:	cb010000 	sub	x0, x0, x1
  4016fc:	d37cec00 	lsl	x0, x0, #4
  401700:	910203e1 	add	x1, sp, #0x80
  401704:	b8606820 	ldr	w0, [x1, x0]
  401708:	2a0003e0 	mov	w0, w0
  40170c:	794063f3 	ldrh	w19, [sp, #48]
  401710:	94000961 	bl	403c94 <portable_malloc>
  401714:	aa0003e2 	mov	x2, x0
  401718:	93407e61 	sxtw	x1, w19
  40171c:	aa0103e0 	mov	x0, x1
  401720:	d37df000 	lsl	x0, x0, #3
  401724:	cb010000 	sub	x0, x0, x1
  401728:	d37cec00 	lsl	x0, x0, #4
  40172c:	910183e1 	add	x1, sp, #0x60
  401730:	f8206822 	str	x2, [x1, x0]
  401734:	794063e0 	ldrh	w0, [sp, #48]
  401738:	79c0b3e2 	ldrsh	w2, [sp, #88]
  40173c:	93407c01 	sxtw	x1, w0
  401740:	aa0103e0 	mov	x0, x1
  401744:	d37df000 	lsl	x0, x0, #3
  401748:	cb010000 	sub	x0, x0, x1
  40174c:	d37cec00 	lsl	x0, x0, #4
  401750:	910163e1 	add	x1, sp, #0x58
  401754:	78206822 	strh	w2, [x1, x0]
  401758:	794063e0 	ldrh	w0, [sp, #48]
  40175c:	79c0b7e2 	ldrsh	w2, [sp, #90]
  401760:	93407c01 	sxtw	x1, w0
  401764:	aa0103e0 	mov	x0, x1
  401768:	d37df000 	lsl	x0, x0, #3
  40176c:	cb010000 	sub	x0, x0, x1
  401770:	d37cec00 	lsl	x0, x0, #4
  401774:	91016be1 	add	x1, sp, #0x5a
  401778:	78206822 	strh	w2, [x1, x0]
  40177c:	794063e0 	ldrh	w0, [sp, #48]
  401780:	79c0bbe2 	ldrsh	w2, [sp, #92]
  401784:	93407c01 	sxtw	x1, w0
  401788:	aa0103e0 	mov	x0, x1
  40178c:	d37df000 	lsl	x0, x0, #3
  401790:	cb010000 	sub	x0, x0, x1
  401794:	d37cec00 	lsl	x0, x0, #4
  401798:	910173e1 	add	x1, sp, #0x5c
  40179c:	78206822 	strh	w2, [x1, x0]
  4017a0:	794063e0 	ldrh	w0, [sp, #48]
  4017a4:	93407c01 	sxtw	x1, w0
  4017a8:	aa0103e0 	mov	x0, x1
  4017ac:	d37df000 	lsl	x0, x0, #3
  4017b0:	cb010000 	sub	x0, x0, x1
  4017b4:	d37cec00 	lsl	x0, x0, #4
  4017b8:	910303e1 	add	x1, sp, #0xc0
  4017bc:	7820683f 	strh	wzr, [x1, x0]
  4017c0:	794063e0 	ldrh	w0, [sp, #48]
  4017c4:	b9408be2 	ldr	w2, [sp, #136]
  4017c8:	93407c01 	sxtw	x1, w0
  4017cc:	aa0103e0 	mov	x0, x1
  4017d0:	d37df000 	lsl	x0, x0, #3
  4017d4:	cb010000 	sub	x0, x0, x1
  4017d8:	d37cec00 	lsl	x0, x0, #4
  4017dc:	910223e1 	add	x1, sp, #0x88
  4017e0:	b8206822 	str	w2, [x1, x0]
  4017e4:	794063e0 	ldrh	w0, [sp, #48]
  4017e8:	11000400 	add	w0, w0, #0x1
  4017ec:	790063e0 	strh	w0, [sp, #48]
  4017f0:	794063e0 	ldrh	w0, [sp, #48]
  4017f4:	7100001f 	cmp	w0, #0x0
  4017f8:	54fff3e0 	b.eq	401674 <main+0x158>  // b.none
  4017fc:	790063ff 	strh	wzr, [sp, #48]
  401800:	1400000f 	b	40183c <main+0x320>
  401804:	794063e0 	ldrh	w0, [sp, #48]
  401808:	52800021 	mov	w1, #0x1                   	// #1
  40180c:	1ac02020 	lsl	w0, w1, w0
  401810:	2a0003e1 	mov	w1, w0
  401814:	b9408be0 	ldr	w0, [sp, #136]
  401818:	0a000020 	and	w0, w1, w0
  40181c:	7100001f 	cmp	w0, #0x0
  401820:	54000080 	b.eq	401830 <main+0x314>  // b.none
  401824:	79406be0 	ldrh	w0, [sp, #52]
  401828:	11000400 	add	w0, w0, #0x1
  40182c:	79006be0 	strh	w0, [sp, #52]
  401830:	794063e0 	ldrh	w0, [sp, #48]
  401834:	11000400 	add	w0, w0, #0x1
  401838:	790063e0 	strh	w0, [sp, #48]
  40183c:	794063e0 	ldrh	w0, [sp, #48]
  401840:	7100081f 	cmp	w0, #0x2
  401844:	54fffe09 	b.ls	401804 <main+0x2e8>  // b.plast
  401848:	790063ff 	strh	wzr, [sp, #48]
  40184c:	14000016 	b	4018a4 <main+0x388>
  401850:	794063e0 	ldrh	w0, [sp, #48]
  401854:	93407c01 	sxtw	x1, w0
  401858:	aa0103e0 	mov	x0, x1
  40185c:	d37df000 	lsl	x0, x0, #3
  401860:	cb010000 	sub	x0, x0, x1
  401864:	d37cec00 	lsl	x0, x0, #4
  401868:	910203e1 	add	x1, sp, #0x80
  40186c:	b8606821 	ldr	w1, [x1, x0]
  401870:	79406be0 	ldrh	w0, [sp, #52]
  401874:	794063e3 	ldrh	w3, [sp, #48]
  401878:	1ac00822 	udiv	w2, w1, w0
  40187c:	93407c61 	sxtw	x1, w3
  401880:	aa0103e0 	mov	x0, x1
  401884:	d37df000 	lsl	x0, x0, #3
  401888:	cb010000 	sub	x0, x0, x1
  40188c:	d37cec00 	lsl	x0, x0, #4
  401890:	910203e1 	add	x1, sp, #0x80
  401894:	b8206822 	str	w2, [x1, x0]
  401898:	794063e0 	ldrh	w0, [sp, #48]
  40189c:	11000400 	add	w0, w0, #0x1
  4018a0:	790063e0 	strh	w0, [sp, #48]
  4018a4:	794063e0 	ldrh	w0, [sp, #48]
  4018a8:	7100001f 	cmp	w0, #0x0
  4018ac:	54fffd20 	b.eq	401850 <main+0x334>  // b.none
  4018b0:	790063ff 	strh	wzr, [sp, #48]
  4018b4:	1400002f 	b	401970 <main+0x454>
  4018b8:	794063e0 	ldrh	w0, [sp, #48]
  4018bc:	52800021 	mov	w1, #0x1                   	// #1
  4018c0:	1ac02020 	lsl	w0, w1, w0
  4018c4:	2a0003e1 	mov	w1, w0
  4018c8:	b9408be0 	ldr	w0, [sp, #136]
  4018cc:	0a000020 	and	w0, w1, w0
  4018d0:	7100001f 	cmp	w0, #0x0
  4018d4:	54000480 	b.eq	401964 <main+0x448>  // b.none
  4018d8:	b9003fff 	str	wzr, [sp, #60]
  4018dc:	1400001c 	b	40194c <main+0x430>
  4018e0:	b9403fe1 	ldr	w1, [sp, #60]
  4018e4:	aa0103e0 	mov	x0, x1
  4018e8:	d37df000 	lsl	x0, x0, #3
  4018ec:	cb010000 	sub	x0, x0, x1
  4018f0:	d37cec00 	lsl	x0, x0, #4
  4018f4:	910183e1 	add	x1, sp, #0x60
  4018f8:	f8606821 	ldr	x1, [x1, x0]
  4018fc:	b94083e2 	ldr	w2, [sp, #128]
  401900:	794067e0 	ldrh	w0, [sp, #50]
  401904:	1b007c40 	mul	w0, w2, w0
  401908:	2a0003e0 	mov	w0, w0
  40190c:	794063e2 	ldrh	w2, [sp, #48]
  401910:	11000443 	add	w3, w2, #0x1
  401914:	8b000022 	add	x2, x1, x0
  401918:	93407c63 	sxtw	x3, w3
  40191c:	b9403fe1 	ldr	w1, [sp, #60]
  401920:	aa0103e0 	mov	x0, x1
  401924:	d37df000 	lsl	x0, x0, #3
  401928:	cb010000 	sub	x0, x0, x1
  40192c:	d37ff800 	lsl	x0, x0, #1
  401930:	8b030000 	add	x0, x0, x3
  401934:	d37df000 	lsl	x0, x0, #3
  401938:	910183e1 	add	x1, sp, #0x60
  40193c:	f8206822 	str	x2, [x1, x0]
  401940:	b9403fe0 	ldr	w0, [sp, #60]
  401944:	11000400 	add	w0, w0, #0x1
  401948:	b9003fe0 	str	w0, [sp, #60]
  40194c:	b9403fe0 	ldr	w0, [sp, #60]
  401950:	7100001f 	cmp	w0, #0x0
  401954:	54fffc60 	b.eq	4018e0 <main+0x3c4>  // b.none
  401958:	794067e0 	ldrh	w0, [sp, #50]
  40195c:	11000400 	add	w0, w0, #0x1
  401960:	790067e0 	strh	w0, [sp, #50]
  401964:	794063e0 	ldrh	w0, [sp, #48]
  401968:	11000400 	add	w0, w0, #0x1
  40196c:	790063e0 	strh	w0, [sp, #48]
  401970:	794063e0 	ldrh	w0, [sp, #48]
  401974:	7100081f 	cmp	w0, #0x2
  401978:	54fffa09 	b.ls	4018b8 <main+0x39c>  // b.plast
  40197c:	790063ff 	strh	wzr, [sp, #48]
  401980:	14000082 	b	401b88 <main+0x66c>
  401984:	794063e0 	ldrh	w0, [sp, #48]
  401988:	93407c01 	sxtw	x1, w0
  40198c:	aa0103e0 	mov	x0, x1
  401990:	d37df000 	lsl	x0, x0, #3
  401994:	cb010000 	sub	x0, x0, x1
  401998:	d37cec00 	lsl	x0, x0, #4
  40199c:	910223e1 	add	x1, sp, #0x88
  4019a0:	b8606820 	ldr	w0, [x1, x0]
  4019a4:	12000000 	and	w0, w0, #0x1
  4019a8:	7100001f 	cmp	w0, #0x0
  4019ac:	540003e0 	b.eq	401a28 <main+0x50c>  // b.none
  4019b0:	b94083e3 	ldr	w3, [sp, #128]
  4019b4:	794063e0 	ldrh	w0, [sp, #48]
  4019b8:	93407c01 	sxtw	x1, w0
  4019bc:	aa0103e0 	mov	x0, x1
  4019c0:	d37df000 	lsl	x0, x0, #3
  4019c4:	cb010000 	sub	x0, x0, x1
  4019c8:	d37cec00 	lsl	x0, x0, #4
  4019cc:	9101a3e1 	add	x1, sp, #0x68
  4019d0:	f8606824 	ldr	x4, [x1, x0]
  4019d4:	794063e0 	ldrh	w0, [sp, #48]
  4019d8:	93407c01 	sxtw	x1, w0
  4019dc:	aa0103e0 	mov	x0, x1
  4019e0:	d37df000 	lsl	x0, x0, #3
  4019e4:	cb010000 	sub	x0, x0, x1
  4019e8:	d37cec00 	lsl	x0, x0, #4
  4019ec:	910163e1 	add	x1, sp, #0x58
  4019f0:	78e06820 	ldrsh	w0, [x1, x0]
  4019f4:	794063f3 	ldrh	w19, [sp, #48]
  4019f8:	2a0003e2 	mov	w2, w0
  4019fc:	aa0403e1 	mov	x1, x4
  401a00:	2a0303e0 	mov	w0, w3
  401a04:	97fffcb0 	bl	400cc4 <core_list_init>
  401a08:	aa0003e2 	mov	x2, x0
  401a0c:	93407e61 	sxtw	x1, w19
  401a10:	aa0103e0 	mov	x0, x1
  401a14:	d37df000 	lsl	x0, x0, #3
  401a18:	cb010000 	sub	x0, x0, x1
  401a1c:	d37cec00 	lsl	x0, x0, #4
  401a20:	910243e1 	add	x1, sp, #0x90
  401a24:	f8206822 	str	x2, [x1, x0]
  401a28:	794063e0 	ldrh	w0, [sp, #48]
  401a2c:	93407c01 	sxtw	x1, w0
  401a30:	aa0103e0 	mov	x0, x1
  401a34:	d37df000 	lsl	x0, x0, #3
  401a38:	cb010000 	sub	x0, x0, x1
  401a3c:	d37cec00 	lsl	x0, x0, #4
  401a40:	910223e1 	add	x1, sp, #0x88
  401a44:	b8606820 	ldr	w0, [x1, x0]
  401a48:	121f0000 	and	w0, w0, #0x2
  401a4c:	7100001f 	cmp	w0, #0x0
  401a50:	54000560 	b.eq	401afc <main+0x5e0>  // b.none
  401a54:	b94083e4 	ldr	w4, [sp, #128]
  401a58:	794063e0 	ldrh	w0, [sp, #48]
  401a5c:	93407c01 	sxtw	x1, w0
  401a60:	aa0103e0 	mov	x0, x1
  401a64:	d37df000 	lsl	x0, x0, #3
  401a68:	cb010000 	sub	x0, x0, x1
  401a6c:	d37cec00 	lsl	x0, x0, #4
  401a70:	9101c3e1 	add	x1, sp, #0x70
  401a74:	f8606825 	ldr	x5, [x1, x0]
  401a78:	794063e0 	ldrh	w0, [sp, #48]
  401a7c:	93407c01 	sxtw	x1, w0
  401a80:	aa0103e0 	mov	x0, x1
  401a84:	d37df000 	lsl	x0, x0, #3
  401a88:	cb010000 	sub	x0, x0, x1
  401a8c:	d37cec00 	lsl	x0, x0, #4
  401a90:	910163e1 	add	x1, sp, #0x58
  401a94:	78e06820 	ldrsh	w0, [x1, x0]
  401a98:	2a0003e2 	mov	w2, w0
  401a9c:	794063e0 	ldrh	w0, [sp, #48]
  401aa0:	93407c01 	sxtw	x1, w0
  401aa4:	aa0103e0 	mov	x0, x1
  401aa8:	d37df000 	lsl	x0, x0, #3
  401aac:	cb010000 	sub	x0, x0, x1
  401ab0:	d37cec00 	lsl	x0, x0, #4
  401ab4:	91016be1 	add	x1, sp, #0x5a
  401ab8:	78e06820 	ldrsh	w0, [x1, x0]
  401abc:	53103c00 	lsl	w0, w0, #16
  401ac0:	2a000046 	orr	w6, w2, w0
  401ac4:	794063e0 	ldrh	w0, [sp, #48]
  401ac8:	910163e2 	add	x2, sp, #0x58
  401acc:	93407c01 	sxtw	x1, w0
  401ad0:	aa0103e0 	mov	x0, x1
  401ad4:	d37df000 	lsl	x0, x0, #3
  401ad8:	cb010000 	sub	x0, x0, x1
  401adc:	d37cec00 	lsl	x0, x0, #4
  401ae0:	91010000 	add	x0, x0, #0x40
  401ae4:	8b000040 	add	x0, x2, x0
  401ae8:	aa0003e3 	mov	x3, x0
  401aec:	2a0603e2 	mov	w2, w6
  401af0:	aa0503e1 	mov	x1, x5
  401af4:	2a0403e0 	mov	w0, w4
  401af8:	9400030b 	bl	402724 <core_init_matrix>
  401afc:	794063e0 	ldrh	w0, [sp, #48]
  401b00:	93407c01 	sxtw	x1, w0
  401b04:	aa0103e0 	mov	x0, x1
  401b08:	d37df000 	lsl	x0, x0, #3
  401b0c:	cb010000 	sub	x0, x0, x1
  401b10:	d37cec00 	lsl	x0, x0, #4
  401b14:	910223e1 	add	x1, sp, #0x88
  401b18:	b8606820 	ldr	w0, [x1, x0]
  401b1c:	121e0000 	and	w0, w0, #0x4
  401b20:	7100001f 	cmp	w0, #0x0
  401b24:	540002c0 	b.eq	401b7c <main+0x660>  // b.none
  401b28:	b94083e3 	ldr	w3, [sp, #128]
  401b2c:	794063e0 	ldrh	w0, [sp, #48]
  401b30:	93407c01 	sxtw	x1, w0
  401b34:	aa0103e0 	mov	x0, x1
  401b38:	d37df000 	lsl	x0, x0, #3
  401b3c:	cb010000 	sub	x0, x0, x1
  401b40:	d37cec00 	lsl	x0, x0, #4
  401b44:	910163e1 	add	x1, sp, #0x58
  401b48:	78e06824 	ldrsh	w4, [x1, x0]
  401b4c:	794063e0 	ldrh	w0, [sp, #48]
  401b50:	93407c01 	sxtw	x1, w0
  401b54:	aa0103e0 	mov	x0, x1
  401b58:	d37df000 	lsl	x0, x0, #3
  401b5c:	cb010000 	sub	x0, x0, x1
  401b60:	d37cec00 	lsl	x0, x0, #4
  401b64:	9101e3e1 	add	x1, sp, #0x78
  401b68:	f8606820 	ldr	x0, [x1, x0]
  401b6c:	aa0003e2 	mov	x2, x0
  401b70:	2a0403e1 	mov	w1, w4
  401b74:	2a0303e0 	mov	w0, w3
  401b78:	940005ad 	bl	40322c <core_init_state>
  401b7c:	794063e0 	ldrh	w0, [sp, #48]
  401b80:	11000400 	add	w0, w0, #0x1
  401b84:	790063e0 	strh	w0, [sp, #48]
  401b88:	794063e0 	ldrh	w0, [sp, #48]
  401b8c:	7100001f 	cmp	w0, #0x0
  401b90:	54ffefa0 	b.eq	401984 <main+0x468>  // b.none
  401b94:	b94087e0 	ldr	w0, [sp, #132]
  401b98:	7100001f 	cmp	w0, #0x0
  401b9c:	540004a1 	b.ne	401c30 <main+0x714>  // b.any
  401ba0:	f90027ff 	str	xzr, [sp, #72]
  401ba4:	52800020 	mov	w0, #0x1                   	// #1
  401ba8:	b90087e0 	str	w0, [sp, #132]
  401bac:	1400000e 	b	401be4 <main+0x6c8>
  401bb0:	b94087e1 	ldr	w1, [sp, #132]
  401bb4:	2a0103e0 	mov	w0, w1
  401bb8:	531e7400 	lsl	w0, w0, #2
  401bbc:	0b010000 	add	w0, w0, w1
  401bc0:	531f7800 	lsl	w0, w0, #1
  401bc4:	b90087e0 	str	w0, [sp, #132]
  401bc8:	94000842 	bl	403cd0 <start_time>
  401bcc:	910163e0 	add	x0, sp, #0x58
  401bd0:	97fffe18 	bl	401430 <iterate>
  401bd4:	94000848 	bl	403cf4 <stop_time>
  401bd8:	94000850 	bl	403d18 <get_time>
  401bdc:	94000872 	bl	403da4 <time_in_secs>
  401be0:	fd0027e0 	str	d0, [sp, #72]
  401be4:	fd4027e1 	ldr	d1, [sp, #72]
  401be8:	1e6e1000 	fmov	d0, #1.000000000000000000e+00
  401bec:	1e602030 	fcmpe	d1, d0
  401bf0:	54fffe04 	b.mi	401bb0 <main+0x694>  // b.first
  401bf4:	fd4027e0 	ldr	d0, [sp, #72]
  401bf8:	1e790000 	fcvtzu	w0, d0
  401bfc:	b90043e0 	str	w0, [sp, #64]
  401c00:	b94043e0 	ldr	w0, [sp, #64]
  401c04:	7100001f 	cmp	w0, #0x0
  401c08:	54000061 	b.ne	401c14 <main+0x6f8>  // b.any
  401c0c:	52800020 	mov	w0, #0x1                   	// #1
  401c10:	b90043e0 	str	w0, [sp, #64]
  401c14:	b94087e1 	ldr	w1, [sp, #132]
  401c18:	52800142 	mov	w2, #0xa                   	// #10
  401c1c:	b94043e0 	ldr	w0, [sp, #64]
  401c20:	1ac00840 	udiv	w0, w2, w0
  401c24:	11000400 	add	w0, w0, #0x1
  401c28:	1b007c20 	mul	w0, w1, w0
  401c2c:	b90087e0 	str	w0, [sp, #132]
  401c30:	94000828 	bl	403cd0 <start_time>
  401c34:	910163e0 	add	x0, sp, #0x58
  401c38:	97fffdfe 	bl	401430 <iterate>
  401c3c:	9400082e 	bl	403cf4 <stop_time>
  401c40:	94000836 	bl	403d18 <get_time>
  401c44:	f9002be0 	str	x0, [sp, #80]
  401c48:	79c0b3e0 	ldrsh	w0, [sp, #88]
  401c4c:	794077e1 	ldrh	w1, [sp, #58]
  401c50:	940007fb 	bl	403c3c <crc16>
  401c54:	790077e0 	strh	w0, [sp, #58]
  401c58:	79c0b7e0 	ldrsh	w0, [sp, #90]
  401c5c:	794077e1 	ldrh	w1, [sp, #58]
  401c60:	940007f7 	bl	403c3c <crc16>
  401c64:	790077e0 	strh	w0, [sp, #58]
  401c68:	79c0bbe0 	ldrsh	w0, [sp, #92]
  401c6c:	794077e1 	ldrh	w1, [sp, #58]
  401c70:	940007f3 	bl	403c3c <crc16>
  401c74:	790077e0 	strh	w0, [sp, #58]
  401c78:	b94083e0 	ldr	w0, [sp, #128]
  401c7c:	13003c00 	sxth	w0, w0
  401c80:	794077e1 	ldrh	w1, [sp, #58]
  401c84:	940007ee 	bl	403c3c <crc16>
  401c88:	790077e0 	strh	w0, [sp, #58]
  401c8c:	794077e0 	ldrh	w0, [sp, #58]
  401c90:	529d3ea1 	mov	w1, #0xe9f5                	// #59893
  401c94:	6b01001f 	cmp	w0, w1
  401c98:	54000500 	b.eq	401d38 <main+0x81c>  // b.none
  401c9c:	529d3ea1 	mov	w1, #0xe9f5                	// #59893
  401ca0:	6b01001f 	cmp	w0, w1
  401ca4:	5400062c 	b.gt	401d68 <main+0x84c>
  401ca8:	52914041 	mov	w1, #0x8a02                	// #35330
  401cac:	6b01001f 	cmp	w0, w1
  401cb0:	54000220 	b.eq	401cf4 <main+0x7d8>  // b.none
  401cb4:	52914041 	mov	w1, #0x8a02                	// #35330
  401cb8:	6b01001f 	cmp	w0, w1
  401cbc:	5400056c 	b.gt	401d68 <main+0x84c>
  401cc0:	528f60a1 	mov	w1, #0x7b05                	// #31493
  401cc4:	6b01001f 	cmp	w0, w1
  401cc8:	54000200 	b.eq	401d08 <main+0x7ec>  // b.none
  401ccc:	528f60a1 	mov	w1, #0x7b05                	// #31493
  401cd0:	6b01001f 	cmp	w0, w1
  401cd4:	540004ac 	b.gt	401d68 <main+0x84c>
  401cd8:	52831e41 	mov	w1, #0x18f2                	// #6386
  401cdc:	6b01001f 	cmp	w0, w1
  401ce0:	54000380 	b.eq	401d50 <main+0x834>  // b.none
  401ce4:	5289d5e1 	mov	w1, #0x4eaf                	// #20143
  401ce8:	6b01001f 	cmp	w0, w1
  401cec:	540001a0 	b.eq	401d20 <main+0x804>  // b.none
  401cf0:	1400001e 	b	401d68 <main+0x84c>
  401cf4:	79006fff 	strh	wzr, [sp, #54]
  401cf8:	900002a0 	adrp	x0, 455000 <__gcc_personality_v0+0x240>
  401cfc:	91350000 	add	x0, x0, #0xd40
  401d00:	94003a0a 	bl	410528 <_IO_puts>
  401d04:	1400001c 	b	401d74 <main+0x858>
  401d08:	52800020 	mov	w0, #0x1                   	// #1
  401d0c:	79006fe0 	strh	w0, [sp, #54]
  401d10:	900002a0 	adrp	x0, 455000 <__gcc_personality_v0+0x240>
  401d14:	9135c000 	add	x0, x0, #0xd70
  401d18:	94003a04 	bl	410528 <_IO_puts>
  401d1c:	14000016 	b	401d74 <main+0x858>
  401d20:	52800040 	mov	w0, #0x2                   	// #2
  401d24:	79006fe0 	strh	w0, [sp, #54]
  401d28:	900002a0 	adrp	x0, 455000 <__gcc_personality_v0+0x240>
  401d2c:	91368000 	add	x0, x0, #0xda0
  401d30:	940039fe 	bl	410528 <_IO_puts>
  401d34:	14000010 	b	401d74 <main+0x858>
  401d38:	52800060 	mov	w0, #0x3                   	// #3
  401d3c:	79006fe0 	strh	w0, [sp, #54]
  401d40:	900002a0 	adrp	x0, 455000 <__gcc_personality_v0+0x240>
  401d44:	91374000 	add	x0, x0, #0xdd0
  401d48:	940039f8 	bl	410528 <_IO_puts>
  401d4c:	1400000a 	b	401d74 <main+0x858>
  401d50:	52800080 	mov	w0, #0x4                   	// #4
  401d54:	79006fe0 	strh	w0, [sp, #54]
  401d58:	900002a0 	adrp	x0, 455000 <__gcc_personality_v0+0x240>
  401d5c:	91380000 	add	x0, x0, #0xe00
  401d60:	940039f2 	bl	410528 <_IO_puts>
  401d64:	14000004 	b	401d74 <main+0x858>
  401d68:	12800000 	mov	w0, #0xffffffff            	// #-1
  401d6c:	790073e0 	strh	w0, [sp, #56]
  401d70:	d503201f 	nop
  401d74:	79c06fe0 	ldrsh	w0, [sp, #54]
  401d78:	7100001f 	cmp	w0, #0x0
  401d7c:	54001ceb 	b.lt	402118 <main+0xbfc>  // b.tstop
  401d80:	790063ff 	strh	wzr, [sp, #48]
  401d84:	140000df 	b	402100 <main+0xbe4>
  401d88:	794063e0 	ldrh	w0, [sp, #48]
  401d8c:	93407c01 	sxtw	x1, w0
  401d90:	aa0103e0 	mov	x0, x1
  401d94:	d37df000 	lsl	x0, x0, #3
  401d98:	cb010000 	sub	x0, x0, x1
  401d9c:	d37cec00 	lsl	x0, x0, #4
  401da0:	910303e1 	add	x1, sp, #0xc0
  401da4:	7820683f 	strh	wzr, [x1, x0]
  401da8:	794063e0 	ldrh	w0, [sp, #48]
  401dac:	93407c01 	sxtw	x1, w0
  401db0:	aa0103e0 	mov	x0, x1
  401db4:	d37df000 	lsl	x0, x0, #3
  401db8:	cb010000 	sub	x0, x0, x1
  401dbc:	d37cec00 	lsl	x0, x0, #4
  401dc0:	910223e1 	add	x1, sp, #0x88
  401dc4:	b8606820 	ldr	w0, [x1, x0]
  401dc8:	12000000 	and	w0, w0, #0x1
  401dcc:	7100001f 	cmp	w0, #0x0
  401dd0:	54000700 	b.eq	401eb0 <main+0x994>  // b.none
  401dd4:	794063e0 	ldrh	w0, [sp, #48]
  401dd8:	93407c01 	sxtw	x1, w0
  401ddc:	aa0103e0 	mov	x0, x1
  401de0:	d37df000 	lsl	x0, x0, #3
  401de4:	cb010000 	sub	x0, x0, x1
  401de8:	d37cec00 	lsl	x0, x0, #4
  401dec:	9102ebe1 	add	x1, sp, #0xba
  401df0:	78606821 	ldrh	w1, [x1, x0]
  401df4:	79c06fe2 	ldrsh	w2, [sp, #54]
  401df8:	b0000460 	adrp	x0, 48e000 <_GLOBAL_OFFSET_TABLE_+0xc8>
  401dfc:	91012000 	add	x0, x0, #0x48
  401e00:	93407c42 	sxtw	x2, w2
  401e04:	78627800 	ldrh	w0, [x0, x2, lsl #1]
  401e08:	6b00003f 	cmp	w1, w0
  401e0c:	54000520 	b.eq	401eb0 <main+0x994>  // b.none
  401e10:	794063e4 	ldrh	w4, [sp, #48]
  401e14:	794063e0 	ldrh	w0, [sp, #48]
  401e18:	93407c01 	sxtw	x1, w0
  401e1c:	aa0103e0 	mov	x0, x1
  401e20:	d37df000 	lsl	x0, x0, #3
  401e24:	cb010000 	sub	x0, x0, x1
  401e28:	d37cec00 	lsl	x0, x0, #4
  401e2c:	9102ebe1 	add	x1, sp, #0xba
  401e30:	78606820 	ldrh	w0, [x1, x0]
  401e34:	2a0003e2 	mov	w2, w0
  401e38:	79c06fe1 	ldrsh	w1, [sp, #54]
  401e3c:	b0000460 	adrp	x0, 48e000 <_GLOBAL_OFFSET_TABLE_+0xc8>
  401e40:	91012000 	add	x0, x0, #0x48
  401e44:	93407c21 	sxtw	x1, w1
  401e48:	78617800 	ldrh	w0, [x0, x1, lsl #1]
  401e4c:	2a0003e3 	mov	w3, w0
  401e50:	2a0403e1 	mov	w1, w4
  401e54:	900002a0 	adrp	x0, 455000 <__gcc_personality_v0+0x240>
  401e58:	9138c000 	add	x0, x0, #0xe30
  401e5c:	9400203f 	bl	409f58 <_IO_printf>
  401e60:	794063e2 	ldrh	w2, [sp, #48]
  401e64:	93407c41 	sxtw	x1, w2
  401e68:	aa0103e0 	mov	x0, x1
  401e6c:	d37df000 	lsl	x0, x0, #3
  401e70:	cb010000 	sub	x0, x0, x1
  401e74:	d37cec00 	lsl	x0, x0, #4
  401e78:	910303e1 	add	x1, sp, #0xc0
  401e7c:	78e06820 	ldrsh	w0, [x1, x0]
  401e80:	12003c00 	and	w0, w0, #0xffff
  401e84:	11000400 	add	w0, w0, #0x1
  401e88:	12003c00 	and	w0, w0, #0xffff
  401e8c:	13003c03 	sxth	w3, w0
  401e90:	93407c41 	sxtw	x1, w2
  401e94:	aa0103e0 	mov	x0, x1
  401e98:	d37df000 	lsl	x0, x0, #3
  401e9c:	cb010000 	sub	x0, x0, x1
  401ea0:	d37cec00 	lsl	x0, x0, #4
  401ea4:	910303e1 	add	x1, sp, #0xc0
  401ea8:	2a0303e2 	mov	w2, w3
  401eac:	78206822 	strh	w2, [x1, x0]
  401eb0:	794063e0 	ldrh	w0, [sp, #48]
  401eb4:	93407c01 	sxtw	x1, w0
  401eb8:	aa0103e0 	mov	x0, x1
  401ebc:	d37df000 	lsl	x0, x0, #3
  401ec0:	cb010000 	sub	x0, x0, x1
  401ec4:	d37cec00 	lsl	x0, x0, #4
  401ec8:	910223e1 	add	x1, sp, #0x88
  401ecc:	b8606820 	ldr	w0, [x1, x0]
  401ed0:	121f0000 	and	w0, w0, #0x2
  401ed4:	7100001f 	cmp	w0, #0x0
  401ed8:	54000700 	b.eq	401fb8 <main+0xa9c>  // b.none
  401edc:	794063e0 	ldrh	w0, [sp, #48]
  401ee0:	93407c01 	sxtw	x1, w0
  401ee4:	aa0103e0 	mov	x0, x1
  401ee8:	d37df000 	lsl	x0, x0, #3
  401eec:	cb010000 	sub	x0, x0, x1
  401ef0:	d37cec00 	lsl	x0, x0, #4
  401ef4:	9102f3e1 	add	x1, sp, #0xbc
  401ef8:	78606821 	ldrh	w1, [x1, x0]
  401efc:	79c06fe2 	ldrsh	w2, [sp, #54]
  401f00:	b0000460 	adrp	x0, 48e000 <_GLOBAL_OFFSET_TABLE_+0xc8>
  401f04:	91016000 	add	x0, x0, #0x58
  401f08:	93407c42 	sxtw	x2, w2
  401f0c:	78627800 	ldrh	w0, [x0, x2, lsl #1]
  401f10:	6b00003f 	cmp	w1, w0
  401f14:	54000520 	b.eq	401fb8 <main+0xa9c>  // b.none
  401f18:	794063e4 	ldrh	w4, [sp, #48]
  401f1c:	794063e0 	ldrh	w0, [sp, #48]
  401f20:	93407c01 	sxtw	x1, w0
  401f24:	aa0103e0 	mov	x0, x1
  401f28:	d37df000 	lsl	x0, x0, #3
  401f2c:	cb010000 	sub	x0, x0, x1
  401f30:	d37cec00 	lsl	x0, x0, #4
  401f34:	9102f3e1 	add	x1, sp, #0xbc
  401f38:	78606820 	ldrh	w0, [x1, x0]
  401f3c:	2a0003e2 	mov	w2, w0
  401f40:	79c06fe1 	ldrsh	w1, [sp, #54]
  401f44:	b0000460 	adrp	x0, 48e000 <_GLOBAL_OFFSET_TABLE_+0xc8>
  401f48:	91016000 	add	x0, x0, #0x58
  401f4c:	93407c21 	sxtw	x1, w1
  401f50:	78617800 	ldrh	w0, [x0, x1, lsl #1]
  401f54:	2a0003e3 	mov	w3, w0
  401f58:	2a0403e1 	mov	w1, w4
  401f5c:	900002a0 	adrp	x0, 455000 <__gcc_personality_v0+0x240>
  401f60:	91398000 	add	x0, x0, #0xe60
  401f64:	94001ffd 	bl	409f58 <_IO_printf>
  401f68:	794063e2 	ldrh	w2, [sp, #48]
  401f6c:	93407c41 	sxtw	x1, w2
  401f70:	aa0103e0 	mov	x0, x1
  401f74:	d37df000 	lsl	x0, x0, #3
  401f78:	cb010000 	sub	x0, x0, x1
  401f7c:	d37cec00 	lsl	x0, x0, #4
  401f80:	910303e1 	add	x1, sp, #0xc0
  401f84:	78e06820 	ldrsh	w0, [x1, x0]
  401f88:	12003c00 	and	w0, w0, #0xffff
  401f8c:	11000400 	add	w0, w0, #0x1
  401f90:	12003c00 	and	w0, w0, #0xffff
  401f94:	13003c03 	sxth	w3, w0
  401f98:	93407c41 	sxtw	x1, w2
  401f9c:	aa0103e0 	mov	x0, x1
  401fa0:	d37df000 	lsl	x0, x0, #3
  401fa4:	cb010000 	sub	x0, x0, x1
  401fa8:	d37cec00 	lsl	x0, x0, #4
  401fac:	910303e1 	add	x1, sp, #0xc0
  401fb0:	2a0303e2 	mov	w2, w3
  401fb4:	78206822 	strh	w2, [x1, x0]
  401fb8:	794063e0 	ldrh	w0, [sp, #48]
  401fbc:	93407c01 	sxtw	x1, w0
  401fc0:	aa0103e0 	mov	x0, x1
  401fc4:	d37df000 	lsl	x0, x0, #3
  401fc8:	cb010000 	sub	x0, x0, x1
  401fcc:	d37cec00 	lsl	x0, x0, #4
  401fd0:	910223e1 	add	x1, sp, #0x88
  401fd4:	b8606820 	ldr	w0, [x1, x0]
  401fd8:	121e0000 	and	w0, w0, #0x4
  401fdc:	7100001f 	cmp	w0, #0x0
  401fe0:	54000700 	b.eq	4020c0 <main+0xba4>  // b.none
  401fe4:	794063e0 	ldrh	w0, [sp, #48]
  401fe8:	93407c01 	sxtw	x1, w0
  401fec:	aa0103e0 	mov	x0, x1
  401ff0:	d37df000 	lsl	x0, x0, #3
  401ff4:	cb010000 	sub	x0, x0, x1
  401ff8:	d37cec00 	lsl	x0, x0, #4
  401ffc:	9102fbe1 	add	x1, sp, #0xbe
  402000:	78606821 	ldrh	w1, [x1, x0]
  402004:	79c06fe2 	ldrsh	w2, [sp, #54]
  402008:	90000460 	adrp	x0, 48e000 <_GLOBAL_OFFSET_TABLE_+0xc8>
  40200c:	9101a000 	add	x0, x0, #0x68
  402010:	93407c42 	sxtw	x2, w2
  402014:	78627800 	ldrh	w0, [x0, x2, lsl #1]
  402018:	6b00003f 	cmp	w1, w0
  40201c:	54000520 	b.eq	4020c0 <main+0xba4>  // b.none
  402020:	794063e4 	ldrh	w4, [sp, #48]
  402024:	794063e0 	ldrh	w0, [sp, #48]
  402028:	93407c01 	sxtw	x1, w0
  40202c:	aa0103e0 	mov	x0, x1
  402030:	d37df000 	lsl	x0, x0, #3
  402034:	cb010000 	sub	x0, x0, x1
  402038:	d37cec00 	lsl	x0, x0, #4
  40203c:	9102fbe1 	add	x1, sp, #0xbe
  402040:	78606820 	ldrh	w0, [x1, x0]
  402044:	2a0003e2 	mov	w2, w0
  402048:	79c06fe1 	ldrsh	w1, [sp, #54]
  40204c:	90000460 	adrp	x0, 48e000 <_GLOBAL_OFFSET_TABLE_+0xc8>
  402050:	9101a000 	add	x0, x0, #0x68
  402054:	93407c21 	sxtw	x1, w1
  402058:	78617800 	ldrh	w0, [x0, x1, lsl #1]
  40205c:	2a0003e3 	mov	w3, w0
  402060:	2a0403e1 	mov	w1, w4
  402064:	f0000280 	adrp	x0, 455000 <__gcc_personality_v0+0x240>
  402068:	913a6000 	add	x0, x0, #0xe98
  40206c:	94001fbb 	bl	409f58 <_IO_printf>
  402070:	794063e2 	ldrh	w2, [sp, #48]
  402074:	93407c41 	sxtw	x1, w2
  402078:	aa0103e0 	mov	x0, x1
  40207c:	d37df000 	lsl	x0, x0, #3
  402080:	cb010000 	sub	x0, x0, x1
  402084:	d37cec00 	lsl	x0, x0, #4
  402088:	910303e1 	add	x1, sp, #0xc0
  40208c:	78e06820 	ldrsh	w0, [x1, x0]
  402090:	12003c00 	and	w0, w0, #0xffff
  402094:	11000400 	add	w0, w0, #0x1
  402098:	12003c00 	and	w0, w0, #0xffff
  40209c:	13003c03 	sxth	w3, w0
  4020a0:	93407c41 	sxtw	x1, w2
  4020a4:	aa0103e0 	mov	x0, x1
  4020a8:	d37df000 	lsl	x0, x0, #3
  4020ac:	cb010000 	sub	x0, x0, x1
  4020b0:	d37cec00 	lsl	x0, x0, #4
  4020b4:	910303e1 	add	x1, sp, #0xc0
  4020b8:	2a0303e2 	mov	w2, w3
  4020bc:	78206822 	strh	w2, [x1, x0]
  4020c0:	794063e0 	ldrh	w0, [sp, #48]
  4020c4:	93407c01 	sxtw	x1, w0
  4020c8:	aa0103e0 	mov	x0, x1
  4020cc:	d37df000 	lsl	x0, x0, #3
  4020d0:	cb010000 	sub	x0, x0, x1
  4020d4:	d37cec00 	lsl	x0, x0, #4
  4020d8:	910303e1 	add	x1, sp, #0xc0
  4020dc:	78e06820 	ldrsh	w0, [x1, x0]
  4020e0:	12003c01 	and	w1, w0, #0xffff
  4020e4:	794073e0 	ldrh	w0, [sp, #56]
  4020e8:	0b000020 	add	w0, w1, w0
  4020ec:	12003c00 	and	w0, w0, #0xffff
  4020f0:	790073e0 	strh	w0, [sp, #56]
  4020f4:	794063e0 	ldrh	w0, [sp, #48]
  4020f8:	11000400 	add	w0, w0, #0x1
  4020fc:	790063e0 	strh	w0, [sp, #48]
  402100:	794063e1 	ldrh	w1, [sp, #48]
  402104:	f0000440 	adrp	x0, 48d000 <__FRAME_END__+0x1034c>
  402108:	f947e800 	ldr	x0, [x0, #4048]
  40210c:	b9400000 	ldr	w0, [x0]
  402110:	6b00003f 	cmp	w1, w0
  402114:	54ffe3a3 	b.cc	401d88 <main+0x86c>  // b.lo, b.ul, b.last
  402118:	940006d3 	bl	403c64 <check_data_types>
  40211c:	12001c00 	and	w0, w0, #0xff
  402120:	12003c01 	and	w1, w0, #0xffff
  402124:	794073e0 	ldrh	w0, [sp, #56]
  402128:	0b000020 	add	w0, w1, w0
  40212c:	12003c00 	and	w0, w0, #0xffff
  402130:	790073e0 	strh	w0, [sp, #56]
  402134:	b94083e0 	ldr	w0, [sp, #128]
  402138:	2a0003e0 	mov	w0, w0
  40213c:	aa0003e1 	mov	x1, x0
  402140:	f0000280 	adrp	x0, 455000 <__gcc_personality_v0+0x240>
  402144:	913b2000 	add	x0, x0, #0xec8
  402148:	94001f84 	bl	409f58 <_IO_printf>
  40214c:	f9402be0 	ldr	x0, [sp, #80]
  402150:	aa0003e1 	mov	x1, x0
  402154:	f0000280 	adrp	x0, 455000 <__gcc_personality_v0+0x240>
  402158:	913b8000 	add	x0, x0, #0xee0
  40215c:	94001f7f 	bl	409f58 <_IO_printf>
  402160:	f9402be0 	ldr	x0, [sp, #80]
  402164:	94000710 	bl	403da4 <time_in_secs>
  402168:	f0000280 	adrp	x0, 455000 <__gcc_personality_v0+0x240>
  40216c:	913be000 	add	x0, x0, #0xef8
  402170:	94001f7a 	bl	409f58 <_IO_printf>
  402174:	f9402be0 	ldr	x0, [sp, #80]
  402178:	9400070b 	bl	403da4 <time_in_secs>
  40217c:	1e602018 	fcmpe	d0, #0.0
  402180:	540001ad 	b.le	4021b4 <main+0xc98>
  402184:	b94087e1 	ldr	w1, [sp, #132]
  402188:	f0000440 	adrp	x0, 48d000 <__FRAME_END__+0x1034c>
  40218c:	f947e800 	ldr	x0, [x0, #4048]
  402190:	b9400000 	ldr	w0, [x0]
  402194:	1b007c20 	mul	w0, w1, w0
  402198:	1e630008 	ucvtf	d8, w0
  40219c:	f9402be0 	ldr	x0, [sp, #80]
  4021a0:	94000701 	bl	403da4 <time_in_secs>
  4021a4:	1e601900 	fdiv	d0, d8, d0
  4021a8:	f0000280 	adrp	x0, 455000 <__gcc_personality_v0+0x240>
  4021ac:	913c4000 	add	x0, x0, #0xf10
  4021b0:	94001f6a 	bl	409f58 <_IO_printf>
  4021b4:	f9402be0 	ldr	x0, [sp, #80]
  4021b8:	940006fb 	bl	403da4 <time_in_secs>
  4021bc:	1e604001 	fmov	d1, d0
  4021c0:	1e649000 	fmov	d0, #1.000000000000000000e+01
  4021c4:	1e602030 	fcmpe	d1, d0
  4021c8:	54000125 	b.pl	4021ec <main+0xcd0>  // b.nfrst
  4021cc:	f0000280 	adrp	x0, 455000 <__gcc_personality_v0+0x240>
  4021d0:	913ca000 	add	x0, x0, #0xf28
  4021d4:	940038d5 	bl	410528 <_IO_puts>
  4021d8:	79c073e0 	ldrsh	w0, [sp, #56]
  4021dc:	12003c00 	and	w0, w0, #0xffff
  4021e0:	11000400 	add	w0, w0, #0x1
  4021e4:	12003c00 	and	w0, w0, #0xffff
  4021e8:	790073e0 	strh	w0, [sp, #56]
  4021ec:	f0000440 	adrp	x0, 48d000 <__FRAME_END__+0x1034c>
  4021f0:	f947e800 	ldr	x0, [x0, #4048]
  4021f4:	b9400000 	ldr	w0, [x0]
  4021f8:	2a0003e1 	mov	w1, w0
  4021fc:	b94087e0 	ldr	w0, [sp, #132]
  402200:	2a0003e0 	mov	w0, w0
  402204:	9b007c20 	mul	x0, x1, x0
  402208:	aa0003e1 	mov	x1, x0
  40220c:	f0000280 	adrp	x0, 455000 <__gcc_personality_v0+0x240>
  402210:	913da000 	add	x0, x0, #0xf68
  402214:	94001f51 	bl	409f58 <_IO_printf>
  402218:	f0000280 	adrp	x0, 455000 <__gcc_personality_v0+0x240>
  40221c:	913e0001 	add	x1, x0, #0xf80
  402220:	f0000280 	adrp	x0, 455000 <__gcc_personality_v0+0x240>
  402224:	913e4000 	add	x0, x0, #0xf90
  402228:	94001f4c 	bl	409f58 <_IO_printf>
  40222c:	f0000280 	adrp	x0, 455000 <__gcc_personality_v0+0x240>
  402230:	913ea001 	add	x1, x0, #0xfa8
  402234:	f0000280 	adrp	x0, 455000 <__gcc_personality_v0+0x240>
  402238:	913f2000 	add	x0, x0, #0xfc8
  40223c:	94001f47 	bl	409f58 <_IO_printf>
  402240:	f0000280 	adrp	x0, 455000 <__gcc_personality_v0+0x240>
  402244:	913f8001 	add	x1, x0, #0xfe0
  402248:	900002a0 	adrp	x0, 456000 <_IO_stdin_used+0x300>
  40224c:	9100c000 	add	x0, x0, #0x30
  402250:	94001f42 	bl	409f58 <_IO_printf>
  402254:	794077e0 	ldrh	w0, [sp, #58]
  402258:	2a0003e1 	mov	w1, w0
  40225c:	900002a0 	adrp	x0, 456000 <_IO_stdin_used+0x300>
  402260:	91012000 	add	x0, x0, #0x48
  402264:	94001f3d 	bl	409f58 <_IO_printf>
  402268:	b9408be0 	ldr	w0, [sp, #136]
  40226c:	12000000 	and	w0, w0, #0x1
  402270:	7100001f 	cmp	w0, #0x0
  402274:	54000340 	b.eq	4022dc <main+0xdc0>  // b.none
  402278:	790063ff 	strh	wzr, [sp, #48]
  40227c:	14000012 	b	4022c4 <main+0xda8>
  402280:	794063e3 	ldrh	w3, [sp, #48]
  402284:	794063e0 	ldrh	w0, [sp, #48]
  402288:	93407c01 	sxtw	x1, w0
  40228c:	aa0103e0 	mov	x0, x1
  402290:	d37df000 	lsl	x0, x0, #3
  402294:	cb010000 	sub	x0, x0, x1
  402298:	d37cec00 	lsl	x0, x0, #4
  40229c:	9102ebe1 	add	x1, sp, #0xba
  4022a0:	78606820 	ldrh	w0, [x1, x0]
  4022a4:	2a0003e2 	mov	w2, w0
  4022a8:	2a0303e1 	mov	w1, w3
  4022ac:	900002a0 	adrp	x0, 456000 <_IO_stdin_used+0x300>
  4022b0:	9101a000 	add	x0, x0, #0x68
  4022b4:	94001f29 	bl	409f58 <_IO_printf>
  4022b8:	794063e0 	ldrh	w0, [sp, #48]
  4022bc:	11000400 	add	w0, w0, #0x1
  4022c0:	790063e0 	strh	w0, [sp, #48]
  4022c4:	794063e1 	ldrh	w1, [sp, #48]
  4022c8:	f0000440 	adrp	x0, 48d000 <__FRAME_END__+0x1034c>
  4022cc:	f947e800 	ldr	x0, [x0, #4048]
  4022d0:	b9400000 	ldr	w0, [x0]
  4022d4:	6b00003f 	cmp	w1, w0
  4022d8:	54fffd43 	b.cc	402280 <main+0xd64>  // b.lo, b.ul, b.last
  4022dc:	b9408be0 	ldr	w0, [sp, #136]
  4022e0:	121f0000 	and	w0, w0, #0x2
  4022e4:	7100001f 	cmp	w0, #0x0
  4022e8:	54000340 	b.eq	402350 <main+0xe34>  // b.none
  4022ec:	790063ff 	strh	wzr, [sp, #48]
  4022f0:	14000012 	b	402338 <main+0xe1c>
  4022f4:	794063e3 	ldrh	w3, [sp, #48]
  4022f8:	794063e0 	ldrh	w0, [sp, #48]
  4022fc:	93407c01 	sxtw	x1, w0
  402300:	aa0103e0 	mov	x0, x1
  402304:	d37df000 	lsl	x0, x0, #3
  402308:	cb010000 	sub	x0, x0, x1
  40230c:	d37cec00 	lsl	x0, x0, #4
  402310:	9102f3e1 	add	x1, sp, #0xbc
  402314:	78606820 	ldrh	w0, [x1, x0]
  402318:	2a0003e2 	mov	w2, w0
  40231c:	2a0303e1 	mov	w1, w3
  402320:	900002a0 	adrp	x0, 456000 <_IO_stdin_used+0x300>
  402324:	91022000 	add	x0, x0, #0x88
  402328:	94001f0c 	bl	409f58 <_IO_printf>
  40232c:	794063e0 	ldrh	w0, [sp, #48]
  402330:	11000400 	add	w0, w0, #0x1
  402334:	790063e0 	strh	w0, [sp, #48]
  402338:	794063e1 	ldrh	w1, [sp, #48]
  40233c:	f0000440 	adrp	x0, 48d000 <__FRAME_END__+0x1034c>
  402340:	f947e800 	ldr	x0, [x0, #4048]
  402344:	b9400000 	ldr	w0, [x0]
  402348:	6b00003f 	cmp	w1, w0
  40234c:	54fffd43 	b.cc	4022f4 <main+0xdd8>  // b.lo, b.ul, b.last
  402350:	b9408be0 	ldr	w0, [sp, #136]
  402354:	121e0000 	and	w0, w0, #0x4
  402358:	7100001f 	cmp	w0, #0x0
  40235c:	54000340 	b.eq	4023c4 <main+0xea8>  // b.none
  402360:	790063ff 	strh	wzr, [sp, #48]
  402364:	14000012 	b	4023ac <main+0xe90>
  402368:	794063e3 	ldrh	w3, [sp, #48]
  40236c:	794063e0 	ldrh	w0, [sp, #48]
  402370:	93407c01 	sxtw	x1, w0
  402374:	aa0103e0 	mov	x0, x1
  402378:	d37df000 	lsl	x0, x0, #3
  40237c:	cb010000 	sub	x0, x0, x1
  402380:	d37cec00 	lsl	x0, x0, #4
  402384:	9102fbe1 	add	x1, sp, #0xbe
  402388:	78606820 	ldrh	w0, [x1, x0]
  40238c:	2a0003e2 	mov	w2, w0
  402390:	2a0303e1 	mov	w1, w3
  402394:	900002a0 	adrp	x0, 456000 <_IO_stdin_used+0x300>
  402398:	9102a000 	add	x0, x0, #0xa8
  40239c:	94001eef 	bl	409f58 <_IO_printf>
  4023a0:	794063e0 	ldrh	w0, [sp, #48]
  4023a4:	11000400 	add	w0, w0, #0x1
  4023a8:	790063e0 	strh	w0, [sp, #48]
  4023ac:	794063e1 	ldrh	w1, [sp, #48]
  4023b0:	f0000440 	adrp	x0, 48d000 <__FRAME_END__+0x1034c>
  4023b4:	f947e800 	ldr	x0, [x0, #4048]
  4023b8:	b9400000 	ldr	w0, [x0]
  4023bc:	6b00003f 	cmp	w1, w0
  4023c0:	54fffd43 	b.cc	402368 <main+0xe4c>  // b.lo, b.ul, b.last
  4023c4:	790063ff 	strh	wzr, [sp, #48]
  4023c8:	14000012 	b	402410 <main+0xef4>
  4023cc:	794063e3 	ldrh	w3, [sp, #48]
  4023d0:	794063e0 	ldrh	w0, [sp, #48]
  4023d4:	93407c01 	sxtw	x1, w0
  4023d8:	aa0103e0 	mov	x0, x1
  4023dc:	d37df000 	lsl	x0, x0, #3
  4023e0:	cb010000 	sub	x0, x0, x1
  4023e4:	d37cec00 	lsl	x0, x0, #4
  4023e8:	9102e3e1 	add	x1, sp, #0xb8
  4023ec:	78606820 	ldrh	w0, [x1, x0]
  4023f0:	2a0003e2 	mov	w2, w0
  4023f4:	2a0303e1 	mov	w1, w3
  4023f8:	900002a0 	adrp	x0, 456000 <_IO_stdin_used+0x300>
  4023fc:	91032000 	add	x0, x0, #0xc8
  402400:	94001ed6 	bl	409f58 <_IO_printf>
  402404:	794063e0 	ldrh	w0, [sp, #48]
  402408:	11000400 	add	w0, w0, #0x1
  40240c:	790063e0 	strh	w0, [sp, #48]
  402410:	794063e1 	ldrh	w1, [sp, #48]
  402414:	f0000440 	adrp	x0, 48d000 <__FRAME_END__+0x1034c>
  402418:	f947e800 	ldr	x0, [x0, #4048]
  40241c:	b9400000 	ldr	w0, [x0]
  402420:	6b00003f 	cmp	w1, w0
  402424:	54fffd43 	b.cc	4023cc <main+0xeb0>  // b.lo, b.ul, b.last
  402428:	79c073e0 	ldrsh	w0, [sp, #56]
  40242c:	7100001f 	cmp	w0, #0x0
  402430:	54000401 	b.ne	4024b0 <main+0xf94>  // b.any
  402434:	900002a0 	adrp	x0, 456000 <_IO_stdin_used+0x300>
  402438:	9103a000 	add	x0, x0, #0xe8
  40243c:	9400383b 	bl	410528 <_IO_puts>
  402440:	79c06fe0 	ldrsh	w0, [sp, #54]
  402444:	71000c1f 	cmp	w0, #0x3
  402448:	54000341 	b.ne	4024b0 <main+0xf94>  // b.any
  40244c:	b94087e1 	ldr	w1, [sp, #132]
  402450:	f0000440 	adrp	x0, 48d000 <__FRAME_END__+0x1034c>
  402454:	f947e800 	ldr	x0, [x0, #4048]
  402458:	b9400000 	ldr	w0, [x0]
  40245c:	1b007c20 	mul	w0, w1, w0
  402460:	1e630008 	ucvtf	d8, w0
  402464:	f9402be0 	ldr	x0, [sp, #80]
  402468:	9400064f 	bl	403da4 <time_in_secs>
  40246c:	1e601900 	fdiv	d0, d8, d0
  402470:	f0000280 	adrp	x0, 455000 <__gcc_personality_v0+0x240>
  402474:	913ea002 	add	x2, x0, #0xfa8
  402478:	f0000280 	adrp	x0, 455000 <__gcc_personality_v0+0x240>
  40247c:	913e0001 	add	x1, x0, #0xf80
  402480:	900002a0 	adrp	x0, 456000 <_IO_stdin_used+0x300>
  402484:	9104c000 	add	x0, x0, #0x130
  402488:	94001eb4 	bl	409f58 <_IO_printf>
  40248c:	90000460 	adrp	x0, 48e000 <_GLOBAL_OFFSET_TABLE_+0xc8>
  402490:	9101e000 	add	x0, x0, #0x78
  402494:	f9400400 	ldr	x0, [x0, #8]
  402498:	aa0003e1 	mov	x1, x0
  40249c:	900002a0 	adrp	x0, 456000 <_IO_stdin_used+0x300>
  4024a0:	91054000 	add	x0, x0, #0x150
  4024a4:	94001ead 	bl	409f58 <_IO_printf>
  4024a8:	52800140 	mov	w0, #0xa                   	// #10
  4024ac:	940038a1 	bl	410730 <putchar>
  4024b0:	79c073e0 	ldrsh	w0, [sp, #56]
  4024b4:	7100001f 	cmp	w0, #0x0
  4024b8:	5400008d 	b.le	4024c8 <main+0xfac>
  4024bc:	900002a0 	adrp	x0, 456000 <_IO_stdin_used+0x300>
  4024c0:	91056000 	add	x0, x0, #0x158
  4024c4:	94003819 	bl	410528 <_IO_puts>
  4024c8:	79c073e0 	ldrsh	w0, [sp, #56]
  4024cc:	7100001f 	cmp	w0, #0x0
  4024d0:	5400008a 	b.ge	4024e0 <main+0xfc4>  // b.tcont
  4024d4:	900002a0 	adrp	x0, 456000 <_IO_stdin_used+0x300>
  4024d8:	9105a000 	add	x0, x0, #0x168
  4024dc:	94003813 	bl	410528 <_IO_puts>
  4024e0:	790063ff 	strh	wzr, [sp, #48]
  4024e4:	1400000d 	b	402518 <main+0xffc>
  4024e8:	794063e0 	ldrh	w0, [sp, #48]
  4024ec:	93407c01 	sxtw	x1, w0
  4024f0:	aa0103e0 	mov	x0, x1
  4024f4:	d37df000 	lsl	x0, x0, #3
  4024f8:	cb010000 	sub	x0, x0, x1
  4024fc:	d37cec00 	lsl	x0, x0, #4
  402500:	910183e1 	add	x1, sp, #0x60
  402504:	f8606820 	ldr	x0, [x1, x0]
  402508:	940005ea 	bl	403cb0 <portable_free>
  40250c:	794063e0 	ldrh	w0, [sp, #48]
  402510:	11000400 	add	w0, w0, #0x1
  402514:	790063e0 	strh	w0, [sp, #48]
  402518:	794063e0 	ldrh	w0, [sp, #48]
  40251c:	7100001f 	cmp	w0, #0x0
  402520:	54fffe40 	b.eq	4024e8 <main+0xfcc>  // b.none
  402524:	910163e0 	add	x0, sp, #0x58
  402528:	9101a800 	add	x0, x0, #0x6a
  40252c:	94000634 	bl	403dfc <portable_fini>
  402530:	52800000 	mov	w0, #0x0                   	// #0
  402534:	2a0003e1 	mov	w1, w0
  402538:	f0000440 	adrp	x0, 48d000 <__FRAME_END__+0x1034c>
  40253c:	f947a400 	ldr	x0, [x0, #3912]
  402540:	f94067e2 	ldr	x2, [sp, #200]
  402544:	f9400003 	ldr	x3, [x0]
  402548:	eb030042 	subs	x2, x2, x3
  40254c:	d2800003 	mov	x3, #0x0                   	// #0
  402550:	54000040 	b.eq	402558 <main+0x103c>  // b.none
  402554:	94008703 	bl	424160 <__stack_chk_fail>
  402558:	2a0103e0 	mov	w0, w1
  40255c:	f9400bf3 	ldr	x19, [sp, #16]
  402560:	fd400fe8 	ldr	d8, [sp, #24]
  402564:	a8cd7bfd 	ldp	x29, x30, [sp], #208
  402568:	d65f03c0 	ret

000000000040256c <core_bench_matrix>:
  40256c:	a9bc7bfd 	stp	x29, x30, [sp, #-64]!
  402570:	910003fd 	mov	x29, sp
  402574:	f9000fe0 	str	x0, [sp, #24]
  402578:	79002fe1 	strh	w1, [sp, #22]
  40257c:	79002be2 	strh	w2, [sp, #20]
  402580:	f9400fe0 	ldr	x0, [sp, #24]
  402584:	b9400000 	ldr	w0, [x0]
  402588:	b90027e0 	str	w0, [sp, #36]
  40258c:	f9400fe0 	ldr	x0, [sp, #24]
  402590:	f9400c00 	ldr	x0, [x0, #24]
  402594:	f90017e0 	str	x0, [sp, #40]
  402598:	f9400fe0 	ldr	x0, [sp, #24]
  40259c:	f9400400 	ldr	x0, [x0, #8]
  4025a0:	f9001be0 	str	x0, [sp, #48]
  4025a4:	f9400fe0 	ldr	x0, [sp, #24]
  4025a8:	f9400800 	ldr	x0, [x0, #16]
  4025ac:	f9001fe0 	str	x0, [sp, #56]
  4025b0:	79402fe0 	ldrh	w0, [sp, #22]
  4025b4:	790047e0 	strh	w0, [sp, #34]
  4025b8:	794047e4 	ldrh	w4, [sp, #34]
  4025bc:	f9401fe3 	ldr	x3, [sp, #56]
  4025c0:	f9401be2 	ldr	x2, [sp, #48]
  4025c4:	f94017e1 	ldr	x1, [sp, #40]
  4025c8:	b94027e0 	ldr	w0, [sp, #36]
  4025cc:	94000008 	bl	4025ec <matrix_test>
  4025d0:	13003c00 	sxth	w0, w0
  4025d4:	79402be1 	ldrh	w1, [sp, #20]
  4025d8:	94000599 	bl	403c3c <crc16>
  4025dc:	79002be0 	strh	w0, [sp, #20]
  4025e0:	79402be0 	ldrh	w0, [sp, #20]
  4025e4:	a8c47bfd 	ldp	x29, x30, [sp], #64
  4025e8:	d65f03c0 	ret

00000000004025ec <matrix_test>:
  4025ec:	a9bc7bfd 	stp	x29, x30, [sp, #-64]!
  4025f0:	910003fd 	mov	x29, sp
  4025f4:	b9002fe0 	str	w0, [sp, #44]
  4025f8:	f90013e1 	str	x1, [sp, #32]
  4025fc:	f9000fe2 	str	x2, [sp, #24]
  402600:	f9000be3 	str	x3, [sp, #16]
  402604:	790057e4 	strh	w4, [sp, #42]
  402608:	79007bff 	strh	wzr, [sp, #60]
  40260c:	794057e0 	ldrh	w0, [sp, #42]
  402610:	32144c00 	orr	w0, w0, #0xfffff000
  402614:	79007fe0 	strh	w0, [sp, #62]
  402618:	794057e2 	ldrh	w2, [sp, #42]
  40261c:	f9400fe1 	ldr	x1, [sp, #24]
  402620:	b9402fe0 	ldr	w0, [sp, #44]
  402624:	94000139 	bl	402b08 <matrix_add_const>
  402628:	794057e3 	ldrh	w3, [sp, #42]
  40262c:	f9400fe2 	ldr	x2, [sp, #24]
  402630:	f94013e1 	ldr	x1, [sp, #32]
  402634:	b9402fe0 	ldr	w0, [sp, #44]
  402638:	94000102 	bl	402a40 <matrix_mul_const>
  40263c:	79407fe2 	ldrh	w2, [sp, #62]
  402640:	f94013e1 	ldr	x1, [sp, #32]
  402644:	b9402fe0 	ldr	w0, [sp, #44]
  402648:	940000bc 	bl	402938 <matrix_sum>
  40264c:	13003c00 	sxth	w0, w0
  402650:	79407be1 	ldrh	w1, [sp, #60]
  402654:	9400057a 	bl	403c3c <crc16>
  402658:	79007be0 	strh	w0, [sp, #60]
  40265c:	f9400be3 	ldr	x3, [sp, #16]
  402660:	f9400fe2 	ldr	x2, [sp, #24]
  402664:	f94013e1 	ldr	x1, [sp, #32]
  402668:	b9402fe0 	ldr	w0, [sp, #44]
  40266c:	9400015a 	bl	402bd4 <matrix_mul_vect>
  402670:	79407fe2 	ldrh	w2, [sp, #62]
  402674:	f94013e1 	ldr	x1, [sp, #32]
  402678:	b9402fe0 	ldr	w0, [sp, #44]
  40267c:	940000af 	bl	402938 <matrix_sum>
  402680:	13003c00 	sxth	w0, w0
  402684:	79407be1 	ldrh	w1, [sp, #60]
  402688:	9400056d 	bl	403c3c <crc16>
  40268c:	79007be0 	strh	w0, [sp, #60]
  402690:	f9400be3 	ldr	x3, [sp, #16]
  402694:	f9400fe2 	ldr	x2, [sp, #24]
  402698:	f94013e1 	ldr	x1, [sp, #32]
  40269c:	b9402fe0 	ldr	w0, [sp, #44]
  4026a0:	94000189 	bl	402cc4 <matrix_mul_matrix>
  4026a4:	79407fe2 	ldrh	w2, [sp, #62]
  4026a8:	f94013e1 	ldr	x1, [sp, #32]
  4026ac:	b9402fe0 	ldr	w0, [sp, #44]
  4026b0:	940000a2 	bl	402938 <matrix_sum>
  4026b4:	13003c00 	sxth	w0, w0
  4026b8:	79407be1 	ldrh	w1, [sp, #60]
  4026bc:	94000560 	bl	403c3c <crc16>
  4026c0:	79007be0 	strh	w0, [sp, #60]
  4026c4:	f9400be3 	ldr	x3, [sp, #16]
  4026c8:	f9400fe2 	ldr	x2, [sp, #24]
  4026cc:	f94013e1 	ldr	x1, [sp, #32]
  4026d0:	b9402fe0 	ldr	w0, [sp, #44]
  4026d4:	940001d5 	bl	402e28 <matrix_mul_matrix_bitextract>
  4026d8:	79407fe2 	ldrh	w2, [sp, #62]
  4026dc:	f94013e1 	ldr	x1, [sp, #32]
  4026e0:	b9402fe0 	ldr	w0, [sp, #44]
  4026e4:	94000095 	bl	402938 <matrix_sum>
  4026e8:	13003c00 	sxth	w0, w0
  4026ec:	79407be1 	ldrh	w1, [sp, #60]
  4026f0:	94000553 	bl	403c3c <crc16>
  4026f4:	79007be0 	strh	w0, [sp, #60]
  4026f8:	794057e0 	ldrh	w0, [sp, #42]
  4026fc:	4b0003e0 	neg	w0, w0
  402700:	12003c00 	and	w0, w0, #0xffff
  402704:	13003c00 	sxth	w0, w0
  402708:	2a0003e2 	mov	w2, w0
  40270c:	f9400fe1 	ldr	x1, [sp, #24]
  402710:	b9402fe0 	ldr	w0, [sp, #44]
  402714:	940000fd 	bl	402b08 <matrix_add_const>
  402718:	79c07be0 	ldrsh	w0, [sp, #60]
  40271c:	a8c47bfd 	ldp	x29, x30, [sp], #64
  402720:	d65f03c0 	ret

0000000000402724 <core_init_matrix>:
  402724:	d10143ff 	sub	sp, sp, #0x50
  402728:	b9001fe0 	str	w0, [sp, #28]
  40272c:	f9000be1 	str	x1, [sp, #16]
  402730:	b9001be2 	str	w2, [sp, #24]
  402734:	f90007e3 	str	x3, [sp, #8]
  402738:	b9003fff 	str	wzr, [sp, #60]
  40273c:	52800020 	mov	w0, #0x1                   	// #1
  402740:	b90033e0 	str	w0, [sp, #48]
  402744:	b90037ff 	str	wzr, [sp, #52]
  402748:	b9003bff 	str	wzr, [sp, #56]
  40274c:	b9401be0 	ldr	w0, [sp, #24]
  402750:	7100001f 	cmp	w0, #0x0
  402754:	54000161 	b.ne	402780 <core_init_matrix+0x5c>  // b.any
  402758:	52800020 	mov	w0, #0x1                   	// #1
  40275c:	b9001be0 	str	w0, [sp, #24]
  402760:	14000008 	b	402780 <core_init_matrix+0x5c>
  402764:	b94037e0 	ldr	w0, [sp, #52]
  402768:	11000400 	add	w0, w0, #0x1
  40276c:	b90037e0 	str	w0, [sp, #52]
  402770:	b94037e0 	ldr	w0, [sp, #52]
  402774:	1b007c00 	mul	w0, w0, w0
  402778:	531d7000 	lsl	w0, w0, #3
  40277c:	b9003be0 	str	w0, [sp, #56]
  402780:	b9403be1 	ldr	w1, [sp, #56]
  402784:	b9401fe0 	ldr	w0, [sp, #28]
  402788:	6b00003f 	cmp	w1, w0
  40278c:	54fffec3 	b.cc	402764 <core_init_matrix+0x40>  // b.lo, b.ul, b.last
  402790:	b94037e0 	ldr	w0, [sp, #52]
  402794:	51000400 	sub	w0, w0, #0x1
  402798:	b9003fe0 	str	w0, [sp, #60]
  40279c:	f9400be0 	ldr	x0, [sp, #16]
  4027a0:	d1000400 	sub	x0, x0, #0x1
  4027a4:	927ef400 	and	x0, x0, #0xfffffffffffffffc
  4027a8:	91001000 	add	x0, x0, #0x4
  4027ac:	f90023e0 	str	x0, [sp, #64]
  4027b0:	b9403fe0 	ldr	w0, [sp, #60]
  4027b4:	1b007c00 	mul	w0, w0, w0
  4027b8:	2a0003e0 	mov	w0, w0
  4027bc:	d37ff800 	lsl	x0, x0, #1
  4027c0:	f94023e1 	ldr	x1, [sp, #64]
  4027c4:	8b000020 	add	x0, x1, x0
  4027c8:	f90027e0 	str	x0, [sp, #72]
  4027cc:	b90037ff 	str	wzr, [sp, #52]
  4027d0:	1400003e 	b	4028c8 <core_init_matrix+0x1a4>
  4027d4:	b9003bff 	str	wzr, [sp, #56]
  4027d8:	14000035 	b	4028ac <core_init_matrix+0x188>
  4027dc:	b94033e1 	ldr	w1, [sp, #48]
  4027e0:	b9401be0 	ldr	w0, [sp, #24]
  4027e4:	1b007c20 	mul	w0, w1, w0
  4027e8:	6b0003e1 	negs	w1, w0
  4027ec:	12003c00 	and	w0, w0, #0xffff
  4027f0:	12003c21 	and	w1, w1, #0xffff
  4027f4:	5a814400 	csneg	w0, w0, w1, mi  // mi = first
  4027f8:	b9001be0 	str	w0, [sp, #24]
  4027fc:	b9401be0 	ldr	w0, [sp, #24]
  402800:	12003c01 	and	w1, w0, #0xffff
  402804:	b94033e0 	ldr	w0, [sp, #48]
  402808:	12003c00 	and	w0, w0, #0xffff
  40280c:	0b000020 	add	w0, w1, w0
  402810:	12003c00 	and	w0, w0, #0xffff
  402814:	79005fe0 	strh	w0, [sp, #46]
  402818:	b94037e1 	ldr	w1, [sp, #52]
  40281c:	b9403fe0 	ldr	w0, [sp, #60]
  402820:	1b007c21 	mul	w1, w1, w0
  402824:	b9403be0 	ldr	w0, [sp, #56]
  402828:	0b000020 	add	w0, w1, w0
  40282c:	2a0003e0 	mov	w0, w0
  402830:	d37ff800 	lsl	x0, x0, #1
  402834:	f94027e1 	ldr	x1, [sp, #72]
  402838:	8b000020 	add	x0, x1, x0
  40283c:	79405fe1 	ldrh	w1, [sp, #46]
  402840:	79000001 	strh	w1, [x0]
  402844:	b94033e0 	ldr	w0, [sp, #48]
  402848:	12003c01 	and	w1, w0, #0xffff
  40284c:	79405fe0 	ldrh	w0, [sp, #46]
  402850:	0b000020 	add	w0, w1, w0
  402854:	12003c00 	and	w0, w0, #0xffff
  402858:	79005fe0 	strh	w0, [sp, #46]
  40285c:	79405fe0 	ldrh	w0, [sp, #46]
  402860:	12001c00 	and	w0, w0, #0xff
  402864:	79005fe0 	strh	w0, [sp, #46]
  402868:	b94037e1 	ldr	w1, [sp, #52]
  40286c:	b9403fe0 	ldr	w0, [sp, #60]
  402870:	1b007c21 	mul	w1, w1, w0
  402874:	b9403be0 	ldr	w0, [sp, #56]
  402878:	0b000020 	add	w0, w1, w0
  40287c:	2a0003e0 	mov	w0, w0
  402880:	d37ff800 	lsl	x0, x0, #1
  402884:	f94023e1 	ldr	x1, [sp, #64]
  402888:	8b000020 	add	x0, x1, x0
  40288c:	79405fe1 	ldrh	w1, [sp, #46]
  402890:	79000001 	strh	w1, [x0]
  402894:	b94033e0 	ldr	w0, [sp, #48]
  402898:	11000400 	add	w0, w0, #0x1
  40289c:	b90033e0 	str	w0, [sp, #48]
  4028a0:	b9403be0 	ldr	w0, [sp, #56]
  4028a4:	11000400 	add	w0, w0, #0x1
  4028a8:	b9003be0 	str	w0, [sp, #56]
  4028ac:	b9403be1 	ldr	w1, [sp, #56]
  4028b0:	b9403fe0 	ldr	w0, [sp, #60]
  4028b4:	6b00003f 	cmp	w1, w0
  4028b8:	54fff923 	b.cc	4027dc <core_init_matrix+0xb8>  // b.lo, b.ul, b.last
  4028bc:	b94037e0 	ldr	w0, [sp, #52]
  4028c0:	11000400 	add	w0, w0, #0x1
  4028c4:	b90037e0 	str	w0, [sp, #52]
  4028c8:	b94037e1 	ldr	w1, [sp, #52]
  4028cc:	b9403fe0 	ldr	w0, [sp, #60]
  4028d0:	6b00003f 	cmp	w1, w0
  4028d4:	54fff803 	b.cc	4027d4 <core_init_matrix+0xb0>  // b.lo, b.ul, b.last
  4028d8:	f94007e0 	ldr	x0, [sp, #8]
  4028dc:	f94023e1 	ldr	x1, [sp, #64]
  4028e0:	f9000401 	str	x1, [x0, #8]
  4028e4:	f94007e0 	ldr	x0, [sp, #8]
  4028e8:	f94027e1 	ldr	x1, [sp, #72]
  4028ec:	f9000801 	str	x1, [x0, #16]
  4028f0:	b9403fe0 	ldr	w0, [sp, #60]
  4028f4:	1b007c00 	mul	w0, w0, w0
  4028f8:	2a0003e0 	mov	w0, w0
  4028fc:	d37ff800 	lsl	x0, x0, #1
  402900:	f94027e1 	ldr	x1, [sp, #72]
  402904:	8b000020 	add	x0, x1, x0
  402908:	d1000400 	sub	x0, x0, #0x1
  40290c:	927ef400 	and	x0, x0, #0xfffffffffffffffc
  402910:	91001000 	add	x0, x0, #0x4
  402914:	aa0003e1 	mov	x1, x0
  402918:	f94007e0 	ldr	x0, [sp, #8]
  40291c:	f9000c01 	str	x1, [x0, #24]
  402920:	b9403fe1 	ldr	w1, [sp, #60]
  402924:	f94007e0 	ldr	x0, [sp, #8]
  402928:	b9000001 	str	w1, [x0]
  40292c:	b9403fe0 	ldr	w0, [sp, #60]
  402930:	910143ff 	add	sp, sp, #0x50
  402934:	d65f03c0 	ret

0000000000402938 <matrix_sum>:
  402938:	d100c3ff 	sub	sp, sp, #0x30
  40293c:	b9000fe0 	str	w0, [sp, #12]
  402940:	f90003e1 	str	x1, [sp]
  402944:	790017e2 	strh	w2, [sp, #10]
  402948:	b9001fff 	str	wzr, [sp, #28]
  40294c:	b90023ff 	str	wzr, [sp, #32]
  402950:	b9002fff 	str	wzr, [sp, #44]
  402954:	790037ff 	strh	wzr, [sp, #26]
  402958:	b90027ff 	str	wzr, [sp, #36]
  40295c:	14000032 	b	402a24 <matrix_sum+0xec>
  402960:	b9002bff 	str	wzr, [sp, #40]
  402964:	14000029 	b	402a08 <matrix_sum+0xd0>
  402968:	b94027e1 	ldr	w1, [sp, #36]
  40296c:	b9400fe0 	ldr	w0, [sp, #12]
  402970:	1b007c21 	mul	w1, w1, w0
  402974:	b9402be0 	ldr	w0, [sp, #40]
  402978:	0b000020 	add	w0, w1, w0
  40297c:	2a0003e0 	mov	w0, w0
  402980:	d37ef400 	lsl	x0, x0, #2
  402984:	f94003e1 	ldr	x1, [sp]
  402988:	8b000020 	add	x0, x1, x0
  40298c:	b9400000 	ldr	w0, [x0]
  402990:	b9002fe0 	str	w0, [sp, #44]
  402994:	b9401fe1 	ldr	w1, [sp, #28]
  402998:	b9402fe0 	ldr	w0, [sp, #44]
  40299c:	0b000020 	add	w0, w1, w0
  4029a0:	b9001fe0 	str	w0, [sp, #28]
  4029a4:	79c017e0 	ldrsh	w0, [sp, #10]
  4029a8:	b9401fe1 	ldr	w1, [sp, #28]
  4029ac:	6b00003f 	cmp	w1, w0
  4029b0:	540000ed 	b.le	4029cc <matrix_sum+0x94>
  4029b4:	794037e0 	ldrh	w0, [sp, #26]
  4029b8:	11002800 	add	w0, w0, #0xa
  4029bc:	12003c00 	and	w0, w0, #0xffff
  4029c0:	790037e0 	strh	w0, [sp, #26]
  4029c4:	b9001fff 	str	wzr, [sp, #28]
  4029c8:	1400000b 	b	4029f4 <matrix_sum+0xbc>
  4029cc:	b9402fe1 	ldr	w1, [sp, #44]
  4029d0:	b94023e0 	ldr	w0, [sp, #32]
  4029d4:	6b00003f 	cmp	w1, w0
  4029d8:	1a9fd7e0 	cset	w0, gt
  4029dc:	12001c00 	and	w0, w0, #0xff
  4029e0:	12003c01 	and	w1, w0, #0xffff
  4029e4:	794037e0 	ldrh	w0, [sp, #26]
  4029e8:	0b000020 	add	w0, w1, w0
  4029ec:	12003c00 	and	w0, w0, #0xffff
  4029f0:	790037e0 	strh	w0, [sp, #26]
  4029f4:	b9402fe0 	ldr	w0, [sp, #44]
  4029f8:	b90023e0 	str	w0, [sp, #32]
  4029fc:	b9402be0 	ldr	w0, [sp, #40]
  402a00:	11000400 	add	w0, w0, #0x1
  402a04:	b9002be0 	str	w0, [sp, #40]
  402a08:	b9402be1 	ldr	w1, [sp, #40]
  402a0c:	b9400fe0 	ldr	w0, [sp, #12]
  402a10:	6b00003f 	cmp	w1, w0
  402a14:	54fffaa3 	b.cc	402968 <matrix_sum+0x30>  // b.lo, b.ul, b.last
  402a18:	b94027e0 	ldr	w0, [sp, #36]
  402a1c:	11000400 	add	w0, w0, #0x1
  402a20:	b90027e0 	str	w0, [sp, #36]
  402a24:	b94027e1 	ldr	w1, [sp, #36]
  402a28:	b9400fe0 	ldr	w0, [sp, #12]
  402a2c:	6b00003f 	cmp	w1, w0
  402a30:	54fff983 	b.cc	402960 <matrix_sum+0x28>  // b.lo, b.ul, b.last
  402a34:	79c037e0 	ldrsh	w0, [sp, #26]
  402a38:	9100c3ff 	add	sp, sp, #0x30
  402a3c:	d65f03c0 	ret

0000000000402a40 <matrix_mul_const>:
  402a40:	d100c3ff 	sub	sp, sp, #0x30
  402a44:	b9001fe0 	str	w0, [sp, #28]
  402a48:	f9000be1 	str	x1, [sp, #16]
  402a4c:	f90007e2 	str	x2, [sp, #8]
  402a50:	790037e3 	strh	w3, [sp, #26]
  402a54:	b9002bff 	str	wzr, [sp, #40]
  402a58:	14000024 	b	402ae8 <matrix_mul_const+0xa8>
  402a5c:	b9002fff 	str	wzr, [sp, #44]
  402a60:	1400001b 	b	402acc <matrix_mul_const+0x8c>
  402a64:	b9402be1 	ldr	w1, [sp, #40]
  402a68:	b9401fe0 	ldr	w0, [sp, #28]
  402a6c:	1b007c21 	mul	w1, w1, w0
  402a70:	b9402fe0 	ldr	w0, [sp, #44]
  402a74:	0b000020 	add	w0, w1, w0
  402a78:	2a0003e0 	mov	w0, w0
  402a7c:	d37ff800 	lsl	x0, x0, #1
  402a80:	f94007e1 	ldr	x1, [sp, #8]
  402a84:	8b000020 	add	x0, x1, x0
  402a88:	79c00000 	ldrsh	w0, [x0]
  402a8c:	2a0003e3 	mov	w3, w0
  402a90:	79c037e1 	ldrsh	w1, [sp, #26]
  402a94:	b9402be2 	ldr	w2, [sp, #40]
  402a98:	b9401fe0 	ldr	w0, [sp, #28]
  402a9c:	1b007c42 	mul	w2, w2, w0
  402aa0:	b9402fe0 	ldr	w0, [sp, #44]
  402aa4:	0b000040 	add	w0, w2, w0
  402aa8:	2a0003e0 	mov	w0, w0
  402aac:	d37ef400 	lsl	x0, x0, #2
  402ab0:	f9400be2 	ldr	x2, [sp, #16]
  402ab4:	8b000040 	add	x0, x2, x0
  402ab8:	1b017c61 	mul	w1, w3, w1
  402abc:	b9000001 	str	w1, [x0]
  402ac0:	b9402fe0 	ldr	w0, [sp, #44]
  402ac4:	11000400 	add	w0, w0, #0x1
  402ac8:	b9002fe0 	str	w0, [sp, #44]
  402acc:	b9402fe1 	ldr	w1, [sp, #44]
  402ad0:	b9401fe0 	ldr	w0, [sp, #28]
  402ad4:	6b00003f 	cmp	w1, w0
  402ad8:	54fffc63 	b.cc	402a64 <matrix_mul_const+0x24>  // b.lo, b.ul, b.last
  402adc:	b9402be0 	ldr	w0, [sp, #40]
  402ae0:	11000400 	add	w0, w0, #0x1
  402ae4:	b9002be0 	str	w0, [sp, #40]
  402ae8:	b9402be1 	ldr	w1, [sp, #40]
  402aec:	b9401fe0 	ldr	w0, [sp, #28]
  402af0:	6b00003f 	cmp	w1, w0
  402af4:	54fffb43 	b.cc	402a5c <matrix_mul_const+0x1c>  // b.lo, b.ul, b.last
  402af8:	d503201f 	nop
  402afc:	d503201f 	nop
  402b00:	9100c3ff 	add	sp, sp, #0x30
  402b04:	d65f03c0 	ret

0000000000402b08 <matrix_add_const>:
  402b08:	d10083ff 	sub	sp, sp, #0x20
  402b0c:	b9000fe0 	str	w0, [sp, #12]
  402b10:	f90003e1 	str	x1, [sp]
  402b14:	790017e2 	strh	w2, [sp, #10]
  402b18:	b9001bff 	str	wzr, [sp, #24]
  402b1c:	14000026 	b	402bb4 <matrix_add_const+0xac>
  402b20:	b9001fff 	str	wzr, [sp, #28]
  402b24:	1400001d 	b	402b98 <matrix_add_const+0x90>
  402b28:	b9401be1 	ldr	w1, [sp, #24]
  402b2c:	b9400fe0 	ldr	w0, [sp, #12]
  402b30:	1b007c21 	mul	w1, w1, w0
  402b34:	b9401fe0 	ldr	w0, [sp, #28]
  402b38:	0b000020 	add	w0, w1, w0
  402b3c:	2a0003e0 	mov	w0, w0
  402b40:	d37ff800 	lsl	x0, x0, #1
  402b44:	f94003e1 	ldr	x1, [sp]
  402b48:	8b000020 	add	x0, x1, x0
  402b4c:	79c00000 	ldrsh	w0, [x0]
  402b50:	12003c01 	and	w1, w0, #0xffff
  402b54:	794017e0 	ldrh	w0, [sp, #10]
  402b58:	0b000020 	add	w0, w1, w0
  402b5c:	12003c02 	and	w2, w0, #0xffff
  402b60:	b9401be1 	ldr	w1, [sp, #24]
  402b64:	b9400fe0 	ldr	w0, [sp, #12]
  402b68:	1b007c21 	mul	w1, w1, w0
  402b6c:	b9401fe0 	ldr	w0, [sp, #28]
  402b70:	0b000020 	add	w0, w1, w0
  402b74:	2a0003e0 	mov	w0, w0
  402b78:	d37ff800 	lsl	x0, x0, #1
  402b7c:	f94003e1 	ldr	x1, [sp]
  402b80:	8b000020 	add	x0, x1, x0
  402b84:	13003c41 	sxth	w1, w2
  402b88:	79000001 	strh	w1, [x0]
  402b8c:	b9401fe0 	ldr	w0, [sp, #28]
  402b90:	11000400 	add	w0, w0, #0x1
  402b94:	b9001fe0 	str	w0, [sp, #28]
  402b98:	b9401fe1 	ldr	w1, [sp, #28]
  402b9c:	b9400fe0 	ldr	w0, [sp, #12]
  402ba0:	6b00003f 	cmp	w1, w0
  402ba4:	54fffc23 	b.cc	402b28 <matrix_add_const+0x20>  // b.lo, b.ul, b.last
  402ba8:	b9401be0 	ldr	w0, [sp, #24]
  402bac:	11000400 	add	w0, w0, #0x1
  402bb0:	b9001be0 	str	w0, [sp, #24]
  402bb4:	b9401be1 	ldr	w1, [sp, #24]
  402bb8:	b9400fe0 	ldr	w0, [sp, #12]
  402bbc:	6b00003f 	cmp	w1, w0
  402bc0:	54fffb03 	b.cc	402b20 <matrix_add_const+0x18>  // b.lo, b.ul, b.last
  402bc4:	d503201f 	nop
  402bc8:	d503201f 	nop
  402bcc:	910083ff 	add	sp, sp, #0x20
  402bd0:	d65f03c0 	ret

0000000000402bd4 <matrix_mul_vect>:
  402bd4:	d100c3ff 	sub	sp, sp, #0x30
  402bd8:	b9001fe0 	str	w0, [sp, #28]
  402bdc:	f9000be1 	str	x1, [sp, #16]
  402be0:	f90007e2 	str	x2, [sp, #8]
  402be4:	f90003e3 	str	x3, [sp]
  402be8:	b9002bff 	str	wzr, [sp, #40]
  402bec:	1400002e 	b	402ca4 <matrix_mul_vect+0xd0>
  402bf0:	b9402be0 	ldr	w0, [sp, #40]
  402bf4:	d37ef400 	lsl	x0, x0, #2
  402bf8:	f9400be1 	ldr	x1, [sp, #16]
  402bfc:	8b000020 	add	x0, x1, x0
  402c00:	b900001f 	str	wzr, [x0]
  402c04:	b9002fff 	str	wzr, [sp, #44]
  402c08:	14000020 	b	402c88 <matrix_mul_vect+0xb4>
  402c0c:	b9402be0 	ldr	w0, [sp, #40]
  402c10:	d37ef400 	lsl	x0, x0, #2
  402c14:	f9400be1 	ldr	x1, [sp, #16]
  402c18:	8b000020 	add	x0, x1, x0
  402c1c:	b9400002 	ldr	w2, [x0]
  402c20:	b9402be1 	ldr	w1, [sp, #40]
  402c24:	b9401fe0 	ldr	w0, [sp, #28]
  402c28:	1b007c21 	mul	w1, w1, w0
  402c2c:	b9402fe0 	ldr	w0, [sp, #44]
  402c30:	0b000020 	add	w0, w1, w0
  402c34:	2a0003e0 	mov	w0, w0
  402c38:	d37ff800 	lsl	x0, x0, #1
  402c3c:	f94007e1 	ldr	x1, [sp, #8]
  402c40:	8b000020 	add	x0, x1, x0
  402c44:	79c00000 	ldrsh	w0, [x0]
  402c48:	2a0003e3 	mov	w3, w0
  402c4c:	b9402fe0 	ldr	w0, [sp, #44]
  402c50:	d37ff800 	lsl	x0, x0, #1
  402c54:	f94003e1 	ldr	x1, [sp]
  402c58:	8b000020 	add	x0, x1, x0
  402c5c:	79c00000 	ldrsh	w0, [x0]
  402c60:	1b007c61 	mul	w1, w3, w0
  402c64:	b9402be0 	ldr	w0, [sp, #40]
  402c68:	d37ef400 	lsl	x0, x0, #2
  402c6c:	f9400be3 	ldr	x3, [sp, #16]
  402c70:	8b000060 	add	x0, x3, x0
  402c74:	0b010041 	add	w1, w2, w1
  402c78:	b9000001 	str	w1, [x0]
  402c7c:	b9402fe0 	ldr	w0, [sp, #44]
  402c80:	11000400 	add	w0, w0, #0x1
  402c84:	b9002fe0 	str	w0, [sp, #44]
  402c88:	b9402fe1 	ldr	w1, [sp, #44]
  402c8c:	b9401fe0 	ldr	w0, [sp, #28]
  402c90:	6b00003f 	cmp	w1, w0
  402c94:	54fffbc3 	b.cc	402c0c <matrix_mul_vect+0x38>  // b.lo, b.ul, b.last
  402c98:	b9402be0 	ldr	w0, [sp, #40]
  402c9c:	11000400 	add	w0, w0, #0x1
  402ca0:	b9002be0 	str	w0, [sp, #40]
  402ca4:	b9402be1 	ldr	w1, [sp, #40]
  402ca8:	b9401fe0 	ldr	w0, [sp, #28]
  402cac:	6b00003f 	cmp	w1, w0
  402cb0:	54fffa03 	b.cc	402bf0 <matrix_mul_vect+0x1c>  // b.lo, b.ul, b.last
  402cb4:	d503201f 	nop
  402cb8:	d503201f 	nop
  402cbc:	9100c3ff 	add	sp, sp, #0x30
  402cc0:	d65f03c0 	ret

0000000000402cc4 <matrix_mul_matrix>:
  402cc4:	d100c3ff 	sub	sp, sp, #0x30
  402cc8:	b9001fe0 	str	w0, [sp, #28]
  402ccc:	f9000be1 	str	x1, [sp, #16]
  402cd0:	f90007e2 	str	x2, [sp, #8]
  402cd4:	f90003e3 	str	x3, [sp]
  402cd8:	b90027ff 	str	wzr, [sp, #36]
  402cdc:	1400004b 	b	402e08 <matrix_mul_matrix+0x144>
  402ce0:	b9002bff 	str	wzr, [sp, #40]
  402ce4:	14000042 	b	402dec <matrix_mul_matrix+0x128>
  402ce8:	b94027e1 	ldr	w1, [sp, #36]
  402cec:	b9401fe0 	ldr	w0, [sp, #28]
  402cf0:	1b007c21 	mul	w1, w1, w0
  402cf4:	b9402be0 	ldr	w0, [sp, #40]
  402cf8:	0b000020 	add	w0, w1, w0
  402cfc:	2a0003e0 	mov	w0, w0
  402d00:	d37ef400 	lsl	x0, x0, #2
  402d04:	f9400be1 	ldr	x1, [sp, #16]
  402d08:	8b000020 	add	x0, x1, x0
  402d0c:	b900001f 	str	wzr, [x0]
  402d10:	b9002fff 	str	wzr, [sp, #44]
  402d14:	1400002f 	b	402dd0 <matrix_mul_matrix+0x10c>
  402d18:	b94027e1 	ldr	w1, [sp, #36]
  402d1c:	b9401fe0 	ldr	w0, [sp, #28]
  402d20:	1b007c21 	mul	w1, w1, w0
  402d24:	b9402be0 	ldr	w0, [sp, #40]
  402d28:	0b000020 	add	w0, w1, w0
  402d2c:	2a0003e0 	mov	w0, w0
  402d30:	d37ef400 	lsl	x0, x0, #2
  402d34:	f9400be1 	ldr	x1, [sp, #16]
  402d38:	8b000020 	add	x0, x1, x0
  402d3c:	b9400002 	ldr	w2, [x0]
  402d40:	b94027e1 	ldr	w1, [sp, #36]
  402d44:	b9401fe0 	ldr	w0, [sp, #28]
  402d48:	1b007c21 	mul	w1, w1, w0
  402d4c:	b9402fe0 	ldr	w0, [sp, #44]
  402d50:	0b000020 	add	w0, w1, w0
  402d54:	2a0003e0 	mov	w0, w0
  402d58:	d37ff800 	lsl	x0, x0, #1
  402d5c:	f94007e1 	ldr	x1, [sp, #8]
  402d60:	8b000020 	add	x0, x1, x0
  402d64:	79c00000 	ldrsh	w0, [x0]
  402d68:	2a0003e3 	mov	w3, w0
  402d6c:	b9402fe1 	ldr	w1, [sp, #44]
  402d70:	b9401fe0 	ldr	w0, [sp, #28]
  402d74:	1b007c21 	mul	w1, w1, w0
  402d78:	b9402be0 	ldr	w0, [sp, #40]
  402d7c:	0b000020 	add	w0, w1, w0
  402d80:	2a0003e0 	mov	w0, w0
  402d84:	d37ff800 	lsl	x0, x0, #1
  402d88:	f94003e1 	ldr	x1, [sp]
  402d8c:	8b000020 	add	x0, x1, x0
  402d90:	79c00000 	ldrsh	w0, [x0]
  402d94:	1b007c61 	mul	w1, w3, w0
  402d98:	b94027e3 	ldr	w3, [sp, #36]
  402d9c:	b9401fe0 	ldr	w0, [sp, #28]
  402da0:	1b007c63 	mul	w3, w3, w0
  402da4:	b9402be0 	ldr	w0, [sp, #40]
  402da8:	0b000060 	add	w0, w3, w0
  402dac:	2a0003e0 	mov	w0, w0
  402db0:	d37ef400 	lsl	x0, x0, #2
  402db4:	f9400be3 	ldr	x3, [sp, #16]
  402db8:	8b000060 	add	x0, x3, x0
  402dbc:	0b010041 	add	w1, w2, w1
  402dc0:	b9000001 	str	w1, [x0]
  402dc4:	b9402fe0 	ldr	w0, [sp, #44]
  402dc8:	11000400 	add	w0, w0, #0x1
  402dcc:	b9002fe0 	str	w0, [sp, #44]
  402dd0:	b9402fe1 	ldr	w1, [sp, #44]
  402dd4:	b9401fe0 	ldr	w0, [sp, #28]
  402dd8:	6b00003f 	cmp	w1, w0
  402ddc:	54fff9e3 	b.cc	402d18 <matrix_mul_matrix+0x54>  // b.lo, b.ul, b.last
  402de0:	b9402be0 	ldr	w0, [sp, #40]
  402de4:	11000400 	add	w0, w0, #0x1
  402de8:	b9002be0 	str	w0, [sp, #40]
  402dec:	b9402be1 	ldr	w1, [sp, #40]
  402df0:	b9401fe0 	ldr	w0, [sp, #28]
  402df4:	6b00003f 	cmp	w1, w0
  402df8:	54fff783 	b.cc	402ce8 <matrix_mul_matrix+0x24>  // b.lo, b.ul, b.last
  402dfc:	b94027e0 	ldr	w0, [sp, #36]
  402e00:	11000400 	add	w0, w0, #0x1
  402e04:	b90027e0 	str	w0, [sp, #36]
  402e08:	b94027e1 	ldr	w1, [sp, #36]
  402e0c:	b9401fe0 	ldr	w0, [sp, #28]
  402e10:	6b00003f 	cmp	w1, w0
  402e14:	54fff663 	b.cc	402ce0 <matrix_mul_matrix+0x1c>  // b.lo, b.ul, b.last
  402e18:	d503201f 	nop
  402e1c:	d503201f 	nop
  402e20:	9100c3ff 	add	sp, sp, #0x30
  402e24:	d65f03c0 	ret

0000000000402e28 <matrix_mul_matrix_bitextract>:
  402e28:	d100c3ff 	sub	sp, sp, #0x30
  402e2c:	b9001fe0 	str	w0, [sp, #28]
  402e30:	f9000be1 	str	x1, [sp, #16]
  402e34:	f90007e2 	str	x2, [sp, #8]
  402e38:	f90003e3 	str	x3, [sp]
  402e3c:	b90023ff 	str	wzr, [sp, #32]
  402e40:	14000055 	b	402f94 <matrix_mul_matrix_bitextract+0x16c>
  402e44:	b90027ff 	str	wzr, [sp, #36]
  402e48:	1400004c 	b	402f78 <matrix_mul_matrix_bitextract+0x150>
  402e4c:	b94023e1 	ldr	w1, [sp, #32]
  402e50:	b9401fe0 	ldr	w0, [sp, #28]
  402e54:	1b007c21 	mul	w1, w1, w0
  402e58:	b94027e0 	ldr	w0, [sp, #36]
  402e5c:	0b000020 	add	w0, w1, w0
  402e60:	2a0003e0 	mov	w0, w0
  402e64:	d37ef400 	lsl	x0, x0, #2
  402e68:	f9400be1 	ldr	x1, [sp, #16]
  402e6c:	8b000020 	add	x0, x1, x0
  402e70:	b900001f 	str	wzr, [x0]
  402e74:	b9002bff 	str	wzr, [sp, #40]
  402e78:	14000039 	b	402f5c <matrix_mul_matrix_bitextract+0x134>
  402e7c:	b94023e1 	ldr	w1, [sp, #32]
  402e80:	b9401fe0 	ldr	w0, [sp, #28]
  402e84:	1b007c21 	mul	w1, w1, w0
  402e88:	b9402be0 	ldr	w0, [sp, #40]
  402e8c:	0b000020 	add	w0, w1, w0
  402e90:	2a0003e0 	mov	w0, w0
  402e94:	d37ff800 	lsl	x0, x0, #1
  402e98:	f94007e1 	ldr	x1, [sp, #8]
  402e9c:	8b000020 	add	x0, x1, x0
  402ea0:	79c00000 	ldrsh	w0, [x0]
  402ea4:	2a0003e2 	mov	w2, w0
  402ea8:	b9402be1 	ldr	w1, [sp, #40]
  402eac:	b9401fe0 	ldr	w0, [sp, #28]
  402eb0:	1b007c21 	mul	w1, w1, w0
  402eb4:	b94027e0 	ldr	w0, [sp, #36]
  402eb8:	0b000020 	add	w0, w1, w0
  402ebc:	2a0003e0 	mov	w0, w0
  402ec0:	d37ff800 	lsl	x0, x0, #1
  402ec4:	f94003e1 	ldr	x1, [sp]
  402ec8:	8b000020 	add	x0, x1, x0
  402ecc:	79c00000 	ldrsh	w0, [x0]
  402ed0:	1b007c40 	mul	w0, w2, w0
  402ed4:	b9002fe0 	str	w0, [sp, #44]
  402ed8:	b94023e1 	ldr	w1, [sp, #32]
  402edc:	b9401fe0 	ldr	w0, [sp, #28]
  402ee0:	1b007c21 	mul	w1, w1, w0
  402ee4:	b94027e0 	ldr	w0, [sp, #36]
  402ee8:	0b000020 	add	w0, w1, w0
  402eec:	2a0003e0 	mov	w0, w0
  402ef0:	d37ef400 	lsl	x0, x0, #2
  402ef4:	f9400be1 	ldr	x1, [sp, #16]
  402ef8:	8b000020 	add	x0, x1, x0
  402efc:	b9400000 	ldr	w0, [x0]
  402f00:	2a0003e2 	mov	w2, w0
  402f04:	b9402fe0 	ldr	w0, [sp, #44]
  402f08:	13027c00 	asr	w0, w0, #2
  402f0c:	12000c01 	and	w1, w0, #0xf
  402f10:	b9402fe0 	ldr	w0, [sp, #44]
  402f14:	13057c00 	asr	w0, w0, #5
  402f18:	12001800 	and	w0, w0, #0x7f
  402f1c:	1b007c20 	mul	w0, w1, w0
  402f20:	0b000042 	add	w2, w2, w0
  402f24:	b94023e1 	ldr	w1, [sp, #32]
  402f28:	b9401fe0 	ldr	w0, [sp, #28]
  402f2c:	1b007c21 	mul	w1, w1, w0
  402f30:	b94027e0 	ldr	w0, [sp, #36]
  402f34:	0b000020 	add	w0, w1, w0
  402f38:	2a0003e0 	mov	w0, w0
  402f3c:	d37ef400 	lsl	x0, x0, #2
  402f40:	f9400be1 	ldr	x1, [sp, #16]
  402f44:	8b000020 	add	x0, x1, x0
  402f48:	2a0203e1 	mov	w1, w2
  402f4c:	b9000001 	str	w1, [x0]
  402f50:	b9402be0 	ldr	w0, [sp, #40]
  402f54:	11000400 	add	w0, w0, #0x1
  402f58:	b9002be0 	str	w0, [sp, #40]
  402f5c:	b9402be1 	ldr	w1, [sp, #40]
  402f60:	b9401fe0 	ldr	w0, [sp, #28]
  402f64:	6b00003f 	cmp	w1, w0
  402f68:	54fff8a3 	b.cc	402e7c <matrix_mul_matrix_bitextract+0x54>  // b.lo, b.ul, b.last
  402f6c:	b94027e0 	ldr	w0, [sp, #36]
  402f70:	11000400 	add	w0, w0, #0x1
  402f74:	b90027e0 	str	w0, [sp, #36]
  402f78:	b94027e1 	ldr	w1, [sp, #36]
  402f7c:	b9401fe0 	ldr	w0, [sp, #28]
  402f80:	6b00003f 	cmp	w1, w0
  402f84:	54fff643 	b.cc	402e4c <matrix_mul_matrix_bitextract+0x24>  // b.lo, b.ul, b.last
  402f88:	b94023e0 	ldr	w0, [sp, #32]
  402f8c:	11000400 	add	w0, w0, #0x1
  402f90:	b90023e0 	str	w0, [sp, #32]
  402f94:	b94023e1 	ldr	w1, [sp, #32]
  402f98:	b9401fe0 	ldr	w0, [sp, #28]
  402f9c:	6b00003f 	cmp	w1, w0
  402fa0:	54fff523 	b.cc	402e44 <matrix_mul_matrix_bitextract+0x1c>  // b.lo, b.ul, b.last
  402fa4:	d503201f 	nop
  402fa8:	d503201f 	nop
  402fac:	9100c3ff 	add	sp, sp, #0x30
  402fb0:	d65f03c0 	ret

0000000000402fb4 <core_bench_state>:
  402fb4:	a9b77bfd 	stp	x29, x30, [sp, #-144]!
  402fb8:	910003fd 	mov	x29, sp
  402fbc:	b9002fe0 	str	w0, [sp, #44]
  402fc0:	f90013e1 	str	x1, [sp, #32]
  402fc4:	790057e2 	strh	w2, [sp, #42]
  402fc8:	790053e3 	strh	w3, [sp, #40]
  402fcc:	79003fe4 	strh	w4, [sp, #30]
  402fd0:	79003be5 	strh	w5, [sp, #28]
  402fd4:	f0000440 	adrp	x0, 48d000 <__FRAME_END__+0x1034c>
  402fd8:	f947a400 	ldr	x0, [x0, #3912]
  402fdc:	f9400001 	ldr	x1, [x0]
  402fe0:	f90047e1 	str	x1, [sp, #136]
  402fe4:	d2800001 	mov	x1, #0x0                   	// #0
  402fe8:	f94013e0 	ldr	x0, [sp, #32]
  402fec:	f90023e0 	str	x0, [sp, #64]
  402ff0:	b90037ff 	str	wzr, [sp, #52]
  402ff4:	14000010 	b	403034 <core_bench_state+0x80>
  402ff8:	b94037e0 	ldr	w0, [sp, #52]
  402ffc:	d37ef400 	lsl	x0, x0, #2
  403000:	9101a3e1 	add	x1, sp, #0x68
  403004:	b820683f 	str	wzr, [x1, x0]
  403008:	b94037e0 	ldr	w0, [sp, #52]
  40300c:	d37ef400 	lsl	x0, x0, #2
  403010:	9101a3e1 	add	x1, sp, #0x68
  403014:	b8606822 	ldr	w2, [x1, x0]
  403018:	b94037e0 	ldr	w0, [sp, #52]
  40301c:	d37ef400 	lsl	x0, x0, #2
  403020:	910123e1 	add	x1, sp, #0x48
  403024:	b8206822 	str	w2, [x1, x0]
  403028:	b94037e0 	ldr	w0, [sp, #52]
  40302c:	11000400 	add	w0, w0, #0x1
  403030:	b90037e0 	str	w0, [sp, #52]
  403034:	b94037e0 	ldr	w0, [sp, #52]
  403038:	71001c1f 	cmp	w0, #0x7
  40303c:	54fffde9 	b.ls	402ff8 <core_bench_state+0x44>  // b.plast
  403040:	1400000e 	b	403078 <core_bench_state+0xc4>
  403044:	9101a3e1 	add	x1, sp, #0x68
  403048:	910103e0 	add	x0, sp, #0x40
  40304c:	9400011d 	bl	4034c0 <core_state_transition>
  403050:	b9003fe0 	str	w0, [sp, #60]
  403054:	b9403fe0 	ldr	w0, [sp, #60]
  403058:	d37ef400 	lsl	x0, x0, #2
  40305c:	910123e1 	add	x1, sp, #0x48
  403060:	b8606820 	ldr	w0, [x1, x0]
  403064:	11000402 	add	w2, w0, #0x1
  403068:	b9403fe0 	ldr	w0, [sp, #60]
  40306c:	d37ef400 	lsl	x0, x0, #2
  403070:	910123e1 	add	x1, sp, #0x48
  403074:	b8206822 	str	w2, [x1, x0]
  403078:	f94023e0 	ldr	x0, [sp, #64]
  40307c:	39400000 	ldrb	w0, [x0]
  403080:	7100001f 	cmp	w0, #0x0
  403084:	54fffe01 	b.ne	403044 <core_bench_state+0x90>  // b.any
  403088:	f94013e0 	ldr	x0, [sp, #32]
  40308c:	f90023e0 	str	x0, [sp, #64]
  403090:	14000011 	b	4030d4 <core_bench_state+0x120>
  403094:	f94023e0 	ldr	x0, [sp, #64]
  403098:	39400000 	ldrb	w0, [x0]
  40309c:	7100b01f 	cmp	w0, #0x2c
  4030a0:	54000120 	b.eq	4030c4 <core_bench_state+0x110>  // b.none
  4030a4:	f94023e0 	ldr	x0, [sp, #64]
  4030a8:	39400002 	ldrb	w2, [x0]
  4030ac:	794057e0 	ldrh	w0, [sp, #42]
  4030b0:	12001c01 	and	w1, w0, #0xff
  4030b4:	f94023e0 	ldr	x0, [sp, #64]
  4030b8:	4a010041 	eor	w1, w2, w1
  4030bc:	12001c21 	and	w1, w1, #0xff
  4030c0:	39000001 	strb	w1, [x0]
  4030c4:	f94023e1 	ldr	x1, [sp, #64]
  4030c8:	79803fe0 	ldrsh	x0, [sp, #30]
  4030cc:	8b000020 	add	x0, x1, x0
  4030d0:	f90023e0 	str	x0, [sp, #64]
  4030d4:	b9402fe0 	ldr	w0, [sp, #44]
  4030d8:	f94013e1 	ldr	x1, [sp, #32]
  4030dc:	8b000021 	add	x1, x1, x0
  4030e0:	f94023e0 	ldr	x0, [sp, #64]
  4030e4:	eb00003f 	cmp	x1, x0
  4030e8:	54fffd68 	b.hi	403094 <core_bench_state+0xe0>  // b.pmore
  4030ec:	f94013e0 	ldr	x0, [sp, #32]
  4030f0:	f90023e0 	str	x0, [sp, #64]
  4030f4:	1400000e 	b	40312c <core_bench_state+0x178>
  4030f8:	9101a3e1 	add	x1, sp, #0x68
  4030fc:	910103e0 	add	x0, sp, #0x40
  403100:	940000f0 	bl	4034c0 <core_state_transition>
  403104:	b9003be0 	str	w0, [sp, #56]
  403108:	b9403be0 	ldr	w0, [sp, #56]
  40310c:	d37ef400 	lsl	x0, x0, #2
  403110:	910123e1 	add	x1, sp, #0x48
  403114:	b8606820 	ldr	w0, [x1, x0]
  403118:	11000402 	add	w2, w0, #0x1
  40311c:	b9403be0 	ldr	w0, [sp, #56]
  403120:	d37ef400 	lsl	x0, x0, #2
  403124:	910123e1 	add	x1, sp, #0x48
  403128:	b8206822 	str	w2, [x1, x0]
  40312c:	f94023e0 	ldr	x0, [sp, #64]
  403130:	39400000 	ldrb	w0, [x0]
  403134:	7100001f 	cmp	w0, #0x0
  403138:	54fffe01 	b.ne	4030f8 <core_bench_state+0x144>  // b.any
  40313c:	f94013e0 	ldr	x0, [sp, #32]
  403140:	f90023e0 	str	x0, [sp, #64]
  403144:	14000011 	b	403188 <core_bench_state+0x1d4>
  403148:	f94023e0 	ldr	x0, [sp, #64]
  40314c:	39400000 	ldrb	w0, [x0]
  403150:	7100b01f 	cmp	w0, #0x2c
  403154:	54000120 	b.eq	403178 <core_bench_state+0x1c4>  // b.none
  403158:	f94023e0 	ldr	x0, [sp, #64]
  40315c:	39400002 	ldrb	w2, [x0]
  403160:	794053e0 	ldrh	w0, [sp, #40]
  403164:	12001c01 	and	w1, w0, #0xff
  403168:	f94023e0 	ldr	x0, [sp, #64]
  40316c:	4a010041 	eor	w1, w2, w1
  403170:	12001c21 	and	w1, w1, #0xff
  403174:	39000001 	strb	w1, [x0]
  403178:	f94023e1 	ldr	x1, [sp, #64]
  40317c:	79803fe0 	ldrsh	x0, [sp, #30]
  403180:	8b000020 	add	x0, x1, x0
  403184:	f90023e0 	str	x0, [sp, #64]
  403188:	b9402fe0 	ldr	w0, [sp, #44]
  40318c:	f94013e1 	ldr	x1, [sp, #32]
  403190:	8b000021 	add	x1, x1, x0
  403194:	f94023e0 	ldr	x0, [sp, #64]
  403198:	eb00003f 	cmp	x1, x0
  40319c:	54fffd68 	b.hi	403148 <core_bench_state+0x194>  // b.pmore
  4031a0:	b90037ff 	str	wzr, [sp, #52]
  4031a4:	14000012 	b	4031ec <core_bench_state+0x238>
  4031a8:	b94037e0 	ldr	w0, [sp, #52]
  4031ac:	d37ef400 	lsl	x0, x0, #2
  4031b0:	910123e1 	add	x1, sp, #0x48
  4031b4:	b8606820 	ldr	w0, [x1, x0]
  4031b8:	79403be1 	ldrh	w1, [sp, #28]
  4031bc:	9400028e 	bl	403bf4 <crcu32>
  4031c0:	79003be0 	strh	w0, [sp, #28]
  4031c4:	b94037e0 	ldr	w0, [sp, #52]
  4031c8:	d37ef400 	lsl	x0, x0, #2
  4031cc:	9101a3e1 	add	x1, sp, #0x68
  4031d0:	b8606820 	ldr	w0, [x1, x0]
  4031d4:	79403be1 	ldrh	w1, [sp, #28]
  4031d8:	94000287 	bl	403bf4 <crcu32>
  4031dc:	79003be0 	strh	w0, [sp, #28]
  4031e0:	b94037e0 	ldr	w0, [sp, #52]
  4031e4:	11000400 	add	w0, w0, #0x1
  4031e8:	b90037e0 	str	w0, [sp, #52]
  4031ec:	b94037e0 	ldr	w0, [sp, #52]
  4031f0:	71001c1f 	cmp	w0, #0x7
  4031f4:	54fffda9 	b.ls	4031a8 <core_bench_state+0x1f4>  // b.plast
  4031f8:	79403be0 	ldrh	w0, [sp, #28]
  4031fc:	2a0003e1 	mov	w1, w0
  403200:	d0000440 	adrp	x0, 48d000 <__FRAME_END__+0x1034c>
  403204:	f947a400 	ldr	x0, [x0, #3912]
  403208:	f94047e2 	ldr	x2, [sp, #136]
  40320c:	f9400003 	ldr	x3, [x0]
  403210:	eb030042 	subs	x2, x2, x3
  403214:	d2800003 	mov	x3, #0x0                   	// #0
  403218:	54000040 	b.eq	403220 <core_bench_state+0x26c>  // b.none
  40321c:	940083d1 	bl	424160 <__stack_chk_fail>
  403220:	2a0103e0 	mov	w0, w1
  403224:	a8c97bfd 	ldp	x29, x30, [sp], #144
  403228:	d65f03c0 	ret

000000000040322c <core_init_state>:
  40322c:	d100c3ff 	sub	sp, sp, #0x30
  403230:	b9000fe0 	str	w0, [sp, #12]
  403234:	790017e1 	strh	w1, [sp, #10]
  403238:	f90003e2 	str	x2, [sp]
  40323c:	b9001fff 	str	wzr, [sp, #28]
  403240:	b90023ff 	str	wzr, [sp, #32]
  403244:	f90017ff 	str	xzr, [sp, #40]
  403248:	b9400fe0 	ldr	w0, [sp, #12]
  40324c:	51000400 	sub	w0, w0, #0x1
  403250:	b9000fe0 	str	w0, [sp, #12]
  403254:	b90023ff 	str	wzr, [sp, #32]
  403258:	14000070 	b	403418 <core_init_state+0x1ec>
  40325c:	b94023e0 	ldr	w0, [sp, #32]
  403260:	7100001f 	cmp	w0, #0x0
  403264:	54000400 	b.eq	4032e4 <core_init_state+0xb8>  // b.none
  403268:	b90027ff 	str	wzr, [sp, #36]
  40326c:	1400000e 	b	4032a4 <core_init_state+0x78>
  403270:	b94027e0 	ldr	w0, [sp, #36]
  403274:	f94017e1 	ldr	x1, [sp, #40]
  403278:	8b000021 	add	x1, x1, x0
  40327c:	b9401fe2 	ldr	w2, [sp, #28]
  403280:	b94027e0 	ldr	w0, [sp, #36]
  403284:	8b000040 	add	x0, x2, x0
  403288:	f94003e2 	ldr	x2, [sp]
  40328c:	8b000040 	add	x0, x2, x0
  403290:	39400021 	ldrb	w1, [x1]
  403294:	39000001 	strb	w1, [x0]
  403298:	b94027e0 	ldr	w0, [sp, #36]
  40329c:	11000400 	add	w0, w0, #0x1
  4032a0:	b90027e0 	str	w0, [sp, #36]
  4032a4:	b94027e1 	ldr	w1, [sp, #36]
  4032a8:	b94023e0 	ldr	w0, [sp, #32]
  4032ac:	6b00003f 	cmp	w1, w0
  4032b0:	54fffe03 	b.cc	403270 <core_init_state+0x44>  // b.lo, b.ul, b.last
  4032b4:	b9401fe1 	ldr	w1, [sp, #28]
  4032b8:	b94027e0 	ldr	w0, [sp, #36]
  4032bc:	8b000020 	add	x0, x1, x0
  4032c0:	f94003e1 	ldr	x1, [sp]
  4032c4:	8b000020 	add	x0, x1, x0
  4032c8:	52800581 	mov	w1, #0x2c                  	// #44
  4032cc:	39000001 	strb	w1, [x0]
  4032d0:	b94023e1 	ldr	w1, [sp, #32]
  4032d4:	b9401fe0 	ldr	w0, [sp, #28]
  4032d8:	0b000020 	add	w0, w1, w0
  4032dc:	11000400 	add	w0, w0, #0x1
  4032e0:	b9001fe0 	str	w0, [sp, #28]
  4032e4:	79c017e0 	ldrsh	w0, [sp, #10]
  4032e8:	12003c00 	and	w0, w0, #0xffff
  4032ec:	11000400 	add	w0, w0, #0x1
  4032f0:	12003c00 	and	w0, w0, #0xffff
  4032f4:	790017e0 	strh	w0, [sp, #10]
  4032f8:	794017e0 	ldrh	w0, [sp, #10]
  4032fc:	12000800 	and	w0, w0, #0x7
  403300:	71001c1f 	cmp	w0, #0x7
  403304:	540006e0 	b.eq	4033e0 <core_init_state+0x1b4>  // b.none
  403308:	71001c1f 	cmp	w0, #0x7
  40330c:	5400084c 	b.gt	403414 <core_init_state+0x1e8>
  403310:	7100181f 	cmp	w0, #0x6
  403314:	5400080c 	b.gt	403414 <core_init_state+0x1e8>
  403318:	7100141f 	cmp	w0, #0x5
  40331c:	5400048a 	b.ge	4033ac <core_init_state+0x180>  // b.tcont
  403320:	7100081f 	cmp	w0, #0x2
  403324:	5400008c 	b.gt	403334 <core_init_state+0x108>
  403328:	7100001f 	cmp	w0, #0x0
  40332c:	540000ca 	b.ge	403344 <core_init_state+0x118>  // b.tcont
  403330:	14000039 	b	403414 <core_init_state+0x1e8>
  403334:	51000c00 	sub	w0, w0, #0x3
  403338:	7100041f 	cmp	w0, #0x1
  40333c:	540006c8 	b.hi	403414 <core_init_state+0x1e8>  // b.pmore
  403340:	1400000e 	b	403378 <core_init_state+0x14c>
  403344:	79c017e0 	ldrsh	w0, [sp, #10]
  403348:	13037c00 	asr	w0, w0, #3
  40334c:	13003c00 	sxth	w0, w0
  403350:	12003c00 	and	w0, w0, #0xffff
  403354:	12000401 	and	w1, w0, #0x3
  403358:	f0000440 	adrp	x0, 48e000 <_GLOBAL_OFFSET_TABLE_+0xc8>
  40335c:	91024000 	add	x0, x0, #0x90
  403360:	93407c21 	sxtw	x1, w1
  403364:	f8617800 	ldr	x0, [x0, x1, lsl #3]
  403368:	f90017e0 	str	x0, [sp, #40]
  40336c:	52800080 	mov	w0, #0x4                   	// #4
  403370:	b90023e0 	str	w0, [sp, #32]
  403374:	14000029 	b	403418 <core_init_state+0x1ec>
  403378:	79c017e0 	ldrsh	w0, [sp, #10]
  40337c:	13037c00 	asr	w0, w0, #3
  403380:	13003c00 	sxth	w0, w0
  403384:	12003c00 	and	w0, w0, #0xffff
  403388:	12000401 	and	w1, w0, #0x3
  40338c:	f0000440 	adrp	x0, 48e000 <_GLOBAL_OFFSET_TABLE_+0xc8>
  403390:	9102c000 	add	x0, x0, #0xb0
  403394:	93407c21 	sxtw	x1, w1
  403398:	f8617800 	ldr	x0, [x0, x1, lsl #3]
  40339c:	f90017e0 	str	x0, [sp, #40]
  4033a0:	52800100 	mov	w0, #0x8                   	// #8
  4033a4:	b90023e0 	str	w0, [sp, #32]
  4033a8:	1400001c 	b	403418 <core_init_state+0x1ec>
  4033ac:	79c017e0 	ldrsh	w0, [sp, #10]
  4033b0:	13037c00 	asr	w0, w0, #3
  4033b4:	13003c00 	sxth	w0, w0
  4033b8:	12003c00 	and	w0, w0, #0xffff
  4033bc:	12000401 	and	w1, w0, #0x3
  4033c0:	f0000440 	adrp	x0, 48e000 <_GLOBAL_OFFSET_TABLE_+0xc8>
  4033c4:	91034000 	add	x0, x0, #0xd0
  4033c8:	93407c21 	sxtw	x1, w1
  4033cc:	f8617800 	ldr	x0, [x0, x1, lsl #3]
  4033d0:	f90017e0 	str	x0, [sp, #40]
  4033d4:	52800100 	mov	w0, #0x8                   	// #8
  4033d8:	b90023e0 	str	w0, [sp, #32]
  4033dc:	1400000f 	b	403418 <core_init_state+0x1ec>
  4033e0:	79c017e0 	ldrsh	w0, [sp, #10]
  4033e4:	13037c00 	asr	w0, w0, #3
  4033e8:	13003c00 	sxth	w0, w0
  4033ec:	12003c00 	and	w0, w0, #0xffff
  4033f0:	12000401 	and	w1, w0, #0x3
  4033f4:	f0000440 	adrp	x0, 48e000 <_GLOBAL_OFFSET_TABLE_+0xc8>
  4033f8:	9103c000 	add	x0, x0, #0xf0
  4033fc:	93407c21 	sxtw	x1, w1
  403400:	f8617800 	ldr	x0, [x0, x1, lsl #3]
  403404:	f90017e0 	str	x0, [sp, #40]
  403408:	52800100 	mov	w0, #0x8                   	// #8
  40340c:	b90023e0 	str	w0, [sp, #32]
  403410:	14000002 	b	403418 <core_init_state+0x1ec>
  403414:	d503201f 	nop
  403418:	b9401fe1 	ldr	w1, [sp, #28]
  40341c:	b94023e0 	ldr	w0, [sp, #32]
  403420:	0b000020 	add	w0, w1, w0
  403424:	11000400 	add	w0, w0, #0x1
  403428:	b9400fe1 	ldr	w1, [sp, #12]
  40342c:	6b00003f 	cmp	w1, w0
  403430:	54fff168 	b.hi	40325c <core_init_state+0x30>  // b.pmore
  403434:	b9400fe0 	ldr	w0, [sp, #12]
  403438:	11000400 	add	w0, w0, #0x1
  40343c:	b9000fe0 	str	w0, [sp, #12]
  403440:	14000008 	b	403460 <core_init_state+0x234>
  403444:	b9401fe0 	ldr	w0, [sp, #28]
  403448:	f94003e1 	ldr	x1, [sp]
  40344c:	8b000020 	add	x0, x1, x0
  403450:	3900001f 	strb	wzr, [x0]
  403454:	b9401fe0 	ldr	w0, [sp, #28]
  403458:	11000400 	add	w0, w0, #0x1
  40345c:	b9001fe0 	str	w0, [sp, #28]
  403460:	b9401fe1 	ldr	w1, [sp, #28]
  403464:	b9400fe0 	ldr	w0, [sp, #12]
  403468:	6b00003f 	cmp	w1, w0
  40346c:	54fffec3 	b.cc	403444 <core_init_state+0x218>  // b.lo, b.ul, b.last
  403470:	d503201f 	nop
  403474:	d503201f 	nop
  403478:	9100c3ff 	add	sp, sp, #0x30
  40347c:	d65f03c0 	ret

0000000000403480 <ee_isdigit>:
  403480:	d10083ff 	sub	sp, sp, #0x20
  403484:	39003fe0 	strb	w0, [sp, #15]
  403488:	39403fe0 	ldrb	w0, [sp, #15]
  40348c:	7100bc1f 	cmp	w0, #0x2f
  403490:	1a9f97e0 	cset	w0, hi  // hi = pmore
  403494:	12001c01 	and	w1, w0, #0xff
  403498:	39403fe0 	ldrb	w0, [sp, #15]
  40349c:	7100e41f 	cmp	w0, #0x39
  4034a0:	1a9f87e0 	cset	w0, ls  // ls = plast
  4034a4:	12001c00 	and	w0, w0, #0xff
  4034a8:	0a000020 	and	w0, w1, w0
  4034ac:	12001c00 	and	w0, w0, #0xff
  4034b0:	39007fe0 	strb	w0, [sp, #31]
  4034b4:	39407fe0 	ldrb	w0, [sp, #31]
  4034b8:	910083ff 	add	sp, sp, #0x20
  4034bc:	d65f03c0 	ret

00000000004034c0 <core_state_transition>:
  4034c0:	a9bd7bfd 	stp	x29, x30, [sp, #-48]!
  4034c4:	910003fd 	mov	x29, sp
  4034c8:	f9000fe0 	str	x0, [sp, #24]
  4034cc:	f9000be1 	str	x1, [sp, #16]
  4034d0:	f9400fe0 	ldr	x0, [sp, #24]
  4034d4:	f9400000 	ldr	x0, [x0]
  4034d8:	f90017e0 	str	x0, [sp, #40]
  4034dc:	b90027ff 	str	wzr, [sp, #36]
  4034e0:	140000e9 	b	403884 <core_state_transition+0x3c4>
  4034e4:	f94017e0 	ldr	x0, [sp, #40]
  4034e8:	39400000 	ldrb	w0, [x0]
  4034ec:	39008fe0 	strb	w0, [sp, #35]
  4034f0:	39408fe0 	ldrb	w0, [sp, #35]
  4034f4:	7100b01f 	cmp	w0, #0x2c
  4034f8:	540000a1 	b.ne	40350c <core_state_transition+0x4c>  // b.any
  4034fc:	f94017e0 	ldr	x0, [sp, #40]
  403500:	91000400 	add	x0, x0, #0x1
  403504:	f90017e0 	str	x0, [sp, #40]
  403508:	140000e6 	b	4038a0 <core_state_transition+0x3e0>
  40350c:	b94027e0 	ldr	w0, [sp, #36]
  403510:	71001c1f 	cmp	w0, #0x7
  403514:	540018a0 	b.eq	403828 <core_state_transition+0x368>  // b.none
  403518:	b94027e0 	ldr	w0, [sp, #36]
  40351c:	71001c1f 	cmp	w0, #0x7
  403520:	540019e8 	b.hi	40385c <core_state_transition+0x39c>  // b.pmore
  403524:	b94027e0 	ldr	w0, [sp, #36]
  403528:	7100181f 	cmp	w0, #0x6
  40352c:	54001540 	b.eq	4037d4 <core_state_transition+0x314>  // b.none
  403530:	b94027e0 	ldr	w0, [sp, #36]
  403534:	7100181f 	cmp	w0, #0x6
  403538:	54001928 	b.hi	40385c <core_state_transition+0x39c>  // b.pmore
  40353c:	b94027e0 	ldr	w0, [sp, #36]
  403540:	7100141f 	cmp	w0, #0x5
  403544:	54000e60 	b.eq	403710 <core_state_transition+0x250>  // b.none
  403548:	b94027e0 	ldr	w0, [sp, #36]
  40354c:	7100141f 	cmp	w0, #0x5
  403550:	54001868 	b.hi	40385c <core_state_transition+0x39c>  // b.pmore
  403554:	b94027e0 	ldr	w0, [sp, #36]
  403558:	7100101f 	cmp	w0, #0x4
  40355c:	54000aa0 	b.eq	4036b0 <core_state_transition+0x1f0>  // b.none
  403560:	b94027e0 	ldr	w0, [sp, #36]
  403564:	7100101f 	cmp	w0, #0x4
  403568:	540017a8 	b.hi	40385c <core_state_transition+0x39c>  // b.pmore
  40356c:	b94027e0 	ldr	w0, [sp, #36]
  403570:	71000c1f 	cmp	w0, #0x3
  403574:	54001040 	b.eq	40377c <core_state_transition+0x2bc>  // b.none
  403578:	b94027e0 	ldr	w0, [sp, #36]
  40357c:	71000c1f 	cmp	w0, #0x3
  403580:	540016e8 	b.hi	40385c <core_state_transition+0x39c>  // b.pmore
  403584:	b94027e0 	ldr	w0, [sp, #36]
  403588:	7100001f 	cmp	w0, #0x0
  40358c:	540000a0 	b.eq	4035a0 <core_state_transition+0xe0>  // b.none
  403590:	b94027e0 	ldr	w0, [sp, #36]
  403594:	7100081f 	cmp	w0, #0x2
  403598:	540004c0 	b.eq	403630 <core_state_transition+0x170>  // b.none
  40359c:	140000b0 	b	40385c <core_state_transition+0x39c>
  4035a0:	39408fe0 	ldrb	w0, [sp, #35]
  4035a4:	97ffffb7 	bl	403480 <ee_isdigit>
  4035a8:	12001c00 	and	w0, w0, #0xff
  4035ac:	7100001f 	cmp	w0, #0x0
  4035b0:	54000080 	b.eq	4035c0 <core_state_transition+0x100>  // b.none
  4035b4:	52800080 	mov	w0, #0x4                   	// #4
  4035b8:	b90027e0 	str	w0, [sp, #36]
  4035bc:	14000017 	b	403618 <core_state_transition+0x158>
  4035c0:	39408fe0 	ldrb	w0, [sp, #35]
  4035c4:	7100ac1f 	cmp	w0, #0x2b
  4035c8:	54000080 	b.eq	4035d8 <core_state_transition+0x118>  // b.none
  4035cc:	39408fe0 	ldrb	w0, [sp, #35]
  4035d0:	7100b41f 	cmp	w0, #0x2d
  4035d4:	54000081 	b.ne	4035e4 <core_state_transition+0x124>  // b.any
  4035d8:	52800040 	mov	w0, #0x2                   	// #2
  4035dc:	b90027e0 	str	w0, [sp, #36]
  4035e0:	1400000e 	b	403618 <core_state_transition+0x158>
  4035e4:	39408fe0 	ldrb	w0, [sp, #35]
  4035e8:	7100b81f 	cmp	w0, #0x2e
  4035ec:	54000081 	b.ne	4035fc <core_state_transition+0x13c>  // b.any
  4035f0:	528000a0 	mov	w0, #0x5                   	// #5
  4035f4:	b90027e0 	str	w0, [sp, #36]
  4035f8:	14000008 	b	403618 <core_state_transition+0x158>
  4035fc:	52800020 	mov	w0, #0x1                   	// #1
  403600:	b90027e0 	str	w0, [sp, #36]
  403604:	f9400be0 	ldr	x0, [sp, #16]
  403608:	91001000 	add	x0, x0, #0x4
  40360c:	b9400001 	ldr	w1, [x0]
  403610:	11000421 	add	w1, w1, #0x1
  403614:	b9000001 	str	w1, [x0]
  403618:	f9400be0 	ldr	x0, [sp, #16]
  40361c:	b9400000 	ldr	w0, [x0]
  403620:	11000401 	add	w1, w0, #0x1
  403624:	f9400be0 	ldr	x0, [sp, #16]
  403628:	b9000001 	str	w1, [x0]
  40362c:	14000093 	b	403878 <core_state_transition+0x3b8>
  403630:	39408fe0 	ldrb	w0, [sp, #35]
  403634:	97ffff93 	bl	403480 <ee_isdigit>
  403638:	12001c00 	and	w0, w0, #0xff
  40363c:	7100001f 	cmp	w0, #0x0
  403640:	54000120 	b.eq	403664 <core_state_transition+0x1a4>  // b.none
  403644:	52800080 	mov	w0, #0x4                   	// #4
  403648:	b90027e0 	str	w0, [sp, #36]
  40364c:	f9400be0 	ldr	x0, [sp, #16]
  403650:	91002000 	add	x0, x0, #0x8
  403654:	b9400001 	ldr	w1, [x0]
  403658:	11000421 	add	w1, w1, #0x1
  40365c:	b9000001 	str	w1, [x0]
  403660:	14000086 	b	403878 <core_state_transition+0x3b8>
  403664:	39408fe0 	ldrb	w0, [sp, #35]
  403668:	7100b81f 	cmp	w0, #0x2e
  40366c:	54000121 	b.ne	403690 <core_state_transition+0x1d0>  // b.any
  403670:	528000a0 	mov	w0, #0x5                   	// #5
  403674:	b90027e0 	str	w0, [sp, #36]
  403678:	f9400be0 	ldr	x0, [sp, #16]
  40367c:	91002000 	add	x0, x0, #0x8
  403680:	b9400001 	ldr	w1, [x0]
  403684:	11000421 	add	w1, w1, #0x1
  403688:	b9000001 	str	w1, [x0]
  40368c:	1400007b 	b	403878 <core_state_transition+0x3b8>
  403690:	52800020 	mov	w0, #0x1                   	// #1
  403694:	b90027e0 	str	w0, [sp, #36]
  403698:	f9400be0 	ldr	x0, [sp, #16]
  40369c:	91002000 	add	x0, x0, #0x8
  4036a0:	b9400001 	ldr	w1, [x0]
  4036a4:	11000421 	add	w1, w1, #0x1
  4036a8:	b9000001 	str	w1, [x0]
  4036ac:	14000073 	b	403878 <core_state_transition+0x3b8>
  4036b0:	39408fe0 	ldrb	w0, [sp, #35]
  4036b4:	7100b81f 	cmp	w0, #0x2e
  4036b8:	54000121 	b.ne	4036dc <core_state_transition+0x21c>  // b.any
  4036bc:	528000a0 	mov	w0, #0x5                   	// #5
  4036c0:	b90027e0 	str	w0, [sp, #36]
  4036c4:	f9400be0 	ldr	x0, [sp, #16]
  4036c8:	91004000 	add	x0, x0, #0x10
  4036cc:	b9400001 	ldr	w1, [x0]
  4036d0:	11000421 	add	w1, w1, #0x1
  4036d4:	b9000001 	str	w1, [x0]
  4036d8:	14000063 	b	403864 <core_state_transition+0x3a4>
  4036dc:	39408fe0 	ldrb	w0, [sp, #35]
  4036e0:	97ffff68 	bl	403480 <ee_isdigit>
  4036e4:	12001c00 	and	w0, w0, #0xff
  4036e8:	7100001f 	cmp	w0, #0x0
  4036ec:	54000bc1 	b.ne	403864 <core_state_transition+0x3a4>  // b.any
  4036f0:	52800020 	mov	w0, #0x1                   	// #1
  4036f4:	b90027e0 	str	w0, [sp, #36]
  4036f8:	f9400be0 	ldr	x0, [sp, #16]
  4036fc:	91004000 	add	x0, x0, #0x10
  403700:	b9400001 	ldr	w1, [x0]
  403704:	11000421 	add	w1, w1, #0x1
  403708:	b9000001 	str	w1, [x0]
  40370c:	14000056 	b	403864 <core_state_transition+0x3a4>
  403710:	39408fe0 	ldrb	w0, [sp, #35]
  403714:	7101141f 	cmp	w0, #0x45
  403718:	54000080 	b.eq	403728 <core_state_transition+0x268>  // b.none
  40371c:	39408fe0 	ldrb	w0, [sp, #35]
  403720:	7101941f 	cmp	w0, #0x65
  403724:	54000121 	b.ne	403748 <core_state_transition+0x288>  // b.any
  403728:	52800060 	mov	w0, #0x3                   	// #3
  40372c:	b90027e0 	str	w0, [sp, #36]
  403730:	f9400be0 	ldr	x0, [sp, #16]
  403734:	91005000 	add	x0, x0, #0x14
  403738:	b9400001 	ldr	w1, [x0]
  40373c:	11000421 	add	w1, w1, #0x1
  403740:	b9000001 	str	w1, [x0]
  403744:	1400004a 	b	40386c <core_state_transition+0x3ac>
  403748:	39408fe0 	ldrb	w0, [sp, #35]
  40374c:	97ffff4d 	bl	403480 <ee_isdigit>
  403750:	12001c00 	and	w0, w0, #0xff
  403754:	7100001f 	cmp	w0, #0x0
  403758:	540008a1 	b.ne	40386c <core_state_transition+0x3ac>  // b.any
  40375c:	52800020 	mov	w0, #0x1                   	// #1
  403760:	b90027e0 	str	w0, [sp, #36]
  403764:	f9400be0 	ldr	x0, [sp, #16]
  403768:	91005000 	add	x0, x0, #0x14
  40376c:	b9400001 	ldr	w1, [x0]
  403770:	11000421 	add	w1, w1, #0x1
  403774:	b9000001 	str	w1, [x0]
  403778:	1400003d 	b	40386c <core_state_transition+0x3ac>
  40377c:	39408fe0 	ldrb	w0, [sp, #35]
  403780:	7100ac1f 	cmp	w0, #0x2b
  403784:	54000080 	b.eq	403794 <core_state_transition+0x2d4>  // b.none
  403788:	39408fe0 	ldrb	w0, [sp, #35]
  40378c:	7100b41f 	cmp	w0, #0x2d
  403790:	54000121 	b.ne	4037b4 <core_state_transition+0x2f4>  // b.any
  403794:	528000c0 	mov	w0, #0x6                   	// #6
  403798:	b90027e0 	str	w0, [sp, #36]
  40379c:	f9400be0 	ldr	x0, [sp, #16]
  4037a0:	91003000 	add	x0, x0, #0xc
  4037a4:	b9400001 	ldr	w1, [x0]
  4037a8:	11000421 	add	w1, w1, #0x1
  4037ac:	b9000001 	str	w1, [x0]
  4037b0:	14000032 	b	403878 <core_state_transition+0x3b8>
  4037b4:	52800020 	mov	w0, #0x1                   	// #1
  4037b8:	b90027e0 	str	w0, [sp, #36]
  4037bc:	f9400be0 	ldr	x0, [sp, #16]
  4037c0:	91003000 	add	x0, x0, #0xc
  4037c4:	b9400001 	ldr	w1, [x0]
  4037c8:	11000421 	add	w1, w1, #0x1
  4037cc:	b9000001 	str	w1, [x0]
  4037d0:	1400002a 	b	403878 <core_state_transition+0x3b8>
  4037d4:	39408fe0 	ldrb	w0, [sp, #35]
  4037d8:	97ffff2a 	bl	403480 <ee_isdigit>
  4037dc:	12001c00 	and	w0, w0, #0xff
  4037e0:	7100001f 	cmp	w0, #0x0
  4037e4:	54000120 	b.eq	403808 <core_state_transition+0x348>  // b.none
  4037e8:	528000e0 	mov	w0, #0x7                   	// #7
  4037ec:	b90027e0 	str	w0, [sp, #36]
  4037f0:	f9400be0 	ldr	x0, [sp, #16]
  4037f4:	91006000 	add	x0, x0, #0x18
  4037f8:	b9400001 	ldr	w1, [x0]
  4037fc:	11000421 	add	w1, w1, #0x1
  403800:	b9000001 	str	w1, [x0]
  403804:	1400001d 	b	403878 <core_state_transition+0x3b8>
  403808:	52800020 	mov	w0, #0x1                   	// #1
  40380c:	b90027e0 	str	w0, [sp, #36]
  403810:	f9400be0 	ldr	x0, [sp, #16]
  403814:	91006000 	add	x0, x0, #0x18
  403818:	b9400001 	ldr	w1, [x0]
  40381c:	11000421 	add	w1, w1, #0x1
  403820:	b9000001 	str	w1, [x0]
  403824:	14000015 	b	403878 <core_state_transition+0x3b8>
  403828:	39408fe0 	ldrb	w0, [sp, #35]
  40382c:	97ffff15 	bl	403480 <ee_isdigit>
  403830:	12001c00 	and	w0, w0, #0xff
  403834:	7100001f 	cmp	w0, #0x0
  403838:	540001e1 	b.ne	403874 <core_state_transition+0x3b4>  // b.any
  40383c:	52800020 	mov	w0, #0x1                   	// #1
  403840:	b90027e0 	str	w0, [sp, #36]
  403844:	f9400be0 	ldr	x0, [sp, #16]
  403848:	91001000 	add	x0, x0, #0x4
  40384c:	b9400001 	ldr	w1, [x0]
  403850:	11000421 	add	w1, w1, #0x1
  403854:	b9000001 	str	w1, [x0]
  403858:	14000007 	b	403874 <core_state_transition+0x3b4>
  40385c:	d503201f 	nop
  403860:	14000006 	b	403878 <core_state_transition+0x3b8>
  403864:	d503201f 	nop
  403868:	14000004 	b	403878 <core_state_transition+0x3b8>
  40386c:	d503201f 	nop
  403870:	14000002 	b	403878 <core_state_transition+0x3b8>
  403874:	d503201f 	nop
  403878:	f94017e0 	ldr	x0, [sp, #40]
  40387c:	91000400 	add	x0, x0, #0x1
  403880:	f90017e0 	str	x0, [sp, #40]
  403884:	f94017e0 	ldr	x0, [sp, #40]
  403888:	39400000 	ldrb	w0, [x0]
  40388c:	7100001f 	cmp	w0, #0x0
  403890:	54000080 	b.eq	4038a0 <core_state_transition+0x3e0>  // b.none
  403894:	b94027e0 	ldr	w0, [sp, #36]
  403898:	7100041f 	cmp	w0, #0x1
  40389c:	54ffe241 	b.ne	4034e4 <core_state_transition+0x24>  // b.any
  4038a0:	f9400fe0 	ldr	x0, [sp, #24]
  4038a4:	f94017e1 	ldr	x1, [sp, #40]
  4038a8:	f9000001 	str	x1, [x0]
  4038ac:	b94027e0 	ldr	w0, [sp, #36]
  4038b0:	a8c37bfd 	ldp	x29, x30, [sp], #48
  4038b4:	d65f03c0 	ret

00000000004038b8 <parseval>:
  4038b8:	d100c3ff 	sub	sp, sp, #0x30
  4038bc:	f90007e0 	str	x0, [sp, #8]
  4038c0:	b9001fff 	str	wzr, [sp, #28]
  4038c4:	52800020 	mov	w0, #0x1                   	// #1
  4038c8:	b90023e0 	str	w0, [sp, #32]
  4038cc:	b90027ff 	str	wzr, [sp, #36]
  4038d0:	f94007e0 	ldr	x0, [sp, #8]
  4038d4:	39400000 	ldrb	w0, [x0]
  4038d8:	7100b41f 	cmp	w0, #0x2d
  4038dc:	540000c1 	b.ne	4038f4 <parseval+0x3c>  // b.any
  4038e0:	12800000 	mov	w0, #0xffffffff            	// #-1
  4038e4:	b90023e0 	str	w0, [sp, #32]
  4038e8:	f94007e0 	ldr	x0, [sp, #8]
  4038ec:	91000400 	add	x0, x0, #0x1
  4038f0:	f90007e0 	str	x0, [sp, #8]
  4038f4:	f94007e0 	ldr	x0, [sp, #8]
  4038f8:	39400000 	ldrb	w0, [x0]
  4038fc:	7100c01f 	cmp	w0, #0x30
  403900:	54000161 	b.ne	40392c <parseval+0x74>  // b.any
  403904:	f94007e0 	ldr	x0, [sp, #8]
  403908:	91000400 	add	x0, x0, #0x1
  40390c:	39400000 	ldrb	w0, [x0]
  403910:	7101e01f 	cmp	w0, #0x78
  403914:	540000c1 	b.ne	40392c <parseval+0x74>  // b.any
  403918:	52800020 	mov	w0, #0x1                   	// #1
  40391c:	b90027e0 	str	w0, [sp, #36]
  403920:	f94007e0 	ldr	x0, [sp, #8]
  403924:	91000800 	add	x0, x0, #0x2
  403928:	f90007e0 	str	x0, [sp, #8]
  40392c:	b94027e0 	ldr	w0, [sp, #36]
  403930:	7100001f 	cmp	w0, #0x0
  403934:	54000720 	b.eq	403a18 <parseval+0x160>  // b.none
  403938:	14000016 	b	403990 <parseval+0xd8>
  40393c:	f94007e0 	ldr	x0, [sp, #8]
  403940:	39400000 	ldrb	w0, [x0]
  403944:	5100c000 	sub	w0, w0, #0x30
  403948:	b9002be0 	str	w0, [sp, #40]
  40394c:	b9402be0 	ldr	w0, [sp, #40]
  403950:	7100241f 	cmp	w0, #0x9
  403954:	540000ad 	b.le	403968 <parseval+0xb0>
  403958:	f94007e0 	ldr	x0, [sp, #8]
  40395c:	39400000 	ldrb	w0, [x0]
  403960:	51015c00 	sub	w0, w0, #0x57
  403964:	b9002be0 	str	w0, [sp, #40]
  403968:	b9401fe0 	ldr	w0, [sp, #28]
  40396c:	531c6c00 	lsl	w0, w0, #4
  403970:	b9001fe0 	str	w0, [sp, #28]
  403974:	b9401fe1 	ldr	w1, [sp, #28]
  403978:	b9402be0 	ldr	w0, [sp, #40]
  40397c:	0b000020 	add	w0, w1, w0
  403980:	b9001fe0 	str	w0, [sp, #28]
  403984:	f94007e0 	ldr	x0, [sp, #8]
  403988:	91000400 	add	x0, x0, #0x1
  40398c:	f90007e0 	str	x0, [sp, #8]
  403990:	f94007e0 	ldr	x0, [sp, #8]
  403994:	39400000 	ldrb	w0, [x0]
  403998:	7100bc1f 	cmp	w0, #0x2f
  40399c:	540000a9 	b.ls	4039b0 <parseval+0xf8>  // b.plast
  4039a0:	f94007e0 	ldr	x0, [sp, #8]
  4039a4:	39400000 	ldrb	w0, [x0]
  4039a8:	7100e41f 	cmp	w0, #0x39
  4039ac:	54fffc89 	b.ls	40393c <parseval+0x84>  // b.plast
  4039b0:	f94007e0 	ldr	x0, [sp, #8]
  4039b4:	39400000 	ldrb	w0, [x0]
  4039b8:	7101801f 	cmp	w0, #0x60
  4039bc:	540003e9 	b.ls	403a38 <parseval+0x180>  // b.plast
  4039c0:	f94007e0 	ldr	x0, [sp, #8]
  4039c4:	39400000 	ldrb	w0, [x0]
  4039c8:	7101981f 	cmp	w0, #0x66
  4039cc:	54fffb89 	b.ls	40393c <parseval+0x84>  // b.plast
  4039d0:	1400001a 	b	403a38 <parseval+0x180>
  4039d4:	f94007e0 	ldr	x0, [sp, #8]
  4039d8:	39400000 	ldrb	w0, [x0]
  4039dc:	5100c000 	sub	w0, w0, #0x30
  4039e0:	b9002fe0 	str	w0, [sp, #44]
  4039e4:	b9401fe1 	ldr	w1, [sp, #28]
  4039e8:	2a0103e0 	mov	w0, w1
  4039ec:	531e7400 	lsl	w0, w0, #2
  4039f0:	0b010000 	add	w0, w0, w1
  4039f4:	531f7800 	lsl	w0, w0, #1
  4039f8:	b9001fe0 	str	w0, [sp, #28]
  4039fc:	b9401fe1 	ldr	w1, [sp, #28]
  403a00:	b9402fe0 	ldr	w0, [sp, #44]
  403a04:	0b000020 	add	w0, w1, w0
  403a08:	b9001fe0 	str	w0, [sp, #28]
  403a0c:	f94007e0 	ldr	x0, [sp, #8]
  403a10:	91000400 	add	x0, x0, #0x1
  403a14:	f90007e0 	str	x0, [sp, #8]
  403a18:	f94007e0 	ldr	x0, [sp, #8]
  403a1c:	39400000 	ldrb	w0, [x0]
  403a20:	7100bc1f 	cmp	w0, #0x2f
  403a24:	540000a9 	b.ls	403a38 <parseval+0x180>  // b.plast
  403a28:	f94007e0 	ldr	x0, [sp, #8]
  403a2c:	39400000 	ldrb	w0, [x0]
  403a30:	7100e41f 	cmp	w0, #0x39
  403a34:	54fffd09 	b.ls	4039d4 <parseval+0x11c>  // b.plast
  403a38:	f94007e0 	ldr	x0, [sp, #8]
  403a3c:	39400000 	ldrb	w0, [x0]
  403a40:	71012c1f 	cmp	w0, #0x4b
  403a44:	54000081 	b.ne	403a54 <parseval+0x19c>  // b.any
  403a48:	b9401fe0 	ldr	w0, [sp, #28]
  403a4c:	53165400 	lsl	w0, w0, #10
  403a50:	b9001fe0 	str	w0, [sp, #28]
  403a54:	f94007e0 	ldr	x0, [sp, #8]
  403a58:	39400000 	ldrb	w0, [x0]
  403a5c:	7101341f 	cmp	w0, #0x4d
  403a60:	54000081 	b.ne	403a70 <parseval+0x1b8>  // b.any
  403a64:	b9401fe0 	ldr	w0, [sp, #28]
  403a68:	530c2c00 	lsl	w0, w0, #20
  403a6c:	b9001fe0 	str	w0, [sp, #28]
  403a70:	b9401fe1 	ldr	w1, [sp, #28]
  403a74:	b94023e0 	ldr	w0, [sp, #32]
  403a78:	1b007c20 	mul	w0, w1, w0
  403a7c:	b9001fe0 	str	w0, [sp, #28]
  403a80:	b9401fe0 	ldr	w0, [sp, #28]
  403a84:	9100c3ff 	add	sp, sp, #0x30
  403a88:	d65f03c0 	ret

0000000000403a8c <get_seed_args>:
  403a8c:	a9be7bfd 	stp	x29, x30, [sp, #-32]!
  403a90:	910003fd 	mov	x29, sp
  403a94:	b9001fe0 	str	w0, [sp, #28]
  403a98:	b9001be1 	str	w1, [sp, #24]
  403a9c:	f9000be2 	str	x2, [sp, #16]
  403aa0:	b9401be1 	ldr	w1, [sp, #24]
  403aa4:	b9401fe0 	ldr	w0, [sp, #28]
  403aa8:	6b00003f 	cmp	w1, w0
  403aac:	5400010d 	b.le	403acc <get_seed_args+0x40>
  403ab0:	b9801fe0 	ldrsw	x0, [sp, #28]
  403ab4:	d37df000 	lsl	x0, x0, #3
  403ab8:	f9400be1 	ldr	x1, [sp, #16]
  403abc:	8b000020 	add	x0, x1, x0
  403ac0:	f9400000 	ldr	x0, [x0]
  403ac4:	97ffff7d 	bl	4038b8 <parseval>
  403ac8:	14000002 	b	403ad0 <get_seed_args+0x44>
  403acc:	52800000 	mov	w0, #0x0                   	// #0
  403ad0:	a8c27bfd 	ldp	x29, x30, [sp], #32
  403ad4:	d65f03c0 	ret

0000000000403ad8 <crcu8>:
  403ad8:	d10083ff 	sub	sp, sp, #0x20
  403adc:	39003fe0 	strb	w0, [sp, #15]
  403ae0:	79001be1 	strh	w1, [sp, #12]
  403ae4:	390077ff 	strb	wzr, [sp, #29]
  403ae8:	39007fff 	strb	wzr, [sp, #31]
  403aec:	39007bff 	strb	wzr, [sp, #30]
  403af0:	390077ff 	strb	wzr, [sp, #29]
  403af4:	14000027 	b	403b90 <crcu8+0xb8>
  403af8:	79401be0 	ldrh	w0, [sp, #12]
  403afc:	13001c01 	sxtb	w1, w0
  403b00:	39c03fe0 	ldrsb	w0, [sp, #15]
  403b04:	4a000020 	eor	w0, w1, w0
  403b08:	13001c00 	sxtb	w0, w0
  403b0c:	12001c00 	and	w0, w0, #0xff
  403b10:	12000000 	and	w0, w0, #0x1
  403b14:	39007fe0 	strb	w0, [sp, #31]
  403b18:	39403fe0 	ldrb	w0, [sp, #15]
  403b1c:	53017c00 	lsr	w0, w0, #1
  403b20:	39003fe0 	strb	w0, [sp, #15]
  403b24:	39407fe0 	ldrb	w0, [sp, #31]
  403b28:	7100041f 	cmp	w0, #0x1
  403b2c:	54000101 	b.ne	403b4c <crcu8+0x74>  // b.any
  403b30:	79401be1 	ldrh	w1, [sp, #12]
  403b34:	52880040 	mov	w0, #0x4002                	// #16386
  403b38:	4a000020 	eor	w0, w1, w0
  403b3c:	79001be0 	strh	w0, [sp, #12]
  403b40:	52800020 	mov	w0, #0x1                   	// #1
  403b44:	39007be0 	strb	w0, [sp, #30]
  403b48:	14000002 	b	403b50 <crcu8+0x78>
  403b4c:	39007bff 	strb	wzr, [sp, #30]
  403b50:	79401be0 	ldrh	w0, [sp, #12]
  403b54:	53017c00 	lsr	w0, w0, #1
  403b58:	79001be0 	strh	w0, [sp, #12]
  403b5c:	39407be0 	ldrb	w0, [sp, #30]
  403b60:	7100001f 	cmp	w0, #0x0
  403b64:	540000a0 	b.eq	403b78 <crcu8+0xa0>  // b.none
  403b68:	79401be0 	ldrh	w0, [sp, #12]
  403b6c:	32114000 	orr	w0, w0, #0xffff8000
  403b70:	79001be0 	strh	w0, [sp, #12]
  403b74:	14000004 	b	403b84 <crcu8+0xac>
  403b78:	79401be0 	ldrh	w0, [sp, #12]
  403b7c:	12003800 	and	w0, w0, #0x7fff
  403b80:	79001be0 	strh	w0, [sp, #12]
  403b84:	394077e0 	ldrb	w0, [sp, #29]
  403b88:	11000400 	add	w0, w0, #0x1
  403b8c:	390077e0 	strb	w0, [sp, #29]
  403b90:	394077e0 	ldrb	w0, [sp, #29]
  403b94:	71001c1f 	cmp	w0, #0x7
  403b98:	54fffb09 	b.ls	403af8 <crcu8+0x20>  // b.plast
  403b9c:	79401be0 	ldrh	w0, [sp, #12]
  403ba0:	910083ff 	add	sp, sp, #0x20
  403ba4:	d65f03c0 	ret

0000000000403ba8 <crcu16>:
  403ba8:	a9be7bfd 	stp	x29, x30, [sp, #-32]!
  403bac:	910003fd 	mov	x29, sp
  403bb0:	79003fe0 	strh	w0, [sp, #30]
  403bb4:	79003be1 	strh	w1, [sp, #28]
  403bb8:	79403fe0 	ldrh	w0, [sp, #30]
  403bbc:	12001c00 	and	w0, w0, #0xff
  403bc0:	79403be1 	ldrh	w1, [sp, #28]
  403bc4:	97ffffc5 	bl	403ad8 <crcu8>
  403bc8:	79003be0 	strh	w0, [sp, #28]
  403bcc:	79403fe0 	ldrh	w0, [sp, #30]
  403bd0:	53087c00 	lsr	w0, w0, #8
  403bd4:	12003c00 	and	w0, w0, #0xffff
  403bd8:	12001c00 	and	w0, w0, #0xff
  403bdc:	79403be1 	ldrh	w1, [sp, #28]
  403be0:	97ffffbe 	bl	403ad8 <crcu8>
  403be4:	79003be0 	strh	w0, [sp, #28]
  403be8:	79403be0 	ldrh	w0, [sp, #28]
  403bec:	a8c27bfd 	ldp	x29, x30, [sp], #32
  403bf0:	d65f03c0 	ret

0000000000403bf4 <crcu32>:
  403bf4:	a9be7bfd 	stp	x29, x30, [sp, #-32]!
  403bf8:	910003fd 	mov	x29, sp
  403bfc:	b9001fe0 	str	w0, [sp, #28]
  403c00:	790037e1 	strh	w1, [sp, #26]
  403c04:	b9401fe0 	ldr	w0, [sp, #28]
  403c08:	13003c00 	sxth	w0, w0
  403c0c:	794037e1 	ldrh	w1, [sp, #26]
  403c10:	9400000b 	bl	403c3c <crc16>
  403c14:	790037e0 	strh	w0, [sp, #26]
  403c18:	b9401fe0 	ldr	w0, [sp, #28]
  403c1c:	53107c00 	lsr	w0, w0, #16
  403c20:	13003c00 	sxth	w0, w0
  403c24:	794037e1 	ldrh	w1, [sp, #26]
  403c28:	94000005 	bl	403c3c <crc16>
  403c2c:	790037e0 	strh	w0, [sp, #26]
  403c30:	794037e0 	ldrh	w0, [sp, #26]
  403c34:	a8c27bfd 	ldp	x29, x30, [sp], #32
  403c38:	d65f03c0 	ret

0000000000403c3c <crc16>:
  403c3c:	a9be7bfd 	stp	x29, x30, [sp, #-32]!
  403c40:	910003fd 	mov	x29, sp
  403c44:	79003fe0 	strh	w0, [sp, #30]
  403c48:	79003be1 	strh	w1, [sp, #28]
  403c4c:	79403fe0 	ldrh	w0, [sp, #30]
  403c50:	79403be1 	ldrh	w1, [sp, #28]
  403c54:	97ffffd5 	bl	403ba8 <crcu16>
  403c58:	12003c00 	and	w0, w0, #0xffff
  403c5c:	a8c27bfd 	ldp	x29, x30, [sp], #32
  403c60:	d65f03c0 	ret

0000000000403c64 <check_data_types>:
  403c64:	a9be7bfd 	stp	x29, x30, [sp, #-32]!
  403c68:	910003fd 	mov	x29, sp
  403c6c:	39007fff 	strb	wzr, [sp, #31]
  403c70:	39407fe0 	ldrb	w0, [sp, #31]
  403c74:	7100001f 	cmp	w0, #0x0
  403c78:	54000080 	b.eq	403c88 <check_data_types+0x24>  // b.none
  403c7c:	f0000280 	adrp	x0, 456000 <_IO_stdin_used+0x300>
  403c80:	910ac000 	add	x0, x0, #0x2b0
  403c84:	94003229 	bl	410528 <_IO_puts>
  403c88:	39407fe0 	ldrb	w0, [sp, #31]
  403c8c:	a8c27bfd 	ldp	x29, x30, [sp], #32
  403c90:	d65f03c0 	ret

0000000000403c94 <portable_malloc>:
  403c94:	a9be7bfd 	stp	x29, x30, [sp, #-32]!
  403c98:	910003fd 	mov	x29, sp
  403c9c:	f9000fe0 	str	x0, [sp, #24]
  403ca0:	f9400fe0 	ldr	x0, [sp, #24]
  403ca4:	94006081 	bl	41bea8 <__libc_malloc>
  403ca8:	a8c27bfd 	ldp	x29, x30, [sp], #32
  403cac:	d65f03c0 	ret

0000000000403cb0 <portable_free>:
  403cb0:	a9be7bfd 	stp	x29, x30, [sp, #-32]!
  403cb4:	910003fd 	mov	x29, sp
  403cb8:	f9000fe0 	str	x0, [sp, #24]
  403cbc:	f9400fe0 	ldr	x0, [sp, #24]
  403cc0:	940061f2 	bl	41c488 <__free>
  403cc4:	d503201f 	nop
  403cc8:	a8c27bfd 	ldp	x29, x30, [sp], #32
  403ccc:	d65f03c0 	ret

0000000000403cd0 <start_time>:
  403cd0:	a9bf7bfd 	stp	x29, x30, [sp, #-16]!
  403cd4:	910003fd 	mov	x29, sp
  403cd8:	90000460 	adrp	x0, 48f000 <__progname_full>
  403cdc:	912a4001 	add	x1, x0, #0xa90
  403ce0:	52800000 	mov	w0, #0x0                   	// #0
  403ce4:	94007697 	bl	421740 <__clock_gettime>
  403ce8:	d503201f 	nop
  403cec:	a8c17bfd 	ldp	x29, x30, [sp], #16
  403cf0:	d65f03c0 	ret

0000000000403cf4 <stop_time>:
  403cf4:	a9bf7bfd 	stp	x29, x30, [sp, #-16]!
  403cf8:	910003fd 	mov	x29, sp
  403cfc:	90000460 	adrp	x0, 48f000 <__progname_full>
  403d00:	912a8001 	add	x1, x0, #0xaa0
  403d04:	52800000 	mov	w0, #0x0                   	// #0
  403d08:	9400768e 	bl	421740 <__clock_gettime>
  403d0c:	d503201f 	nop
  403d10:	a8c17bfd 	ldp	x29, x30, [sp], #16
  403d14:	d65f03c0 	ret

0000000000403d18 <get_time>:
  403d18:	d10043ff 	sub	sp, sp, #0x10
  403d1c:	90000460 	adrp	x0, 48f000 <__progname_full>
  403d20:	912a8000 	add	x0, x0, #0xaa0
  403d24:	f9400001 	ldr	x1, [x0]
  403d28:	90000460 	adrp	x0, 48f000 <__progname_full>
  403d2c:	912a4000 	add	x0, x0, #0xa90
  403d30:	f9400000 	ldr	x0, [x0]
  403d34:	cb000021 	sub	x1, x1, x0
  403d38:	aa0103e0 	mov	x0, x1
  403d3c:	d37be800 	lsl	x0, x0, #5
  403d40:	cb010000 	sub	x0, x0, x1
  403d44:	d37ef400 	lsl	x0, x0, #2
  403d48:	8b010000 	add	x0, x0, x1
  403d4c:	d37df000 	lsl	x0, x0, #3
  403d50:	aa0003e2 	mov	x2, x0
  403d54:	90000460 	adrp	x0, 48f000 <__progname_full>
  403d58:	912a8000 	add	x0, x0, #0xaa0
  403d5c:	f9400401 	ldr	x1, [x0, #8]
  403d60:	90000460 	adrp	x0, 48f000 <__progname_full>
  403d64:	912a4000 	add	x0, x0, #0xa90
  403d68:	f9400400 	ldr	x0, [x0, #8]
  403d6c:	cb000020 	sub	x0, x1, x0
  403d70:	d2869b61 	mov	x1, #0x34db                	// #13531
  403d74:	f2baf6c1 	movk	x1, #0xd7b6, lsl #16
  403d78:	f2dbd041 	movk	x1, #0xde82, lsl #32
  403d7c:	f2e86361 	movk	x1, #0x431b, lsl #48
  403d80:	9b417c01 	smulh	x1, x0, x1
  403d84:	9352fc21 	asr	x1, x1, #18
  403d88:	937ffc00 	asr	x0, x0, #63
  403d8c:	cb000020 	sub	x0, x1, x0
  403d90:	8b000040 	add	x0, x2, x0
  403d94:	f90007e0 	str	x0, [sp, #8]
  403d98:	f94007e0 	ldr	x0, [sp, #8]
  403d9c:	910043ff 	add	sp, sp, #0x10
  403da0:	d65f03c0 	ret

0000000000403da4 <time_in_secs>:
  403da4:	d10083ff 	sub	sp, sp, #0x20
  403da8:	f90007e0 	str	x0, [sp, #8]
  403dac:	fd4007e0 	ldr	d0, [sp, #8]
  403db0:	5e61d800 	scvtf	d0, d0
  403db4:	d2c80000 	mov	x0, #0x400000000000        	// #70368744177664
  403db8:	f2e811e0 	movk	x0, #0x408f, lsl #48
  403dbc:	9e670001 	fmov	d1, x0
  403dc0:	1e611800 	fdiv	d0, d0, d1
  403dc4:	fd000fe0 	str	d0, [sp, #24]
  403dc8:	fd400fe0 	ldr	d0, [sp, #24]
  403dcc:	910083ff 	add	sp, sp, #0x20
  403dd0:	d65f03c0 	ret

0000000000403dd4 <portable_init>:
  403dd4:	d10083ff 	sub	sp, sp, #0x20
  403dd8:	f9000fe0 	str	x0, [sp, #24]
  403ddc:	f9000be1 	str	x1, [sp, #16]
  403de0:	f90007e2 	str	x2, [sp, #8]
  403de4:	f9400fe0 	ldr	x0, [sp, #24]
  403de8:	52800021 	mov	w1, #0x1                   	// #1
  403dec:	39000001 	strb	w1, [x0]
  403df0:	d503201f 	nop
  403df4:	910083ff 	add	sp, sp, #0x20
  403df8:	d65f03c0 	ret

0000000000403dfc <portable_fini>:
  403dfc:	d10043ff 	sub	sp, sp, #0x10
  403e00:	f90007e0 	str	x0, [sp, #8]
  403e04:	f94007e0 	ldr	x0, [sp, #8]
  403e08:	3900001f 	strb	wzr, [x0]
  403e0c:	d503201f 	nop
  403e10:	910043ff 	add	sp, sp, #0x10
  403e14:	d65f03c0 	ret

0000000000403e18 <__libc_start_main>:
  403e18:	a9a87bfd 	stp	x29, x30, [sp, #-384]!
  403e1c:	f0000287 	adrp	x7, 456000 <_IO_stdin_used+0x300>
  403e20:	910003fd 	mov	x29, sp
  403e24:	f94214e7 	ldr	x7, [x7, #1064]
  403e28:	a90153f3 	stp	x19, x20, [sp, #16]
  403e2c:	aa0303f3 	mov	x19, x3
  403e30:	a9025bf5 	stp	x21, x22, [sp, #32]
  403e34:	aa0403f4 	mov	x20, x4
  403e38:	aa0503f5 	mov	x21, x5
  403e3c:	a90363f7 	stp	x23, x24, [sp, #48]
  403e40:	a9046bf9 	stp	x25, x26, [sp, #64]
  403e44:	f9002bfb 	str	x27, [sp, #80]
  403e48:	b9006fe1 	str	w1, [sp, #108]
  403e4c:	52800001 	mov	w1, #0x0                   	// #0
  403e50:	a90703e2 	stp	x2, x0, [sp, #112]
  403e54:	b4000087 	cbz	x7, 403e64 <__libc_start_main+0x4c>
  403e58:	b94000e0 	ldr	w0, [x7]
  403e5c:	7100001f 	cmp	w0, #0x0
  403e60:	1a9f17e1 	cset	w1, eq  // eq = none
  403e64:	f9403be5 	ldr	x5, [sp, #112]
  403e68:	b0000463 	adrp	x3, 490000 <__abort_msg>
  403e6c:	b9406fe0 	ldr	w0, [sp, #108]
  403e70:	90000464 	adrp	x4, 48f000 <__progname_full>
  403e74:	d0000442 	adrp	x2, 48d000 <__FRAME_END__+0x1034c>
  403e78:	b9062881 	str	w1, [x4, #1576]
  403e7c:	8b20cca0 	add	x0, x5, w0, sxtw #3
  403e80:	f9077446 	str	x6, [x2, #3816]
  403e84:	91002000 	add	x0, x0, #0x8
  403e88:	f9028060 	str	x0, [x3, #1280]
  403e8c:	d503201f 	nop
  403e90:	f8408401 	ldr	x1, [x0], #8
  403e94:	b5ffffe1 	cbnz	x1, 403e90 <__libc_start_main+0x78>
  403e98:	94008268 	bl	424838 <_dl_aux_init>
  403e9c:	b0000461 	adrp	x1, 490000 <__abort_msg>
  403ea0:	f0000280 	adrp	x0, 456000 <_IO_stdin_used+0x300>
  403ea4:	f9479022 	ldr	x2, [x1, #3872]
  403ea8:	f9421800 	ldr	x0, [x0, #1072]
  403eac:	f100005f 	cmp	x2, #0x0
  403eb0:	fa400804 	ccmp	x0, #0x0, #0x4, eq  // eq = none
  403eb4:	540007e1 	b.ne	403fb0 <__libc_start_main+0x198>  // b.any
  403eb8:	940085d0 	bl	4255f8 <__libc_init_secure>
  403ebc:	b0000460 	adrp	x0, 490000 <__abort_msg>
  403ec0:	f9428000 	ldr	x0, [x0, #1280]
  403ec4:	9400811b 	bl	424330 <__tunables_init>
  403ec8:	910223e1 	add	x1, sp, #0x88
  403ecc:	d2800002 	mov	x2, #0x0                   	// #0
  403ed0:	52800060 	mov	w0, #0x3                   	// #3
  403ed4:	9400823b 	bl	4247c0 <__tunable_get_val>
  403ed8:	f94047f6 	ldr	x22, [sp, #136]
  403edc:	b4000196 	cbz	x22, 403f0c <__libc_start_main+0xf4>
  403ee0:	f0000298 	adrp	x24, 456000 <_IO_stdin_used+0x300>
  403ee4:	91114318 	add	x24, x24, #0x450
  403ee8:	d2800017 	mov	x23, #0x0                   	// #0
  403eec:	d37ceee1 	lsl	x1, x23, #4
  403ef0:	aa1603e0 	mov	x0, x22
  403ef4:	f8786821 	ldr	x1, [x1, x24]
  403ef8:	940066f2 	bl	41dac0 <strcmp>
  403efc:	34000fc0 	cbz	w0, 4040f4 <__libc_start_main+0x2dc>
  403f00:	910006f7 	add	x23, x23, #0x1
  403f04:	f10026ff 	cmp	x23, #0x9
  403f08:	54ffff21 	b.ne	403eec <__libc_start_main+0xd4>  // b.any
  403f0c:	b0000460 	adrp	x0, 490000 <__abort_msg>
  403f10:	f9429001 	ldr	x1, [x0, #1312]
  403f14:	92750020 	and	x0, x1, #0x800
  403f18:	36580041 	tbz	w1, #11, 403f20 <__libc_start_main+0x108>
  403f1c:	d5380000 	mrs	x0, midr_el1
  403f20:	b0000461 	adrp	x1, 490000 <__abort_msg>
  403f24:	9114a022 	add	x2, x1, #0x528
  403f28:	f9029420 	str	x0, [x1, #1320]
  403f2c:	d53b00e0 	mrs	x0, dczid_el0
  403f30:	372000a0 	tbnz	w0, #4, 403f44 <__libc_start_main+0x12c>
  403f34:	12000c00 	and	w0, w0, #0xf
  403f38:	52800081 	mov	w1, #0x4                   	// #4
  403f3c:	1ac02020 	lsl	w0, w1, w0
  403f40:	b9000840 	str	w0, [x2, #8]
  403f44:	f0000280 	adrp	x0, 456000 <_IO_stdin_used+0x300>
  403f48:	f000029b 	adrp	x27, 456000 <_IO_stdin_used+0x300>
  403f4c:	d2800318 	mov	x24, #0x18                  	// #24
  403f50:	b000047a 	adrp	x26, 490000 <__abort_msg>
  403f54:	f9421016 	ldr	x22, [x0, #1056]
  403f58:	b0000479 	adrp	x25, 490000 <__abort_msg>
  403f5c:	1400000b 	b	403f88 <__libc_start_main+0x170>
  403f60:	f9400ac2 	ldr	x2, [x22, #16]
  403f64:	910062d6 	add	x22, x22, #0x18
  403f68:	f9429340 	ldr	x0, [x26, #1312]
  403f6c:	a90903f8 	stp	x24, x0, [sp, #144]
  403f70:	f9428b21 	ldr	x1, [x25, #1296]
  403f74:	f90053e1 	str	x1, [sp, #160]
  403f78:	b2420000 	orr	x0, x0, #0x4000000000000000
  403f7c:	910243e1 	add	x1, sp, #0x90
  403f80:	d63f0040 	blr	x2
  403f84:	f90002e0 	str	x0, [x23]
  403f88:	f9421f60 	ldr	x0, [x27, #1080]
  403f8c:	eb0002df 	cmp	x22, x0
  403f90:	54000342 	b.cs	403ff8 <__libc_start_main+0x1e0>  // b.hs, b.nlast
  403f94:	b9400ac0 	ldr	w0, [x22, #8]
  403f98:	f94002d7 	ldr	x23, [x22]
  403f9c:	f110201f 	cmp	x0, #0x408
  403fa0:	54fffe00 	b.eq	403f60 <__libc_start_main+0x148>  // b.none
  403fa4:	f0000280 	adrp	x0, 456000 <_IO_stdin_used+0x300>
  403fa8:	910cc000 	add	x0, x0, #0x330
  403fac:	94003ab9 	bl	412a90 <__libc_fatal>
  403fb0:	79406c02 	ldrh	w2, [x0, #54]
  403fb4:	7100e05f 	cmp	w2, #0x38
  403fb8:	54000120 	b.eq	403fdc <__libc_start_main+0x1c4>  // b.none
  403fbc:	f0000283 	adrp	x3, 456000 <_IO_stdin_used+0x300>
  403fc0:	f0000281 	adrp	x1, 456000 <_IO_stdin_used+0x300>
  403fc4:	f0000280 	adrp	x0, 456000 <_IO_stdin_used+0x300>
  403fc8:	910e8063 	add	x3, x3, #0x3a0
  403fcc:	910ba021 	add	x1, x1, #0x2e8
  403fd0:	910c0000 	add	x0, x0, #0x300
  403fd4:	52801682 	mov	w2, #0xb4                  	// #180
  403fd8:	940001e2 	bl	404760 <__assert_fail>
  403fdc:	f9401002 	ldr	x2, [x0, #32]
  403fe0:	b0000463 	adrp	x3, 490000 <__abort_msg>
  403fe4:	79407004 	ldrh	w4, [x0, #56]
  403fe8:	f907ac64 	str	x4, [x3, #3928]
  403fec:	8b000040 	add	x0, x2, x0
  403ff0:	f9079020 	str	x0, [x1, #3872]
  403ff4:	17ffffb1 	b	403eb8 <__libc_start_main+0xa0>
  403ff8:	940000a8 	bl	404298 <__libc_setup_tls>
  403ffc:	d0000440 	adrp	x0, 48d000 <__FRAME_END__+0x1034c>
  404000:	f0000441 	adrp	x1, 48f000 <__progname_full>
  404004:	b0000442 	adrp	x2, 48d000 <__FRAME_END__+0x1034c>
  404008:	f9472400 	ldr	x0, [x0, #3656]
  40400c:	b9462821 	ldr	w1, [x1, #1576]
  404010:	f9400000 	ldr	x0, [x0]
  404014:	9278dc00 	and	x0, x0, #0xffffffffffffff00
  404018:	f904d040 	str	x0, [x2, #2464]
  40401c:	34000761 	cbz	w1, 404108 <__libc_start_main+0x2f0>
  404020:	d0000280 	adrp	x0, 456000 <_IO_stdin_used+0x300>
  404024:	f9422000 	ldr	x0, [x0, #1088]
  404028:	b4000040 	cbz	x0, 404030 <__libc_start_main+0x218>
  40402c:	d503201f 	nop
  404030:	b0000441 	adrp	x1, 48d000 <__FRAME_END__+0x1034c>
  404034:	b0000440 	adrp	x0, 48d000 <__FRAME_END__+0x1034c>
  404038:	f9472421 	ldr	x1, [x1, #3656]
  40403c:	f9400421 	ldr	x1, [x1, #8]
  404040:	f904d401 	str	x1, [x0, #2472]
  404044:	b40000b5 	cbz	x21, 404058 <__libc_start_main+0x240>
  404048:	aa1503e0 	mov	x0, x21
  40404c:	d2800002 	mov	x2, #0x0                   	// #0
  404050:	d2800001 	mov	x1, #0x0                   	// #0
  404054:	94001619 	bl	4098b8 <__cxa_atexit>
  404058:	90000462 	adrp	x2, 490000 <__abort_msg>
  40405c:	b9406fe0 	ldr	w0, [sp, #108]
  404060:	f9403be1 	ldr	x1, [sp, #112]
  404064:	f9428042 	ldr	x2, [x2, #1280]
  404068:	940085dc 	bl	4257d8 <__libc_init_first>
  40406c:	b40000b4 	cbz	x20, 404080 <__libc_start_main+0x268>
  404070:	aa1403e0 	mov	x0, x20
  404074:	d2800002 	mov	x2, #0x0                   	// #0
  404078:	d2800001 	mov	x1, #0x0                   	// #0
  40407c:	9400160f 	bl	4098b8 <__cxa_atexit>
  404080:	b0000440 	adrp	x0, 48d000 <__FRAME_END__+0x1034c>
  404084:	b94ef000 	ldr	w0, [x0, #3824]
  404088:	350007a0 	cbnz	w0, 40417c <__libc_start_main+0x364>
  40408c:	b40000d3 	cbz	x19, 4040a4 <__libc_start_main+0x28c>
  404090:	90000462 	adrp	x2, 490000 <__abort_msg>
  404094:	b9406fe0 	ldr	w0, [sp, #108]
  404098:	f9403be1 	ldr	x1, [sp, #112]
  40409c:	f9428042 	ldr	x2, [x2, #1280]
  4040a0:	d63f0260 	blr	x19
  4040a4:	d2800001 	mov	x1, #0x0                   	// #0
  4040a8:	d2800000 	mov	x0, #0x0                   	// #0
  4040ac:	94008041 	bl	4241b0 <_dl_debug_initialize>
  4040b0:	9102a3e0 	add	x0, sp, #0xa8
  4040b4:	9400126b 	bl	408a60 <_setjmp>
  4040b8:	35000440 	cbnz	w0, 404140 <__libc_start_main+0x328>
  4040bc:	d53bd040 	mrs	x0, tpidr_el0
  4040c0:	90000461 	adrp	x1, 490000 <__abort_msg>
  4040c4:	d11c0000 	sub	x0, x0, #0x700
  4040c8:	9102a3e3 	add	x3, sp, #0xa8
  4040cc:	f9428022 	ldr	x2, [x1, #1280]
  4040d0:	f9408004 	ldr	x4, [x0, #256]
  4040d4:	f9008003 	str	x3, [x0, #256]
  4040d8:	f9407c03 	ldr	x3, [x0, #248]
  4040dc:	a9160fe4 	stp	x4, x3, [sp, #352]
  4040e0:	b9406fe0 	ldr	w0, [sp, #108]
  4040e4:	f9403be1 	ldr	x1, [sp, #112]
  4040e8:	f9403fe3 	ldr	x3, [sp, #120]
  4040ec:	d63f0060 	blr	x3
  4040f0:	94001566 	bl	409688 <exit>
  4040f4:	8b37d318 	add	x24, x24, w23, sxtw #4
  4040f8:	f9400700 	ldr	x0, [x24, #8]
  4040fc:	b100041f 	cmn	x0, #0x1
  404100:	54fff101 	b.ne	403f20 <__libc_start_main+0x108>  // b.any
  404104:	17ffff82 	b	403f0c <__libc_start_main+0xf4>
  404108:	94008568 	bl	4256a8 <_dl_discover_osversion>
  40410c:	37f80420 	tbnz	w0, #31, 404190 <__libc_start_main+0x378>
  404110:	90000461 	adrp	x1, 490000 <__abort_msg>
  404114:	b94f7821 	ldr	w1, [x1, #3960]
  404118:	35000361 	cbnz	w1, 404184 <__libc_start_main+0x36c>
  40411c:	90000461 	adrp	x1, 490000 <__abort_msg>
  404120:	b90f7820 	str	w0, [x1, #3960]
  404124:	5280dfe1 	mov	w1, #0x6ff                 	// #1791
  404128:	72a00061 	movk	w1, #0x3, lsl #16
  40412c:	6b01001f 	cmp	w0, w1
  404130:	54fff78c 	b.gt	404020 <__libc_start_main+0x208>
  404134:	d0000280 	adrp	x0, 456000 <_IO_stdin_used+0x300>
  404138:	910d8000 	add	x0, x0, #0x360
  40413c:	94003a55 	bl	412a90 <__libc_fatal>
  404140:	d503201f 	nop
  404144:	d0000280 	adrp	x0, 456000 <_IO_stdin_used+0x300>
  404148:	f9422400 	ldr	x0, [x0, #1096]
  40414c:	885ffc01 	ldaxr	w1, [x0]
  404150:	51000422 	sub	w2, w1, #0x1
  404154:	88037c02 	stxr	w3, w2, [x0]
  404158:	35ffffa3 	cbnz	w3, 40414c <__libc_start_main+0x334>
  40415c:	7100043f 	cmp	w1, #0x1
  404160:	540000a0 	b.eq	404174 <__libc_start_main+0x35c>  // b.none
  404164:	d2800ba8 	mov	x8, #0x5d                  	// #93
  404168:	d2800000 	mov	x0, #0x0                   	// #0
  40416c:	d4000001 	svc	#0x0
  404170:	17fffffe 	b	404168 <__libc_start_main+0x350>
  404174:	52800000 	mov	w0, #0x0                   	// #0
  404178:	94001544 	bl	409688 <exit>
  40417c:	9400003b 	bl	404268 <__libc_check_standard_fds>
  404180:	17ffffc3 	b	40408c <__libc_start_main+0x274>
  404184:	6b00003f 	cmp	w1, w0
  404188:	54fffce9 	b.ls	404124 <__libc_start_main+0x30c>  // b.plast
  40418c:	17ffffe4 	b	40411c <__libc_start_main+0x304>
  404190:	d0000280 	adrp	x0, 456000 <_IO_stdin_used+0x300>
  404194:	910de000 	add	x0, x0, #0x378
  404198:	94003a3e 	bl	412a90 <__libc_fatal>
  40419c:	d503201f 	nop

00000000004041a0 <check_one_fd>:
  4041a0:	a9b57bfd 	stp	x29, x30, [sp, #-176]!
  4041a4:	910003fd 	mov	x29, sp
  4041a8:	a90153f3 	stp	x19, x20, [sp, #16]
  4041ac:	2a0103f4 	mov	w20, w1
  4041b0:	2a0003f3 	mov	w19, w0
  4041b4:	52800021 	mov	w1, #0x1                   	// #1
  4041b8:	94007950 	bl	4226f8 <__fcntl64_nocancel>
  4041bc:	3100041f 	cmn	w0, #0x1
  4041c0:	54000080 	b.eq	4041d0 <check_one_fd+0x30>  // b.none
  4041c4:	a94153f3 	ldp	x19, x20, [sp, #16]
  4041c8:	a8cb7bfd 	ldp	x29, x30, [sp], #176
  4041cc:	d65f03c0 	ret
  4041d0:	b0000440 	adrp	x0, 48d000 <__FRAME_END__+0x1034c>
  4041d4:	f947c400 	ldr	x0, [x0, #3976]
  4041d8:	d53bd041 	mrs	x1, tpidr_el0
  4041dc:	b8606820 	ldr	w0, [x1, x0]
  4041e0:	7100241f 	cmp	w0, #0x9
  4041e4:	54ffff01 	b.ne	4041c4 <check_one_fd+0x24>  // b.any
  4041e8:	f90013f5 	str	x21, [sp, #32]
  4041ec:	7140229f 	cmp	w20, #0x8, lsl #12
  4041f0:	54000301 	b.ne	404250 <check_one_fd+0xb0>  // b.any
  4041f4:	d0000280 	adrp	x0, 456000 <_IO_stdin_used+0x300>
  4041f8:	9113c000 	add	x0, x0, #0x4f0
  4041fc:	d2802075 	mov	x21, #0x103                 	// #259
  404200:	2a1403e1 	mov	w1, w20
  404204:	52800002 	mov	w2, #0x0                   	// #0
  404208:	94007956 	bl	422760 <__open64_nocancel>
  40420c:	6b00027f 	cmp	w19, w0
  404210:	540001a1 	b.ne	404244 <check_one_fd+0xa4>  // b.any
  404214:	2a1303e1 	mov	w1, w19
  404218:	9100c3e2 	add	x2, sp, #0x30
  40421c:	52800000 	mov	w0, #0x0                   	// #0
  404220:	9400768e 	bl	421c58 <__fxstat>
  404224:	35000100 	cbnz	w0, 404244 <check_one_fd+0xa4>
  404228:	b94043e0 	ldr	w0, [sp, #64]
  40422c:	12140c00 	and	w0, w0, #0xf000
  404230:	7140081f 	cmp	w0, #0x2, lsl #12
  404234:	54000081 	b.ne	404244 <check_one_fd+0xa4>  // b.any
  404238:	f9402be0 	ldr	x0, [sp, #80]
  40423c:	eb15001f 	cmp	x0, x21
  404240:	54000100 	b.eq	404260 <check_one_fd+0xc0>  // b.none
  404244:	d4207d00 	brk	#0x3e8
  404248:	d4207d00 	brk	#0x3e8
  40424c:	17fffffe 	b	404244 <check_one_fd+0xa4>
  404250:	d0000280 	adrp	x0, 456000 <_IO_stdin_used+0x300>
  404254:	d28020f5 	mov	x21, #0x107                 	// #263
  404258:	91138000 	add	x0, x0, #0x4e0
  40425c:	17ffffe9 	b	404200 <check_one_fd+0x60>
  404260:	f94013f5 	ldr	x21, [sp, #32]
  404264:	17ffffd8 	b	4041c4 <check_one_fd+0x24>

0000000000404268 <__libc_check_standard_fds>:
  404268:	a9bf7bfd 	stp	x29, x30, [sp, #-16]!
  40426c:	52900021 	mov	w1, #0x8001                	// #32769
  404270:	52800000 	mov	w0, #0x0                   	// #0
  404274:	910003fd 	mov	x29, sp
  404278:	97ffffca 	bl	4041a0 <check_one_fd>
  40427c:	52900001 	mov	w1, #0x8000                	// #32768
  404280:	52800020 	mov	w0, #0x1                   	// #1
  404284:	97ffffc7 	bl	4041a0 <check_one_fd>
  404288:	a8c17bfd 	ldp	x29, x30, [sp], #16
  40428c:	52900001 	mov	w1, #0x8000                	// #32768
  404290:	52800040 	mov	w0, #0x2                   	// #2
  404294:	17ffffc3 	b	4041a0 <check_one_fd>

0000000000404298 <__libc_setup_tls>:
  404298:	a9b87bfd 	stp	x29, x30, [sp, #-128]!
  40429c:	90000461 	adrp	x1, 490000 <__abort_msg>
  4042a0:	f0000440 	adrp	x0, 48f000 <__progname_full>
  4042a4:	910003fd 	mov	x29, sp
  4042a8:	a90153f3 	stp	x19, x20, [sp, #16]
  4042ac:	f9479033 	ldr	x19, [x1, #3872]
  4042b0:	a9025bf5 	stp	x21, x22, [sp, #32]
  4042b4:	a90363f7 	stp	x23, x24, [sp, #48]
  4042b8:	a9046bf9 	stp	x25, x26, [sp, #64]
  4042bc:	a90573fb 	stp	x27, x28, [sp, #80]
  4042c0:	f942b017 	ldr	x23, [x0, #1376]
  4042c4:	b4000df3 	cbz	x19, 404480 <__libc_setup_tls+0x1e8>
  4042c8:	90000460 	adrp	x0, 490000 <__abort_msg>
  4042cc:	f947ac00 	ldr	x0, [x0, #3928]
  4042d0:	d37df001 	lsl	x1, x0, #3
  4042d4:	cb000021 	sub	x1, x1, x0
  4042d8:	8b010e61 	add	x1, x19, x1, lsl #3
  4042dc:	eb01027f 	cmp	x19, x1
  4042e0:	540000a3 	b.cc	4042f4 <__libc_setup_tls+0x5c>  // b.lo, b.ul, b.last
  4042e4:	14000071 	b	4044a8 <__libc_setup_tls+0x210>
  4042e8:	9100e273 	add	x19, x19, #0x38
  4042ec:	eb01027f 	cmp	x19, x1
  4042f0:	54000b22 	b.cs	404454 <__libc_setup_tls+0x1bc>  // b.hs, b.nlast
  4042f4:	b9400260 	ldr	w0, [x19]
  4042f8:	71001c1f 	cmp	w0, #0x7
  4042fc:	54ffff61 	b.ne	4042e8 <__libc_setup_tls+0x50>  // b.any
  404300:	f9401a78 	ldr	x24, [x19, #48]
  404304:	d2800215 	mov	x21, #0x10                  	// #16
  404308:	f94002e0 	ldr	x0, [x23]
  40430c:	eb15031f 	cmp	x24, x21
  404310:	f9400a63 	ldr	x3, [x19, #16]
  404314:	9a952319 	csel	x25, x24, x21, cs  // cs = hs, nlast
  404318:	f100031f 	cmp	x24, #0x0
  40431c:	d2800021 	mov	x1, #0x1                   	// #1
  404320:	d1000724 	sub	x4, x25, #0x1
  404324:	cb1903e2 	neg	x2, x25
  404328:	9a81131a 	csel	x26, x24, x1, ne  // ne = any
  40432c:	8b030000 	add	x0, x0, x3
  404330:	a942527c 	ldp	x28, x20, [x19, #32]
  404334:	b4000c58 	cbz	x24, 4044bc <__libc_setup_tls+0x224>
  404338:	91003f15 	add	x21, x24, #0xf
  40433c:	aa0003f3 	mov	x19, x0
  404340:	9ada0ab5 	udiv	x21, x21, x26
  404344:	9b1a7eb5 	mul	x21, x21, x26
  404348:	aa1503e5 	mov	x5, x21
  40434c:	d000045b 	adrp	x27, 48e000 <_GLOBAL_OFFSET_TABLE_+0xc8>
  404350:	8b190281 	add	x1, x20, x25
  404354:	a9068be4 	stp	x4, x2, [sp, #104]
  404358:	f9408f60 	ldr	x0, [x27, #280]
  40435c:	f9003fe5 	str	x5, [sp, #120]
  404360:	911c0000 	add	x0, x0, #0x700
  404364:	8b010000 	add	x0, x0, x1
  404368:	8b150000 	add	x0, x0, x21
  40436c:	94007989 	bl	422990 <__sbrk>
  404370:	a9468be4 	ldp	x4, x2, [sp, #104]
  404374:	90000461 	adrp	x1, 490000 <__abort_msg>
  404378:	911c0016 	add	x22, x0, #0x700
  40437c:	91298023 	add	x3, x1, #0xa60
  404380:	f9403fe5 	ldr	x5, [sp, #120]
  404384:	f9023ee5 	str	x5, [x23, #1144]
  404388:	8b0402d6 	add	x22, x22, x4
  40438c:	8a0202d6 	and	x22, x22, x2
  404390:	d28007c2 	mov	x2, #0x3e                  	// #62
  404394:	8b1502c0 	add	x0, x22, x21
  404398:	a9027c60 	stp	x0, xzr, [x3, #32]
  40439c:	f9053022 	str	x2, [x1, #2656]
  4043a0:	aa1c03e2 	mov	x2, x28
  4043a4:	aa1303e1 	mov	x1, x19
  4043a8:	97ffefc2 	bl	4002b0 <.plt+0x10>
  4043ac:	90000460 	adrp	x0, 490000 <__abort_msg>
  4043b0:	9129c000 	add	x0, x0, #0xa70
  4043b4:	f90002c0 	str	x0, [x22]
  4043b8:	d51bd056 	msr	tpidr_el0, x22
  4043bc:	f0000443 	adrp	x3, 48f000 <__progname_full>
  4043c0:	912ac062 	add	x2, x3, #0xab0
  4043c4:	90000467 	adrp	x7, 490000 <__abort_msg>
  4043c8:	8b180280 	add	x0, x20, x24
  4043cc:	f100031f 	cmp	x24, #0x0
  4043d0:	d1000400 	sub	x0, x0, #0x1
  4043d4:	f90730e2 	str	x2, [x7, #3680]
  4043d8:	90000466 	adrp	x6, 490000 <__abort_msg>
  4043dc:	f9001457 	str	x23, [x2, #40]
  4043e0:	911142e2 	add	x2, x23, #0x450
  4043e4:	90000461 	adrp	x1, 490000 <__abort_msg>
  4043e8:	90000465 	adrp	x5, 490000 <__abort_msg>
  4043ec:	90000464 	adrp	x4, 490000 <__abort_msg>
  4043f0:	a9016054 	stp	x20, x24, [x2, #16]
  4043f4:	9a941014 	csel	x20, x0, x20, ne  // ne = any
  4043f8:	f9408f60 	ldr	x0, [x27, #280]
  4043fc:	a9007053 	stp	x19, x28, [x2]
  404400:	9ada0a94 	udiv	x20, x20, x26
  404404:	91003c00 	add	x0, x0, #0xf
  404408:	f9052839 	str	x25, [x1, #2640]
  40440c:	d2800021 	mov	x1, #0x1                   	// #1
  404410:	f9052ca1 	str	x1, [x5, #2648]
  404414:	f9073c81 	str	x1, [x4, #3704]
  404418:	9b1a5694 	madd	x20, x20, x26, x21
  40441c:	f90242e1 	str	x1, [x23, #1152]
  404420:	f90524d4 	str	x20, [x6, #2632]
  404424:	d2800806 	mov	x6, #0x40                  	// #64
  404428:	8b140014 	add	x20, x0, x20
  40442c:	f9055866 	str	x6, [x3, #2736]
  404430:	927cee94 	and	x20, x20, #0xfffffffffffffff0
  404434:	f9008f74 	str	x20, [x27, #280]
  404438:	a94153f3 	ldp	x19, x20, [sp, #16]
  40443c:	a9425bf5 	ldp	x21, x22, [sp, #32]
  404440:	a94363f7 	ldp	x23, x24, [sp, #48]
  404444:	a9446bf9 	ldp	x25, x26, [sp, #64]
  404448:	a94573fb 	ldp	x27, x28, [sp, #80]
  40444c:	a8c87bfd 	ldp	x29, x30, [sp], #128
  404450:	d65f03c0 	ret
  404454:	d2800215 	mov	x21, #0x10                  	// #16
  404458:	aa1503e5 	mov	x5, x21
  40445c:	aa1503f9 	mov	x25, x21
  404460:	928001e2 	mov	x2, #0xfffffffffffffff0    	// #-16
  404464:	d28001e4 	mov	x4, #0xf                   	// #15
  404468:	d280003a 	mov	x26, #0x1                   	// #1
  40446c:	d2800018 	mov	x24, #0x0                   	// #0
  404470:	d2800013 	mov	x19, #0x0                   	// #0
  404474:	d280001c 	mov	x28, #0x0                   	// #0
  404478:	d2800014 	mov	x20, #0x0                   	// #0
  40447c:	17ffffb4 	b	40434c <__libc_setup_tls+0xb4>
  404480:	d2800215 	mov	x21, #0x10                  	// #16
  404484:	928001e2 	mov	x2, #0xfffffffffffffff0    	// #-16
  404488:	aa1503e5 	mov	x5, x21
  40448c:	aa1503f9 	mov	x25, x21
  404490:	d28001e4 	mov	x4, #0xf                   	// #15
  404494:	d280003a 	mov	x26, #0x1                   	// #1
  404498:	d2800018 	mov	x24, #0x0                   	// #0
  40449c:	d280001c 	mov	x28, #0x0                   	// #0
  4044a0:	d2800014 	mov	x20, #0x0                   	// #0
  4044a4:	17ffffaa 	b	40434c <__libc_setup_tls+0xb4>
  4044a8:	d2800215 	mov	x21, #0x10                  	// #16
  4044ac:	928001e2 	mov	x2, #0xfffffffffffffff0    	// #-16
  4044b0:	aa1503e5 	mov	x5, x21
  4044b4:	aa1503f9 	mov	x25, x21
  4044b8:	17ffffeb 	b	404464 <__libc_setup_tls+0x1cc>
  4044bc:	aa0003f3 	mov	x19, x0
  4044c0:	aa0103fa 	mov	x26, x1
  4044c4:	aa1503e5 	mov	x5, x21
  4044c8:	aa1503f9 	mov	x25, x21
  4044cc:	17ffffa0 	b	40434c <__libc_setup_tls+0xb4>

00000000004044d0 <__tls_get_addr>:
  4044d0:	d53bd041 	mrs	x1, tpidr_el0
  4044d4:	f9400400 	ldr	x0, [x0, #8]
  4044d8:	f9400021 	ldr	x1, [x1]
  4044dc:	f9400821 	ldr	x1, [x1, #16]
  4044e0:	8b000020 	add	x0, x1, x0
  4044e4:	d65f03c0 	ret

00000000004044e8 <__libc_csu_init>:
  4044e8:	a9bc7bfd 	stp	x29, x30, [sp, #-64]!
  4044ec:	910003fd 	mov	x29, sp
  4044f0:	a90363f7 	stp	x23, x24, [sp, #48]
  4044f4:	b0000457 	adrp	x23, 48d000 <__FRAME_END__+0x1034c>
  4044f8:	b0000458 	adrp	x24, 48d000 <__FRAME_END__+0x1034c>
  4044fc:	912622f7 	add	x23, x23, #0x988
  404500:	91262318 	add	x24, x24, #0x988
  404504:	cb1802f7 	sub	x23, x23, x24
  404508:	a90153f3 	stp	x19, x20, [sp, #16]
  40450c:	2a0003f4 	mov	w20, w0
  404510:	a9025bf5 	stp	x21, x22, [sp, #32]
  404514:	eb970fff 	cmp	xzr, x23, asr #3
  404518:	aa0103f5 	mov	x21, x1
  40451c:	aa0203f6 	mov	x22, x2
  404520:	54000180 	b.eq	404550 <__libc_csu_init+0x68>  // b.none
  404524:	9343fef7 	asr	x23, x23, #3
  404528:	d2800013 	mov	x19, #0x0                   	// #0
  40452c:	d503201f 	nop
  404530:	f8737b03 	ldr	x3, [x24, x19, lsl #3]
  404534:	aa1603e2 	mov	x2, x22
  404538:	91000673 	add	x19, x19, #0x1
  40453c:	aa1503e1 	mov	x1, x21
  404540:	2a1403e0 	mov	w0, w20
  404544:	d63f0060 	blr	x3
  404548:	eb1302ff 	cmp	x23, x19
  40454c:	54ffff21 	b.ne	404530 <__libc_csu_init+0x48>  // b.any
  404550:	b0000457 	adrp	x23, 48d000 <__FRAME_END__+0x1034c>
  404554:	b0000458 	adrp	x24, 48d000 <__FRAME_END__+0x1034c>
  404558:	912642f7 	add	x23, x23, #0x990
  40455c:	91262318 	add	x24, x24, #0x988
  404560:	cb1802f7 	sub	x23, x23, x24
  404564:	97ffef47 	bl	400280 <_init>
  404568:	eb970fff 	cmp	xzr, x23, asr #3
  40456c:	9343fef7 	asr	x23, x23, #3
  404570:	54000140 	b.eq	404598 <__libc_csu_init+0xb0>  // b.none
  404574:	d2800013 	mov	x19, #0x0                   	// #0
  404578:	f8737b03 	ldr	x3, [x24, x19, lsl #3]
  40457c:	aa1603e2 	mov	x2, x22
  404580:	91000673 	add	x19, x19, #0x1
  404584:	aa1503e1 	mov	x1, x21
  404588:	2a1403e0 	mov	w0, w20
  40458c:	d63f0060 	blr	x3
  404590:	eb1302ff 	cmp	x23, x19
  404594:	54ffff21 	b.ne	404578 <__libc_csu_init+0x90>  // b.any
  404598:	a94153f3 	ldp	x19, x20, [sp, #16]
  40459c:	a9425bf5 	ldp	x21, x22, [sp, #32]
  4045a0:	a94363f7 	ldp	x23, x24, [sp, #48]
  4045a4:	a8c47bfd 	ldp	x29, x30, [sp], #64
  4045a8:	d65f03c0 	ret
  4045ac:	d503201f 	nop

00000000004045b0 <__libc_csu_fini>:
  4045b0:	a9be7bfd 	stp	x29, x30, [sp, #-32]!
  4045b4:	b0000440 	adrp	x0, 48d000 <__FRAME_END__+0x1034c>
  4045b8:	91268000 	add	x0, x0, #0x9a0
  4045bc:	910003fd 	mov	x29, sp
  4045c0:	a90153f3 	stp	x19, x20, [sp, #16]
  4045c4:	b0000454 	adrp	x20, 48d000 <__FRAME_END__+0x1034c>
  4045c8:	91264294 	add	x20, x20, #0x990
  4045cc:	cb140000 	sub	x0, x0, x20
  4045d0:	9343fc00 	asr	x0, x0, #3
  4045d4:	b4000100 	cbz	x0, 4045f4 <__libc_csu_fini+0x44>
  4045d8:	d1000413 	sub	x19, x0, #0x1
  4045dc:	d503201f 	nop
  4045e0:	f8737a80 	ldr	x0, [x20, x19, lsl #3]
  4045e4:	d1000673 	sub	x19, x19, #0x1
  4045e8:	d63f0000 	blr	x0
  4045ec:	b100067f 	cmn	x19, #0x1
  4045f0:	54ffff81 	b.ne	4045e0 <__libc_csu_fini+0x30>  // b.any
  4045f4:	a94153f3 	ldp	x19, x20, [sp, #16]
  4045f8:	a8c27bfd 	ldp	x29, x30, [sp], #32
  4045fc:	140145ba 	b	455ce4 <_fini>

0000000000404600 <__assert_fail_base>:
  404600:	d101c3ff 	sub	sp, sp, #0x70
  404604:	d0000286 	adrp	x6, 456000 <_IO_stdin_used+0x300>
  404608:	b0000445 	adrp	x5, 48d000 <__FRAME_END__+0x1034c>
  40460c:	912680a5 	add	x5, x5, #0x9a0
  404610:	a9017bfd 	stp	x29, x30, [sp, #16]
  404614:	910043fd 	add	x29, sp, #0x10
  404618:	f942a8c6 	ldr	x6, [x6, #1360]
  40461c:	f94000a7 	ldr	x7, [x5]
  404620:	f90037e7 	str	x7, [sp, #104]
  404624:	d2800007 	mov	x7, #0x0                   	// #0
  404628:	a90253f3 	stp	x19, x20, [sp, #32]
  40462c:	aa0103f4 	mov	x20, x1
  404630:	aa0403f3 	mov	x19, x4
  404634:	a9035bf5 	stp	x21, x22, [sp, #48]
  404638:	aa0003f5 	mov	x21, x0
  40463c:	aa0203f6 	mov	x22, x2
  404640:	f90023f7 	str	x23, [sp, #64]
  404644:	2a0303f7 	mov	w23, w3
  404648:	b4000086 	cbz	x6, 404658 <__assert_fail_base+0x58>
  40464c:	d2800001 	mov	x1, #0x0                   	// #0
  404650:	52800020 	mov	w0, #0x1                   	// #1
  404654:	d503201f 	nop
  404658:	d0000440 	adrp	x0, 48e000 <_GLOBAL_OFFSET_TABLE_+0xc8>
  40465c:	d0000286 	adrp	x6, 456000 <_IO_stdin_used+0x300>
  404660:	d0000288 	adrp	x8, 456000 <_IO_stdin_used+0x300>
  404664:	912f80c6 	add	x6, x6, #0xbe0
  404668:	f947fc02 	ldr	x2, [x0, #4088]
  40466c:	91140108 	add	x8, x8, #0x500
  404670:	910173e0 	add	x0, sp, #0x5c
  404674:	2a1703e5 	mov	w5, w23
  404678:	aa1603e4 	mov	x4, x22
  40467c:	aa1503e1 	mov	x1, x21
  404680:	39400043 	ldrb	w3, [x2]
  404684:	a90003f4 	stp	x20, x0, [sp]
  404688:	910183e0 	add	x0, sp, #0x60
  40468c:	7100007f 	cmp	w3, #0x0
  404690:	9a861103 	csel	x3, x8, x6, ne  // ne = any
  404694:	f100027f 	cmp	x19, #0x0
  404698:	9a861266 	csel	x6, x19, x6, ne  // ne = any
  40469c:	9a861107 	csel	x7, x8, x6, ne  // ne = any
  4046a0:	9400165e 	bl	40a018 <___asprintf>
  4046a4:	37f80520 	tbnz	w0, #31, 404748 <__assert_fail_base+0x148>
  4046a8:	f94033e2 	ldr	x2, [sp, #96]
  4046ac:	b0000361 	adrp	x1, 471000 <__tens+0x3460>
  4046b0:	d2800000 	mov	x0, #0x0                   	// #0
  4046b4:	910ae021 	add	x1, x1, #0x2b8
  4046b8:	94002d54 	bl	40fc08 <__fxprintf>
  4046bc:	d0000440 	adrp	x0, 48e000 <_GLOBAL_OFFSET_TABLE_+0xc8>
  4046c0:	f9434c00 	ldr	x0, [x0, #1688]
  4046c4:	94002e7f 	bl	4100c0 <_IO_fflush>
  4046c8:	f0000440 	adrp	x0, 48f000 <__progname_full>
  4046cc:	b9405fe1 	ldr	w1, [sp, #92]
  4046d0:	d2800005 	mov	x5, #0x0                   	// #0
  4046d4:	12800004 	mov	w4, #0xffffffff            	// #-1
  4046d8:	f9400400 	ldr	x0, [x0, #8]
  4046dc:	52800443 	mov	w3, #0x22                  	// #34
  4046e0:	52800062 	mov	w2, #0x3                   	// #3
  4046e4:	0b000021 	add	w1, w1, w0
  4046e8:	4b0003e0 	neg	w0, w0
  4046ec:	0a000021 	and	w1, w1, w0
  4046f0:	d2800000 	mov	x0, #0x0                   	// #0
  4046f4:	b9005fe1 	str	w1, [sp, #92]
  4046f8:	93407c21 	sxtw	x1, w1
  4046fc:	940078f9 	bl	422ae0 <__mmap64>
  404700:	aa0003f3 	mov	x19, x0
  404704:	b100041f 	cmn	x0, #0x1
  404708:	540001a0 	b.eq	40473c <__assert_fail_base+0x13c>  // b.none
  40470c:	b9405fe2 	ldr	w2, [sp, #92]
  404710:	f94033e1 	ldr	x1, [sp, #96]
  404714:	b8004402 	str	w2, [x0], #4
  404718:	9400652a 	bl	41dbc0 <strcpy>
  40471c:	90000461 	adrp	x1, 490000 <__abort_msg>
  404720:	91000021 	add	x1, x1, #0x0
  404724:	c85ffc20 	ldaxr	x0, [x1]
  404728:	c8027c33 	stxr	w2, x19, [x1]
  40472c:	35ffffc2 	cbnz	w2, 404724 <__assert_fail_base+0x124>
  404730:	b4000060 	cbz	x0, 40473c <__assert_fail_base+0x13c>
  404734:	b9400001 	ldr	w1, [x0]
  404738:	94007902 	bl	422b40 <__munmap>
  40473c:	f94033e0 	ldr	x0, [sp, #96]
  404740:	94005f52 	bl	41c488 <__free>
  404744:	97ffeeff 	bl	400340 <abort>
  404748:	d0000281 	adrp	x1, 456000 <_IO_stdin_used+0x300>
  40474c:	9114e021 	add	x1, x1, #0x538
  404750:	d2800242 	mov	x2, #0x12                  	// #18
  404754:	52800040 	mov	w0, #0x2                   	// #2
  404758:	940075d8 	bl	421eb8 <__libc_write>
  40475c:	97ffeef9 	bl	400340 <abort>

0000000000404760 <__assert_fail>:
  404760:	a9bd7bfd 	stp	x29, x30, [sp, #-48]!
  404764:	910003fd 	mov	x29, sp
  404768:	a90153f3 	stp	x19, x20, [sp, #16]
  40476c:	aa0003f3 	mov	x19, x0
  404770:	aa0103f4 	mov	x20, x1
  404774:	90000320 	adrp	x0, 468000 <translit_from_idx+0xba0>
  404778:	d0000281 	adrp	x1, 456000 <_IO_stdin_used+0x300>
  40477c:	91392000 	add	x0, x0, #0xe48
  404780:	91142021 	add	x1, x1, #0x508
  404784:	a9025bf5 	stp	x21, x22, [sp, #32]
  404788:	aa0303f6 	mov	x22, x3
  40478c:	2a0203f5 	mov	w21, w2
  404790:	528000a2 	mov	w2, #0x5                   	// #5
  404794:	94000007 	bl	4047b0 <__dcgettext>
  404798:	aa1603e4 	mov	x4, x22
  40479c:	2a1503e3 	mov	w3, w21
  4047a0:	aa1403e2 	mov	x2, x20
  4047a4:	aa1303e1 	mov	x1, x19
  4047a8:	97ffff96 	bl	404600 <__assert_fail_base>
  4047ac:	d503201f 	nop

00000000004047b0 <__dcgettext>:
  4047b0:	2a0203e5 	mov	w5, w2
  4047b4:	d2800004 	mov	x4, #0x0                   	// #0
  4047b8:	52800003 	mov	w3, #0x0                   	// #0
  4047bc:	d2800002 	mov	x2, #0x0                   	// #0
  4047c0:	1400034e 	b	4054f8 <__dcigettext>
  4047c4:	d503201f 	nop

00000000004047c8 <plural_eval>:
  4047c8:	a9bd7bfd 	stp	x29, x30, [sp, #-48]!
  4047cc:	910003fd 	mov	x29, sp
  4047d0:	a90153f3 	stp	x19, x20, [sp, #16]
  4047d4:	aa0003f3 	mov	x19, x0
  4047d8:	aa0103f4 	mov	x20, x1
  4047dc:	f90013f5 	str	x21, [sp, #32]
  4047e0:	b9400260 	ldr	w0, [x19]
  4047e4:	7100081f 	cmp	w0, #0x2
  4047e8:	54000380 	b.eq	404858 <plural_eval+0x90>  // b.none
  4047ec:	540001cc 	b.gt	404824 <plural_eval+0x5c>
  4047f0:	340006e0 	cbz	w0, 4048cc <plural_eval+0x104>
  4047f4:	7100041f 	cmp	w0, #0x1
  4047f8:	54000741 	b.ne	4048e0 <plural_eval+0x118>  // b.any
  4047fc:	f9400660 	ldr	x0, [x19, #8]
  404800:	aa1403e1 	mov	x1, x20
  404804:	97fffff1 	bl	4047c8 <plural_eval>
  404808:	f100001f 	cmp	x0, #0x0
  40480c:	9a9f17f5 	cset	x21, eq  // eq = none
  404810:	aa1503e0 	mov	x0, x21
  404814:	a94153f3 	ldp	x19, x20, [sp, #16]
  404818:	f94013f5 	ldr	x21, [sp, #32]
  40481c:	a8c37bfd 	ldp	x29, x30, [sp], #48
  404820:	d65f03c0 	ret
  404824:	aa1403e1 	mov	x1, x20
  404828:	71000c1f 	cmp	w0, #0x3
  40482c:	540005a1 	b.ne	4048e0 <plural_eval+0x118>  // b.any
  404830:	f9400660 	ldr	x0, [x19, #8]
  404834:	97ffffe5 	bl	4047c8 <plural_eval>
  404838:	f100001f 	cmp	x0, #0x0
  40483c:	1a9f17e0 	cset	w0, eq  // eq = none
  404840:	11000400 	add	w0, w0, #0x1
  404844:	8b20ce73 	add	x19, x19, w0, sxtw #3
  404848:	f9400673 	ldr	x19, [x19, #8]
  40484c:	b9400260 	ldr	w0, [x19]
  404850:	7100081f 	cmp	w0, #0x2
  404854:	54fffcc1 	b.ne	4047ec <plural_eval+0x24>  // b.any
  404858:	f9400660 	ldr	x0, [x19, #8]
  40485c:	aa1403e1 	mov	x1, x20
  404860:	97ffffda 	bl	4047c8 <plural_eval>
  404864:	aa0003f5 	mov	x21, x0
  404868:	b9400661 	ldr	w1, [x19, #4]
  40486c:	71003c3f 	cmp	w1, #0xf
  404870:	54000480 	b.eq	404900 <plural_eval+0x138>  // b.none
  404874:	7100383f 	cmp	w1, #0xe
  404878:	540007a0 	b.eq	40496c <plural_eval+0x1a4>  // b.none
  40487c:	f9400a60 	ldr	x0, [x19, #16]
  404880:	aa1403e1 	mov	x1, x20
  404884:	97ffffd1 	bl	4047c8 <plural_eval>
  404888:	b9400661 	ldr	w1, [x19, #4]
  40488c:	aa0003f3 	mov	x19, x0
  404890:	7100203f 	cmp	w1, #0x8
  404894:	54000900 	b.eq	4049b4 <plural_eval+0x1ec>  // b.none
  404898:	54000488 	b.hi	404928 <plural_eval+0x160>  // b.pmore
  40489c:	7100143f 	cmp	w1, #0x5
  4048a0:	54000820 	b.eq	4049a4 <plural_eval+0x1dc>  // b.none
  4048a4:	54000349 	b.ls	40490c <plural_eval+0x144>  // b.plast
  4048a8:	cb0002a0 	sub	x0, x21, x0
  4048ac:	7100183f 	cmp	w1, #0x6
  4048b0:	8b1302b5 	add	x21, x21, x19
  4048b4:	9a8002b5 	csel	x21, x21, x0, eq  // eq = none
  4048b8:	aa1503e0 	mov	x0, x21
  4048bc:	a94153f3 	ldp	x19, x20, [sp, #16]
  4048c0:	f94013f5 	ldr	x21, [sp, #32]
  4048c4:	a8c37bfd 	ldp	x29, x30, [sp], #48
  4048c8:	d65f03c0 	ret
  4048cc:	b9400660 	ldr	w0, [x19, #4]
  4048d0:	aa1403f5 	mov	x21, x20
  4048d4:	34fff9e0 	cbz	w0, 404810 <plural_eval+0x48>
  4048d8:	7100041f 	cmp	w0, #0x1
  4048dc:	540000e0 	b.eq	4048f8 <plural_eval+0x130>  // b.none
  4048e0:	d2800015 	mov	x21, #0x0                   	// #0
  4048e4:	aa1503e0 	mov	x0, x21
  4048e8:	a94153f3 	ldp	x19, x20, [sp, #16]
  4048ec:	f94013f5 	ldr	x21, [sp, #32]
  4048f0:	a8c37bfd 	ldp	x29, x30, [sp], #48
  4048f4:	d65f03c0 	ret
  4048f8:	f9400675 	ldr	x21, [x19, #8]
  4048fc:	17ffffc5 	b	404810 <plural_eval+0x48>
  404900:	b4000380 	cbz	x0, 404970 <plural_eval+0x1a8>
  404904:	d2800035 	mov	x21, #0x1                   	// #1
  404908:	17ffffc2 	b	404810 <plural_eval+0x48>
  40490c:	71000c3f 	cmp	w1, #0x3
  404910:	54000580 	b.eq	4049c0 <plural_eval+0x1f8>  // b.none
  404914:	7100103f 	cmp	w1, #0x4
  404918:	54fffe41 	b.ne	4048e0 <plural_eval+0x118>  // b.any
  40491c:	b4000360 	cbz	x0, 404988 <plural_eval+0x1c0>
  404920:	9ad30ab5 	udiv	x21, x21, x19
  404924:	17ffffbb 	b	404810 <plural_eval+0x48>
  404928:	71002c3f 	cmp	w1, #0xb
  40492c:	54000360 	b.eq	404998 <plural_eval+0x1d0>  // b.none
  404930:	54000109 	b.ls	404950 <plural_eval+0x188>  // b.plast
  404934:	7100303f 	cmp	w1, #0xc
  404938:	54000480 	b.eq	4049c8 <plural_eval+0x200>  // b.none
  40493c:	7100343f 	cmp	w1, #0xd
  404940:	54fffd01 	b.ne	4048e0 <plural_eval+0x118>  // b.any
  404944:	eb0002bf 	cmp	x21, x0
  404948:	9a9f07f5 	cset	x21, ne  // ne = any
  40494c:	17ffffb1 	b	404810 <plural_eval+0x48>
  404950:	7100243f 	cmp	w1, #0x9
  404954:	54000400 	b.eq	4049d4 <plural_eval+0x20c>  // b.none
  404958:	7100283f 	cmp	w1, #0xa
  40495c:	54fffc21 	b.ne	4048e0 <plural_eval+0x118>  // b.any
  404960:	eb0002bf 	cmp	x21, x0
  404964:	9a9f87f5 	cset	x21, ls  // ls = plast
  404968:	17ffffaa 	b	404810 <plural_eval+0x48>
  40496c:	b4fff520 	cbz	x0, 404810 <plural_eval+0x48>
  404970:	f9400a60 	ldr	x0, [x19, #16]
  404974:	aa1403e1 	mov	x1, x20
  404978:	97ffff94 	bl	4047c8 <plural_eval>
  40497c:	f100001f 	cmp	x0, #0x0
  404980:	9a9f07f5 	cset	x21, ne  // ne = any
  404984:	17ffffa3 	b	404810 <plural_eval+0x48>
  404988:	52800100 	mov	w0, #0x8                   	// #8
  40498c:	94001063 	bl	408b18 <raise>
  404990:	9ad30ab5 	udiv	x21, x21, x19
  404994:	17ffff9f 	b	404810 <plural_eval+0x48>
  404998:	eb0002bf 	cmp	x21, x0
  40499c:	9a9f37f5 	cset	x21, cs  // cs = hs, nlast
  4049a0:	17ffff9c 	b	404810 <plural_eval+0x48>
  4049a4:	b40001e0 	cbz	x0, 4049e0 <plural_eval+0x218>
  4049a8:	9ad30aa0 	udiv	x0, x21, x19
  4049ac:	9b13d415 	msub	x21, x0, x19, x21
  4049b0:	17ffff98 	b	404810 <plural_eval+0x48>
  4049b4:	eb0002bf 	cmp	x21, x0
  4049b8:	9a9f27f5 	cset	x21, cc  // cc = lo, ul, last
  4049bc:	17ffff95 	b	404810 <plural_eval+0x48>
  4049c0:	9b007eb5 	mul	x21, x21, x0
  4049c4:	17ffff93 	b	404810 <plural_eval+0x48>
  4049c8:	eb0002bf 	cmp	x21, x0
  4049cc:	9a9f17f5 	cset	x21, eq  // eq = none
  4049d0:	17ffff90 	b	404810 <plural_eval+0x48>
  4049d4:	eb0002bf 	cmp	x21, x0
  4049d8:	9a9f97f5 	cset	x21, hi  // hi = pmore
  4049dc:	17ffff8d 	b	404810 <plural_eval+0x48>
  4049e0:	52800100 	mov	w0, #0x8                   	// #8
  4049e4:	9400104d 	bl	408b18 <raise>
  4049e8:	17fffff0 	b	4049a8 <plural_eval+0x1e0>
  4049ec:	d503201f 	nop

00000000004049f0 <transcmp>:
  4049f0:	a9be7bfd 	stp	x29, x30, [sp, #-32]!
  4049f4:	910003fd 	mov	x29, sp
  4049f8:	a90153f3 	stp	x19, x20, [sp, #16]
  4049fc:	aa0003f4 	mov	x20, x0
  404a00:	aa0103f3 	mov	x19, x1
  404a04:	f9401000 	ldr	x0, [x0, #32]
  404a08:	b40002e0 	cbz	x0, 404a64 <transcmp+0x74>
  404a0c:	9100e280 	add	x0, x20, #0x38
  404a10:	f9401261 	ldr	x1, [x19, #32]
  404a14:	b4000241 	cbz	x1, 404a5c <transcmp+0x6c>
  404a18:	9100e261 	add	x1, x19, #0x38
  404a1c:	94006429 	bl	41dac0 <strcmp>
  404a20:	35000180 	cbnz	w0, 404a50 <transcmp+0x60>
  404a24:	f9400261 	ldr	x1, [x19]
  404a28:	f9400280 	ldr	x0, [x20]
  404a2c:	94006425 	bl	41dac0 <strcmp>
  404a30:	35000100 	cbnz	w0, 404a50 <transcmp+0x60>
  404a34:	f9400a61 	ldr	x1, [x19, #16]
  404a38:	f9400a80 	ldr	x0, [x20, #16]
  404a3c:	94006421 	bl	41dac0 <strcmp>
  404a40:	35000080 	cbnz	w0, 404a50 <transcmp+0x60>
  404a44:	b9400a61 	ldr	w1, [x19, #8]
  404a48:	b9400a80 	ldr	w0, [x20, #8]
  404a4c:	4b010000 	sub	w0, w0, w1
  404a50:	a94153f3 	ldp	x19, x20, [sp, #16]
  404a54:	a8c27bfd 	ldp	x29, x30, [sp], #32
  404a58:	d65f03c0 	ret
  404a5c:	f9401e61 	ldr	x1, [x19, #56]
  404a60:	17ffffef 	b	404a1c <transcmp+0x2c>
  404a64:	f9401e80 	ldr	x0, [x20, #56]
  404a68:	17ffffea 	b	404a10 <transcmp+0x20>
  404a6c:	d503201f 	nop

0000000000404a70 <plural_lookup.isra.0>:
  404a70:	a9bd7bfd 	stp	x29, x30, [sp, #-48]!
  404a74:	910003fd 	mov	x29, sp
  404a78:	a90153f3 	stp	x19, x20, [sp, #16]
  404a7c:	aa0003f3 	mov	x19, x0
  404a80:	aa0303f4 	mov	x20, x3
  404a84:	f9405c00 	ldr	x0, [x0, #184]
  404a88:	f90013f5 	str	x21, [sp, #32]
  404a8c:	aa0203f5 	mov	x21, x2
  404a90:	97ffff4e 	bl	4047c8 <plural_eval>
  404a94:	f9406261 	ldr	x1, [x19, #192]
  404a98:	eb01001f 	cmp	x0, x1
  404a9c:	540001a2 	b.cs	404ad0 <plural_lookup.isra.0+0x60>  // b.hs, b.nlast
  404aa0:	aa0003f3 	mov	x19, x0
  404aa4:	8b1402b4 	add	x20, x21, x20
  404aa8:	aa1503e0 	mov	x0, x21
  404aac:	d503201f 	nop
  404ab0:	d1000673 	sub	x19, x19, #0x1
  404ab4:	52800001 	mov	w1, #0x0                   	// #0
  404ab8:	b100067f 	cmn	x19, #0x1
  404abc:	54000140 	b.eq	404ae4 <plural_lookup.isra.0+0x74>  // b.none
  404ac0:	940069c0 	bl	41f1c0 <__rawmemchr>
  404ac4:	91000400 	add	x0, x0, #0x1
  404ac8:	eb14001f 	cmp	x0, x20
  404acc:	54ffff23 	b.cc	404ab0 <plural_lookup.isra.0+0x40>  // b.lo, b.ul, b.last
  404ad0:	aa1503e0 	mov	x0, x21
  404ad4:	a94153f3 	ldp	x19, x20, [sp, #16]
  404ad8:	f94013f5 	ldr	x21, [sp, #32]
  404adc:	a8c37bfd 	ldp	x29, x30, [sp], #48
  404ae0:	d65f03c0 	ret
  404ae4:	aa0003f5 	mov	x21, x0
  404ae8:	17fffffa 	b	404ad0 <plural_lookup.isra.0+0x60>
  404aec:	d503201f 	nop

0000000000404af0 <_nl_find_msg>:
  404af0:	a9b47bfd 	stp	x29, x30, [sp, #-192]!
  404af4:	910003fd 	mov	x29, sp
  404af8:	a9025bf5 	stp	x21, x22, [sp, #32]
  404afc:	b0000455 	adrp	x21, 48d000 <__FRAME_END__+0x1034c>
  404b00:	912682a5 	add	x5, x21, #0x9a0
  404b04:	f94000a7 	ldr	x7, [x5]
  404b08:	f9005fa7 	str	x7, [x29, #184]
  404b0c:	d2800007 	mov	x7, #0x0                   	// #0
  404b10:	a90153f3 	stp	x19, x20, [sp, #16]
  404b14:	a90363f7 	stp	x23, x24, [sp, #48]
  404b18:	aa0203f8 	mov	x24, x2
  404b1c:	a9046bf9 	stp	x25, x26, [sp, #64]
  404b20:	a90573fb 	stp	x27, x28, [sp, #80]
  404b24:	d10043ff 	sub	sp, sp, #0x10
  404b28:	a90693a1 	stp	x1, x4, [x29, #104]
  404b2c:	b9007ba3 	str	w3, [x29, #120]
  404b30:	a90803a5 	stp	x5, x0, [x29, #128]
  404b34:	b9400805 	ldr	w5, [x0, #8]
  404b38:	710000bf 	cmp	w5, #0x0
  404b3c:	540010cd 	b.le	404d54 <_nl_find_msg+0x264>
  404b40:	f94047a0 	ldr	x0, [x29, #136]
  404b44:	f9400817 	ldr	x23, [x0, #16]
  404b48:	b4000d77 	cbz	x23, 404cf4 <_nl_find_msg+0x204>
  404b4c:	f94032e0 	ldr	x0, [x23, #96]
  404b50:	b9402af3 	ldr	w19, [x23, #40]
  404b54:	b40009e0 	cbz	x0, 404c90 <_nl_find_msg+0x1a0>
  404b58:	aa1803e0 	mov	x0, x24
  404b5c:	97ffede9 	bl	400300 <.plt+0x60>
  404b60:	aa0003fa 	mov	x26, x0
  404b64:	aa1803e0 	mov	x0, x24
  404b68:	94000fa8 	bl	408a08 <__hash_string>
  404b6c:	b9406af4 	ldr	w20, [x23, #104]
  404b70:	b9405ae3 	ldr	w3, [x23, #88]
  404b74:	92407f42 	and	x2, x26, #0xffffffff
  404b78:	f9004ba2 	str	x2, [x29, #144]
  404b7c:	51000861 	sub	w1, w3, #0x2
  404b80:	b9009bba 	str	w26, [x29, #152]
  404b84:	f94032f5 	ldr	x21, [x23, #96]
  404b88:	1ac10804 	udiv	w4, w0, w1
  404b8c:	1ac30802 	udiv	w2, w0, w3
  404b90:	1b018084 	msub	w4, w4, w1, w0
  404b94:	11000499 	add	w25, w4, #0x1
  404b98:	1b03805a 	msub	w26, w2, w3, w0
  404b9c:	4b19007b 	sub	w27, w3, w25
  404ba0:	4b030336 	sub	w22, w25, w3
  404ba4:	14000016 	b	404bfc <_nl_find_msg+0x10c>
  404ba8:	b9401aea 	ldr	w10, [x23, #24]
  404bac:	d37d7f80 	ubfiz	x0, x28, #3, #32
  404bb0:	f9401ae1 	ldr	x1, [x23, #48]
  404bb4:	8b00002b 	add	x11, x1, x0
  404bb8:	b8606820 	ldr	w0, [x1, x0]
  404bbc:	34000c0a 	cbz	w10, 404d3c <_nl_find_msg+0x24c>
  404bc0:	b9409ba1 	ldr	w1, [x29, #152]
  404bc4:	5ac00800 	rev	w0, w0
  404bc8:	6b00003f 	cmp	w1, w0
  404bcc:	54000108 	b.hi	404bec <_nl_find_msg+0xfc>  // b.pmore
  404bd0:	b9400560 	ldr	w0, [x11, #4]
  404bd4:	f94002e1 	ldr	x1, [x23]
  404bd8:	5ac00800 	rev	w0, w0
  404bdc:	8b000021 	add	x1, x1, x0
  404be0:	aa1803e0 	mov	x0, x24
  404be4:	940063b7 	bl	41dac0 <strcmp>
  404be8:	34000320 	cbz	w0, 404c4c <_nl_find_msg+0x15c>
  404bec:	6b1a037f 	cmp	w27, w26
  404bf0:	0b160340 	add	w0, w26, w22
  404bf4:	0b190342 	add	w2, w26, w25
  404bf8:	1a80805a 	csel	w26, w2, w0, hi  // hi = pmore
  404bfc:	b87a5aa1 	ldr	w1, [x21, w26, uxtw #2]
  404c00:	7100029f 	cmp	w20, #0x0
  404c04:	5ac00820 	rev	w0, w1
  404c08:	1a811001 	csel	w1, w0, w1, ne  // ne = any
  404c0c:	34000741 	cbz	w1, 404cf4 <_nl_find_msg+0x204>
  404c10:	5100043c 	sub	w28, w1, #0x1
  404c14:	6b1c027f 	cmp	w19, w28
  404c18:	54fffc88 	b.hi	404ba8 <_nl_find_msg+0xb8>  // b.pmore
  404c1c:	4b130380 	sub	w0, w28, w19
  404c20:	f94026e1 	ldr	x1, [x23, #72]
  404c24:	d37cec00 	lsl	x0, x0, #4
  404c28:	8b000026 	add	x6, x1, x0
  404c2c:	f8606820 	ldr	x0, [x1, x0]
  404c30:	f9404ba1 	ldr	x1, [x29, #144]
  404c34:	eb01001f 	cmp	x0, x1
  404c38:	54fffda9 	b.ls	404bec <_nl_find_msg+0xfc>  // b.plast
  404c3c:	f94004c1 	ldr	x1, [x6, #8]
  404c40:	aa1803e0 	mov	x0, x24
  404c44:	9400639f 	bl	41dac0 <strcmp>
  404c48:	35fffd20 	cbnz	w0, 404bec <_nl_find_msg+0xfc>
  404c4c:	aa1c03f6 	mov	x22, x28
  404c50:	2a1303fa 	mov	w26, w19
  404c54:	eb1a02df 	cmp	x22, x26
  404c58:	54000823 	b.cc	404d5c <_nl_find_msg+0x26c>  // b.lo, b.ul, b.last
  404c5c:	cb1a02da 	sub	x26, x22, x26
  404c60:	f9402ae0 	ldr	x0, [x23, #80]
  404c64:	d37cef5a 	lsl	x26, x26, #4
  404c68:	8b1a0001 	add	x1, x0, x26
  404c6c:	f87a6800 	ldr	x0, [x0, x26]
  404c70:	f9004fa0 	str	x0, [x29, #152]
  404c74:	f9400438 	ldr	x24, [x1, #8]
  404c78:	b9407ba0 	ldr	w0, [x29, #120]
  404c7c:	350008c0 	cbnz	w0, 404d94 <_nl_find_msg+0x2a4>
  404c80:	f9403ba0 	ldr	x0, [x29, #112]
  404c84:	f9404fa1 	ldr	x1, [x29, #152]
  404c88:	f9000001 	str	x1, [x0]
  404c8c:	1400001b 	b	404cf8 <_nl_find_msg+0x208>
  404c90:	2a1303fa 	mov	w26, w19
  404c94:	d280001b 	mov	x27, #0x0                   	// #0
  404c98:	aa1a03fc 	mov	x28, x26
  404c9c:	d503201f 	nop
  404ca0:	eb1b039f 	cmp	x28, x27
  404ca4:	54000289 	b.ls	404cf4 <_nl_find_msg+0x204>  // b.plast
  404ca8:	8b1b0386 	add	x6, x28, x27
  404cac:	b9401ae0 	ldr	w0, [x23, #24]
  404cb0:	f9401ae2 	ldr	x2, [x23, #48]
  404cb4:	d341fcd6 	lsr	x22, x6, #1
  404cb8:	7100001f 	cmp	w0, #0x0
  404cbc:	aa1803e0 	mov	x0, x24
  404cc0:	f94002e1 	ldr	x1, [x23]
  404cc4:	8b160c42 	add	x2, x2, x22, lsl #3
  404cc8:	b9400442 	ldr	w2, [x2, #4]
  404ccc:	5ac00843 	rev	w3, w2
  404cd0:	1a830042 	csel	w2, w2, w3, eq  // eq = none
  404cd4:	8b020021 	add	x1, x1, x2
  404cd8:	9400637a 	bl	41dac0 <strcmp>
  404cdc:	7100001f 	cmp	w0, #0x0
  404ce0:	540002ab 	b.lt	404d34 <_nl_find_msg+0x244>  // b.tstop
  404ce4:	54fffb80 	b.eq	404c54 <_nl_find_msg+0x164>  // b.none
  404ce8:	910006db 	add	x27, x22, #0x1
  404cec:	eb1b039f 	cmp	x28, x27
  404cf0:	54fffdc8 	b.hi	404ca8 <_nl_find_msg+0x1b8>  // b.pmore
  404cf4:	d2800018 	mov	x24, #0x0                   	// #0
  404cf8:	f94043a0 	ldr	x0, [x29, #128]
  404cfc:	f9405fa1 	ldr	x1, [x29, #184]
  404d00:	f9400002 	ldr	x2, [x0]
  404d04:	eb020021 	subs	x1, x1, x2
  404d08:	d2800002 	mov	x2, #0x0                   	// #0
  404d0c:	54003e21 	b.ne	4054d0 <_nl_find_msg+0x9e0>  // b.any
  404d10:	910003bf 	mov	sp, x29
  404d14:	aa1803e0 	mov	x0, x24
  404d18:	a94153f3 	ldp	x19, x20, [sp, #16]
  404d1c:	a9425bf5 	ldp	x21, x22, [sp, #32]
  404d20:	a94363f7 	ldp	x23, x24, [sp, #48]
  404d24:	a9446bf9 	ldp	x25, x26, [sp, #64]
  404d28:	a94573fb 	ldp	x27, x28, [sp, #80]
  404d2c:	a8cc7bfd 	ldp	x29, x30, [sp], #192
  404d30:	d65f03c0 	ret
  404d34:	aa1603fc 	mov	x28, x22
  404d38:	17ffffda 	b	404ca0 <_nl_find_msg+0x1b0>
  404d3c:	b9409ba1 	ldr	w1, [x29, #152]
  404d40:	6b01001f 	cmp	w0, w1
  404d44:	54fff543 	b.cc	404bec <_nl_find_msg+0xfc>  // b.lo, b.ul, b.last
  404d48:	b9400560 	ldr	w0, [x11, #4]
  404d4c:	f94002e1 	ldr	x1, [x23]
  404d50:	17ffffa3 	b	404bdc <_nl_find_msg+0xec>
  404d54:	9400045f 	bl	405ed0 <_nl_load_domain>
  404d58:	17ffff7a 	b	404b40 <_nl_find_msg+0x50>
  404d5c:	f9401ee1 	ldr	x1, [x23, #56]
  404d60:	d37df2c0 	lsl	x0, x22, #3
  404d64:	b9401ae2 	ldr	w2, [x23, #24]
  404d68:	8b000023 	add	x3, x1, x0
  404d6c:	b860683b 	ldr	w27, [x1, x0]
  404d70:	f94002f8 	ldr	x24, [x23]
  404d74:	b9400460 	ldr	w0, [x3, #4]
  404d78:	34000782 	cbz	w2, 404e68 <_nl_find_msg+0x378>
  404d7c:	5ac00800 	rev	w0, w0
  404d80:	5ac00b7b 	rev	w27, w27
  404d84:	8b000318 	add	x24, x24, x0
  404d88:	11000760 	add	w0, w27, #0x1
  404d8c:	f9004fa0 	str	x0, [x29, #152]
  404d90:	17ffffba 	b	404c78 <_nl_find_msg+0x188>
  404d94:	f94037a0 	ldr	x0, [x29, #104]
  404d98:	b40004e0 	cbz	x0, 404e34 <_nl_find_msg+0x344>
  404d9c:	f9400819 	ldr	x25, [x0, #16]
  404da0:	b40004b9 	cbz	x25, 404e34 <_nl_find_msg+0x344>
  404da4:	d0000280 	adrp	x0, 456000 <_IO_stdin_used+0x300>
  404da8:	f942e400 	ldr	x0, [x0, #1480]
  404dac:	b4000060 	cbz	x0, 404db8 <_nl_find_msg+0x2c8>
  404db0:	910202e0 	add	x0, x23, #0x80
  404db4:	d503201f 	nop
  404db8:	f9403efb 	ldr	x27, [x23, #120]
  404dbc:	8b1b077c 	add	x28, x27, x27, lsl #1
  404dc0:	d37df39c 	lsl	x28, x28, #3
  404dc4:	d100639c 	sub	x28, x28, #0x18
  404dc8:	b400059b 	cbz	x27, 404e78 <_nl_find_msg+0x388>
  404dcc:	f9403ae0 	ldr	x0, [x23, #112]
  404dd0:	d100077b 	sub	x27, x27, #0x1
  404dd4:	aa1903e1 	mov	x1, x25
  404dd8:	8b1c001a 	add	x26, x0, x28
  404ddc:	f87c6800 	ldr	x0, [x0, x28]
  404de0:	d100639c 	sub	x28, x28, #0x18
  404de4:	94006337 	bl	41dac0 <strcmp>
  404de8:	35ffff00 	cbnz	w0, 404dc8 <_nl_find_msg+0x2d8>
  404dec:	d0000280 	adrp	x0, 456000 <_IO_stdin_used+0x300>
  404df0:	f942ec00 	ldr	x0, [x0, #1496]
  404df4:	b4000060 	cbz	x0, 404e00 <_nl_find_msg+0x310>
  404df8:	910202e0 	add	x0, x23, #0x80
  404dfc:	d503201f 	nop
  404e00:	f9400740 	ldr	x0, [x26, #8]
  404e04:	b100041f 	cmn	x0, #0x1
  404e08:	54fff3c0 	b.eq	404c80 <_nl_find_msg+0x190>  // b.none
  404e0c:	f9400b40 	ldr	x0, [x26, #16]
  404e10:	b4002640 	cbz	x0, 4052d8 <_nl_find_msg+0x7e8>
  404e14:	b100041f 	cmn	x0, #0x1
  404e18:	540025c0 	b.eq	4052d0 <_nl_find_msg+0x7e0>  // b.none
  404e1c:	f8767800 	ldr	x0, [x0, x22, lsl #3]
  404e20:	b4000960 	cbz	x0, 404f4c <_nl_find_msg+0x45c>
  404e24:	aa0003f8 	mov	x24, x0
  404e28:	f8408700 	ldr	x0, [x24], #8
  404e2c:	f9004fa0 	str	x0, [x29, #152]
  404e30:	17ffff94 	b	404c80 <_nl_find_msg+0x190>
  404e34:	f000045c 	adrp	x28, 48f000 <__progname_full>
  404e38:	913b039c 	add	x28, x28, #0xec0
  404e3c:	b9401380 	ldr	w0, [x28, #16]
  404e40:	34000580 	cbz	w0, 404ef0 <_nl_find_msg+0x400>
  404e44:	f9400f99 	ldr	x25, [x28, #24]
  404e48:	b5fffaf9 	cbnz	x25, 404da4 <_nl_find_msg+0x2b4>
  404e4c:	b0000440 	adrp	x0, 48d000 <__FRAME_END__+0x1034c>
  404e50:	f947c000 	ldr	x0, [x0, #3968]
  404e54:	d53bd041 	mrs	x1, tpidr_el0
  404e58:	f8606820 	ldr	x0, [x1, x0]
  404e5c:	f9400000 	ldr	x0, [x0]
  404e60:	f9405819 	ldr	x25, [x0, #176]
  404e64:	17ffffd0 	b	404da4 <_nl_find_msg+0x2b4>
  404e68:	8b204318 	add	x24, x24, w0, uxtw
  404e6c:	11000760 	add	w0, w27, #0x1
  404e70:	f9004fa0 	str	x0, [x29, #152]
  404e74:	17ffff81 	b	404c78 <_nl_find_msg+0x188>
  404e78:	d0000280 	adrp	x0, 456000 <_IO_stdin_used+0x300>
  404e7c:	f942ec00 	ldr	x0, [x0, #1496]
  404e80:	aa0003fb 	mov	x27, x0
  404e84:	b4000060 	cbz	x0, 404e90 <_nl_find_msg+0x3a0>
  404e88:	910202e0 	add	x0, x23, #0x80
  404e8c:	d503201f 	nop
  404e90:	d0000280 	adrp	x0, 456000 <_IO_stdin_used+0x300>
  404e94:	f942e800 	ldr	x0, [x0, #1488]
  404e98:	b4000060 	cbz	x0, 404ea4 <_nl_find_msg+0x3b4>
  404e9c:	910202e0 	add	x0, x23, #0x80
  404ea0:	d503201f 	nop
  404ea4:	a94772e1 	ldp	x1, x28, [x23, #112]
  404ea8:	8b1c0780 	add	x0, x28, x28, lsl #1
  404eac:	aa0103f5 	mov	x21, x1
  404eb0:	d37df014 	lsl	x20, x0, #3
  404eb4:	d1006282 	sub	x2, x20, #0x18
  404eb8:	8b020022 	add	x2, x1, x2
  404ebc:	d503201f 	nop
  404ec0:	b4000c1c 	cbz	x28, 405040 <_nl_find_msg+0x550>
  404ec4:	aa0203fa 	mov	x26, x2
  404ec8:	aa1903e1 	mov	x1, x25
  404ecc:	f85e8440 	ldr	x0, [x2], #-24
  404ed0:	f9003fa2 	str	x2, [x29, #120]
  404ed4:	f9004ba2 	str	x2, [x29, #144]
  404ed8:	d100079c 	sub	x28, x28, #0x1
  404edc:	940062f9 	bl	41dac0 <strcmp>
  404ee0:	f9404ba2 	ldr	x2, [x29, #144]
  404ee4:	35fffee0 	cbnz	w0, 404ec0 <_nl_find_msg+0x3d0>
  404ee8:	b5fff89b 	cbnz	x27, 404df8 <_nl_find_msg+0x308>
  404eec:	17ffffc5 	b	404e00 <_nl_find_msg+0x310>
  404ef0:	d0000280 	adrp	x0, 456000 <_IO_stdin_used+0x300>
  404ef4:	91156000 	add	x0, x0, #0x558
  404ef8:	9400110e 	bl	409330 <getenv>
  404efc:	aa0003fa 	mov	x26, x0
  404f00:	b4000060 	cbz	x0, 404f0c <_nl_find_msg+0x41c>
  404f04:	39400001 	ldrb	w1, [x0]
  404f08:	350000c1 	cbnz	w1, 404f20 <_nl_find_msg+0x430>
  404f0c:	f9400f99 	ldr	x25, [x28, #24]
  404f10:	52800020 	mov	w0, #0x1                   	// #1
  404f14:	b9001380 	str	w0, [x28, #16]
  404f18:	b5fff479 	cbnz	x25, 404da4 <_nl_find_msg+0x2b4>
  404f1c:	17ffffcc 	b	404e4c <_nl_find_msg+0x35c>
  404f20:	97ffecf8 	bl	400300 <.plt+0x60>
  404f24:	9100041b 	add	x27, x0, #0x1
  404f28:	aa1b03e0 	mov	x0, x27
  404f2c:	94005bdf 	bl	41bea8 <__libc_malloc>
  404f30:	aa0003f9 	mov	x25, x0
  404f34:	b4000080 	cbz	x0, 404f44 <_nl_find_msg+0x454>
  404f38:	aa1b03e2 	mov	x2, x27
  404f3c:	aa1a03e1 	mov	x1, x26
  404f40:	97ffecdc 	bl	4002b0 <.plt+0x10>
  404f44:	f9000f99 	str	x25, [x28, #24]
  404f48:	17fffff2 	b	404f10 <_nl_find_msg+0x420>
  404f4c:	f000045c 	adrp	x28, 48f000 <__progname_full>
  404f50:	913b039c 	add	x28, x28, #0xec0
  404f54:	91008380 	add	x0, x28, #0x20
  404f58:	52800021 	mov	w1, #0x1                   	// #1
  404f5c:	885ffc02 	ldaxr	w2, [x0]
  404f60:	35000062 	cbnz	w2, 404f6c <_nl_find_msg+0x47c>
  404f64:	88037c01 	stxr	w3, w1, [x0]
  404f68:	35ffffa3 	cbnz	w3, 404f5c <_nl_find_msg+0x46c>
  404f6c:	7100005f 	cmp	w2, #0x0
  404f70:	540024a1 	b.ne	405404 <_nl_find_msg+0x914>  // b.any
  404f74:	a9428780 	ldp	x0, x1, [x28, #40]
  404f78:	52800017 	mov	w23, #0x0                   	// #0
  404f7c:	d281fe14 	mov	x20, #0xff0                 	// #4080
  404f80:	91002000 	add	x0, x0, #0x8
  404f84:	a90a03b8 	stp	x24, x0, [x29, #160]
  404f88:	f1001c3f 	cmp	x1, #0x7
  404f8c:	54000209 	b.ls	404fcc <_nl_find_msg+0x4dc>  // b.plast
  404f90:	d1002024 	sub	x4, x1, #0x8
  404f94:	9102c3a5 	add	x5, x29, #0xb0
  404f98:	a9498ba1 	ldp	x1, x2, [x29, #152]
  404f9c:	9102a3a3 	add	x3, x29, #0xa8
  404fa0:	f9400740 	ldr	x0, [x26, #8]
  404fa4:	f94057a7 	ldr	x7, [x29, #168]
  404fa8:	8b010042 	add	x2, x2, x1
  404fac:	910283a1 	add	x1, x29, #0xa0
  404fb0:	8b0400e4 	add	x4, x7, x4
  404fb4:	940083a3 	bl	425e40 <__gconv>
  404fb8:	721d781f 	tst	w0, #0xfffffffb
  404fbc:	54001e60 	b.eq	405388 <_nl_find_msg+0x898>  // b.none
  404fc0:	7100141f 	cmp	w0, #0x5
  404fc4:	54001d21 	b.ne	405368 <_nl_find_msg+0x878>  // b.any
  404fc8:	f90053b8 	str	x24, [x29, #160]
  404fcc:	34000277 	cbz	w23, 405018 <_nl_find_msg+0x528>
  404fd0:	110006f7 	add	w23, w23, #0x1
  404fd4:	f9400799 	ldr	x25, [x28, #8]
  404fd8:	53185ee1 	lsl	w1, w23, #8
  404fdc:	4b170021 	sub	w1, w1, w23
  404fe0:	aa1903e0 	mov	x0, x25
  404fe4:	531c6c21 	lsl	w1, w1, #4
  404fe8:	93407c33 	sxtw	x19, w1
  404fec:	f9001b93 	str	x19, [x28, #48]
  404ff0:	aa1303e1 	mov	x1, x19
  404ff4:	94005db1 	bl	41c6b8 <__libc_realloc>
  404ff8:	b4001480 	cbz	x0, 405288 <_nl_find_msg+0x798>
  404ffc:	d1002261 	sub	x1, x19, #0x8
  405000:	f9000780 	str	x0, [x28, #8]
  405004:	91002002 	add	x2, x0, #0x8
  405008:	91004000 	add	x0, x0, #0x10
  40500c:	a9028782 	stp	x2, x1, [x28, #40]
  405010:	f90057a0 	str	x0, [x29, #168]
  405014:	17ffffdd 	b	404f88 <_nl_find_msg+0x498>
  405018:	d281fe00 	mov	x0, #0xff0                 	// #4080
  40501c:	f9001b94 	str	x20, [x28, #48]
  405020:	94005ba2 	bl	41bea8 <__libc_malloc>
  405024:	b40013a0 	cbz	x0, 405298 <_nl_find_msg+0x7a8>
  405028:	f9400782 	ldr	x2, [x28, #8]
  40502c:	d281fd01 	mov	x1, #0xfe8                 	// #4072
  405030:	52800037 	mov	w23, #0x1                   	// #1
  405034:	f9000002 	str	x2, [x0]
  405038:	f9000780 	str	x0, [x28, #8]
  40503c:	17fffff2 	b	405004 <_nl_find_msg+0x514>
  405040:	91006281 	add	x1, x20, #0x18
  405044:	aa1503e0 	mov	x0, x21
  405048:	b40017f5 	cbz	x21, 405344 <_nl_find_msg+0x854>
  40504c:	94005d9b 	bl	41c6b8 <__libc_realloc>
  405050:	aa0003e1 	mov	x1, x0
  405054:	b4001801 	cbz	x1, 405354 <_nl_find_msg+0x864>
  405058:	f9003ae1 	str	x1, [x23, #112]
  40505c:	aa1903e0 	mov	x0, x25
  405060:	f9004ba1 	str	x1, [x29, #144]
  405064:	94006391 	bl	41dea8 <__strdup>
  405068:	aa0003f9 	mov	x25, x0
  40506c:	b4001740 	cbz	x0, 405354 <_nl_find_msg+0x864>
  405070:	a94887a0 	ldp	x0, x1, [x29, #136]
  405074:	92800003 	mov	x3, #0xffffffffffffffff    	// #-1
  405078:	9102c3a4 	add	x4, x29, #0xb0
  40507c:	b0000282 	adrp	x2, 456000 <_IO_stdin_used+0x300>
  405080:	912f8042 	add	x2, x2, #0xbe0
  405084:	8b14003a 	add	x26, x1, x20
  405088:	f8346839 	str	x25, [x1, x20]
  40508c:	f94037a1 	ldr	x1, [x29, #104]
  405090:	f9000743 	str	x3, [x26, #8]
  405094:	52800003 	mov	w3, #0x0                   	// #0
  405098:	97fffe96 	bl	404af0 <_nl_find_msg>
  40509c:	aa0003e1 	mov	x1, x0
  4050a0:	b100041f 	cmn	x0, #0x1
  4050a4:	54001d80 	b.eq	405454 <_nl_find_msg+0x964>  // b.none
  4050a8:	b4000e40 	cbz	x0, 405270 <_nl_find_msg+0x780>
  4050ac:	b0000281 	adrp	x1, 456000 <_IO_stdin_used+0x300>
  4050b0:	9115a021 	add	x1, x1, #0x568
  4050b4:	940065fd 	bl	41e8a8 <strstr>
  4050b8:	b4000dc0 	cbz	x0, 405270 <_nl_find_msg+0x780>
  4050bc:	91002015 	add	x21, x0, #0x8
  4050c0:	b0000281 	adrp	x1, 456000 <_IO_stdin_used+0x300>
  4050c4:	aa1503e0 	mov	x0, x21
  4050c8:	9115e021 	add	x1, x1, #0x578
  4050cc:	9400631f 	bl	41dd48 <strcspn>
  4050d0:	aa0003e2 	mov	x2, x0
  4050d4:	91004000 	add	x0, x0, #0x10
  4050d8:	9270bc01 	and	x1, x0, #0xffffffffffff0000
  4050dc:	927cec00 	and	x0, x0, #0xfffffffffffffff0
  4050e0:	cb2163e1 	sub	x1, sp, x1
  4050e4:	eb2163ff 	cmp	sp, x1
  4050e8:	540000a0 	b.eq	4050fc <_nl_find_msg+0x60c>  // b.none
  4050ec:	d14043ff 	sub	sp, sp, #0x10, lsl #12
  4050f0:	eb2163ff 	cmp	sp, x1
  4050f4:	f90203ff 	str	xzr, [sp, #1024]
  4050f8:	54ffffa1 	b.ne	4050ec <_nl_find_msg+0x5fc>  // b.any
  4050fc:	92403c00 	and	x0, x0, #0xffff
  405100:	cb2063ff 	sub	sp, sp, x0
  405104:	f110001f 	cmp	x0, #0x400
  405108:	f90003ff 	str	xzr, [sp]
  40510c:	54000043 	b.cc	405114 <_nl_find_msg+0x624>  // b.lo, b.ul, b.last
  405110:	f90203ff 	str	xzr, [sp, #1024]
  405114:	910043f4 	add	x20, sp, #0x10
  405118:	aa1503e1 	mov	x1, x21
  40511c:	aa1403e0 	mov	x0, x20
  405120:	9400675e 	bl	41ee98 <__mempcpy>
  405124:	39400322 	ldrb	w2, [x25]
  405128:	3900001f 	strb	wzr, [x0]
  40512c:	34001a62 	cbz	w2, 405478 <_nl_find_msg+0x988>
  405130:	aa1903e0 	mov	x0, x25
  405134:	2a0203e1 	mov	w1, w2
  405138:	d2800003 	mov	x3, #0x0                   	// #0
  40513c:	7100bc3f 	cmp	w1, #0x2f
  405140:	38401c01 	ldrb	w1, [x0, #1]!
  405144:	9a831463 	cinc	x3, x3, eq  // eq = none
  405148:	35ffffa1 	cbnz	w1, 40513c <_nl_find_msg+0x64c>
  40514c:	cb190000 	sub	x0, x0, x25
  405150:	91006800 	add	x0, x0, #0x1a
  405154:	9270bc01 	and	x1, x0, #0xffffffffffff0000
  405158:	927cec00 	and	x0, x0, #0xfffffffffffffff0
  40515c:	cb2163e1 	sub	x1, sp, x1
  405160:	eb2163ff 	cmp	sp, x1
  405164:	540000a0 	b.eq	405178 <_nl_find_msg+0x688>  // b.none
  405168:	d14043ff 	sub	sp, sp, #0x10, lsl #12
  40516c:	eb2163ff 	cmp	sp, x1
  405170:	f90203ff 	str	xzr, [sp, #1024]
  405174:	54ffffa1 	b.ne	405168 <_nl_find_msg+0x678>  // b.any
  405178:	92403c00 	and	x0, x0, #0xffff
  40517c:	cb2063ff 	sub	sp, sp, x0
  405180:	f110001f 	cmp	x0, #0x400
  405184:	f90003ff 	str	xzr, [sp]
  405188:	54000043 	b.cc	405190 <_nl_find_msg+0x6a0>  // b.lo, b.ul, b.last
  40518c:	f90203ff 	str	xzr, [sp, #1024]
  405190:	f0000308 	adrp	x8, 468000 <translit_from_idx+0xba0>
  405194:	910043e0 	add	x0, sp, #0x10
  405198:	aa0003e1 	mov	x1, x0
  40519c:	aa1903e4 	mov	x4, x25
  4051a0:	f9477109 	ldr	x9, [x8, #3808]
  4051a4:	2a0203e8 	mov	w8, w2
  4051a8:	38401c82 	ldrb	w2, [x4, #1]!
  4051ac:	aa0103ea 	mov	x10, x1
  4051b0:	b8687928 	ldr	w8, [x9, x8, lsl #2]
  4051b4:	38001428 	strb	w8, [x1], #1
  4051b8:	35ffff62 	cbnz	w2, 4051a4 <_nl_find_msg+0x6b4>
  4051bc:	f100047f 	cmp	x3, #0x1
  4051c0:	54001309 	b.ls	405420 <_nl_find_msg+0x930>  // b.plast
  4051c4:	39400283 	ldrb	w3, [x20]
  4051c8:	3900003f 	strb	wzr, [x1]
  4051cc:	34001743 	cbz	w3, 4054b4 <_nl_find_msg+0x9c4>
  4051d0:	aa1403e1 	mov	x1, x20
  4051d4:	2a0303e2 	mov	w2, w3
  4051d8:	7100bc5f 	cmp	w2, #0x2f
  4051dc:	38401c22 	ldrb	w2, [x1, #1]!
  4051e0:	9a9c179c 	cinc	x28, x28, eq  // eq = none
  4051e4:	35ffffa2 	cbnz	w2, 4051d8 <_nl_find_msg+0x6e8>
  4051e8:	cb140021 	sub	x1, x1, x20
  4051ec:	91004821 	add	x1, x1, #0x12
  4051f0:	9270bc22 	and	x2, x1, #0xffffffffffff0000
  4051f4:	927cec21 	and	x1, x1, #0xfffffffffffffff0
  4051f8:	cb2263e2 	sub	x2, sp, x2
  4051fc:	eb2263ff 	cmp	sp, x2
  405200:	540000a0 	b.eq	405214 <_nl_find_msg+0x724>  // b.none
  405204:	d14043ff 	sub	sp, sp, #0x10, lsl #12
  405208:	eb2263ff 	cmp	sp, x2
  40520c:	f90203ff 	str	xzr, [sp, #1024]
  405210:	54ffffa1 	b.ne	405204 <_nl_find_msg+0x714>  // b.any
  405214:	92403c21 	and	x1, x1, #0xffff
  405218:	cb2163ff 	sub	sp, sp, x1
  40521c:	f110003f 	cmp	x1, #0x400
  405220:	f90003ff 	str	xzr, [sp]
  405224:	54000043 	b.cc	40522c <_nl_find_msg+0x73c>  // b.lo, b.ul, b.last
  405228:	f90203ff 	str	xzr, [sp, #1024]
  40522c:	f0000304 	adrp	x4, 468000 <translit_from_idx+0xba0>
  405230:	910043e1 	add	x1, sp, #0x10
  405234:	aa0103e2 	mov	x2, x1
  405238:	f9477088 	ldr	x8, [x4, #3808]
  40523c:	2a0303e4 	mov	w4, w3
  405240:	38401e83 	ldrb	w3, [x20, #1]!
  405244:	aa0203e9 	mov	x9, x2
  405248:	b8647904 	ldr	w4, [x8, x4, lsl #2]
  40524c:	38001444 	strb	w4, [x2], #1
  405250:	35ffff63 	cbnz	w3, 40523c <_nl_find_msg+0x74c>
  405254:	f100079f 	cmp	x28, #0x1
  405258:	54000da9 	b.ls	40540c <_nl_find_msg+0x91c>  // b.plast
  40525c:	3900005f 	strb	wzr, [x2]
  405260:	52800023 	mov	w3, #0x1                   	// #1
  405264:	91002342 	add	x2, x26, #0x8
  405268:	9400818c 	bl	425898 <__gconv_open>
  40526c:	35000e40 	cbnz	w0, 405434 <_nl_find_msg+0x944>
  405270:	f9403ee0 	ldr	x0, [x23, #120]
  405274:	f9000b5f 	str	xzr, [x26, #16]
  405278:	91000400 	add	x0, x0, #0x1
  40527c:	f9003ee0 	str	x0, [x23, #120]
  405280:	b5ffdbdb 	cbnz	x27, 404df8 <_nl_find_msg+0x308>
  405284:	17fffedf 	b	404e00 <_nl_find_msg+0x310>
  405288:	f9400321 	ldr	x1, [x25]
  40528c:	aa1903e0 	mov	x0, x25
  405290:	f9000781 	str	x1, [x28, #8]
  405294:	94005c7d 	bl	41c488 <__free>
  405298:	91008380 	add	x0, x28, #0x20
  40529c:	a902ff9f 	stp	xzr, xzr, [x28, #40]
  4052a0:	885f7c01 	ldxr	w1, [x0]
  4052a4:	8802fc1f 	stlxr	w2, wzr, [x0]
  4052a8:	35ffffc2 	cbnz	w2, 4052a0 <_nl_find_msg+0x7b0>
  4052ac:	7100043f 	cmp	w1, #0x1
  4052b0:	92800018 	mov	x24, #0xffffffffffffffff    	// #-1
  4052b4:	54ffd22d 	b.le	404cf8 <_nl_find_msg+0x208>
  4052b8:	d2801021 	mov	x1, #0x81                  	// #129
  4052bc:	d2800022 	mov	x2, #0x1                   	// #1
  4052c0:	d2800003 	mov	x3, #0x0                   	// #0
  4052c4:	d2800c48 	mov	x8, #0x62                  	// #98
  4052c8:	d4000001 	svc	#0x0
  4052cc:	17fffe8b 	b	404cf8 <_nl_find_msg+0x208>
  4052d0:	92800018 	mov	x24, #0xffffffffffffffff    	// #-1
  4052d4:	17fffe89 	b	404cf8 <_nl_find_msg+0x208>
  4052d8:	d000045c 	adrp	x28, 48f000 <__progname_full>
  4052dc:	913b039c 	add	x28, x28, #0xec0
  4052e0:	91008380 	add	x0, x28, #0x20
  4052e4:	52800021 	mov	w1, #0x1                   	// #1
  4052e8:	885ffc02 	ldaxr	w2, [x0]
  4052ec:	35000062 	cbnz	w2, 4052f8 <_nl_find_msg+0x808>
  4052f0:	88037c01 	stxr	w3, w1, [x0]
  4052f4:	35ffffa3 	cbnz	w3, 4052e8 <_nl_find_msg+0x7f8>
  4052f8:	7100005f 	cmp	w2, #0x0
  4052fc:	54000b01 	b.ne	40545c <_nl_find_msg+0x96c>  // b.any
  405300:	f9400b40 	ldr	x0, [x26, #16]
  405304:	b40006e0 	cbz	x0, 4053e0 <_nl_find_msg+0x8f0>
  405308:	91008380 	add	x0, x28, #0x20
  40530c:	885f7c01 	ldxr	w1, [x0]
  405310:	8802fc1f 	stlxr	w2, wzr, [x0]
  405314:	35ffffc2 	cbnz	w2, 40530c <_nl_find_msg+0x81c>
  405318:	7100043f 	cmp	w1, #0x1
  40531c:	5400006c 	b.gt	405328 <_nl_find_msg+0x838>
  405320:	f9400b40 	ldr	x0, [x26, #16]
  405324:	17fffebc 	b	404e14 <_nl_find_msg+0x324>
  405328:	d2801021 	mov	x1, #0x81                  	// #129
  40532c:	d2800022 	mov	x2, #0x1                   	// #1
  405330:	d2800003 	mov	x3, #0x0                   	// #0
  405334:	d2800c48 	mov	x8, #0x62                  	// #98
  405338:	d4000001 	svc	#0x0
  40533c:	f9400b40 	ldr	x0, [x26, #16]
  405340:	17fffeb5 	b	404e14 <_nl_find_msg+0x324>
  405344:	aa0103e0 	mov	x0, x1
  405348:	94005ad8 	bl	41bea8 <__libc_malloc>
  40534c:	aa0003e1 	mov	x1, x0
  405350:	17ffff41 	b	405054 <_nl_find_msg+0x564>
  405354:	b4fffbfb 	cbz	x27, 4052d0 <_nl_find_msg+0x7e0>
  405358:	910202e0 	add	x0, x23, #0x80
  40535c:	92800018 	mov	x24, #0xffffffffffffffff    	// #-1
  405360:	d503201f 	nop
  405364:	17fffe65 	b	404cf8 <_nl_find_msg+0x208>
  405368:	91008380 	add	x0, x28, #0x20
  40536c:	885f7c01 	ldxr	w1, [x0]
  405370:	8802fc1f 	stlxr	w2, wzr, [x0]
  405374:	35ffffc2 	cbnz	w2, 40536c <_nl_find_msg+0x87c>
  405378:	7100043f 	cmp	w1, #0x1
  40537c:	d2800018 	mov	x24, #0x0                   	// #0
  405380:	54ffcbcd 	b.le	404cf8 <_nl_find_msg+0x208>
  405384:	17ffffcd 	b	4052b8 <_nl_find_msg+0x7c8>
  405388:	a9428784 	ldp	x4, x1, [x28, #40]
  40538c:	91008380 	add	x0, x28, #0x20
  405390:	f94057a2 	ldr	x2, [x29, #168]
  405394:	d37df2c5 	lsl	x5, x22, #3
  405398:	f9400b47 	ldr	x7, [x26, #16]
  40539c:	cb040043 	sub	x3, x2, x4
  4053a0:	cb030021 	sub	x1, x1, x3
  4053a4:	d1002063 	sub	x3, x3, #0x8
  4053a8:	92400828 	and	x8, x1, #0x7
  4053ac:	f9000083 	str	x3, [x4]
  4053b0:	8b080042 	add	x2, x2, x8
  4053b4:	927df021 	and	x1, x1, #0xfffffffffffffff8
  4053b8:	f83678e4 	str	x4, [x7, x22, lsl #3]
  4053bc:	a9028782 	stp	x2, x1, [x28, #40]
  4053c0:	885f7c01 	ldxr	w1, [x0]
  4053c4:	8802fc1f 	stlxr	w2, wzr, [x0]
  4053c8:	35ffffc2 	cbnz	w2, 4053c0 <_nl_find_msg+0x8d0>
  4053cc:	7100043f 	cmp	w1, #0x1
  4053d0:	5400082c 	b.gt	4054d4 <_nl_find_msg+0x9e4>
  4053d4:	f9400b40 	ldr	x0, [x26, #16]
  4053d8:	f8656800 	ldr	x0, [x0, x5]
  4053dc:	17fffe92 	b	404e24 <_nl_find_msg+0x334>
  4053e0:	b94042e0 	ldr	w0, [x23, #64]
  4053e4:	d2800101 	mov	x1, #0x8                   	// #8
  4053e8:	0b000260 	add	w0, w19, w0
  4053ec:	94005dd3 	bl	41cb38 <__calloc>
  4053f0:	f9000b40 	str	x0, [x26, #16]
  4053f4:	b5ffdc00 	cbnz	x0, 404f74 <_nl_find_msg+0x484>
  4053f8:	92800000 	mov	x0, #0xffffffffffffffff    	// #-1
  4053fc:	f9000b40 	str	x0, [x26, #16]
  405400:	17ffffc2 	b	405308 <_nl_find_msg+0x818>
  405404:	94004941 	bl	417908 <__lll_lock_wait_private>
  405408:	17fffedb 	b	404f74 <_nl_find_msg+0x484>
  40540c:	528005e3 	mov	w3, #0x2f                  	// #47
  405410:	39000043 	strb	w3, [x2]
  405414:	b400029c 	cbz	x28, 405464 <_nl_find_msg+0x974>
  405418:	91000922 	add	x2, x9, #0x2
  40541c:	17ffff90 	b	40525c <_nl_find_msg+0x76c>
  405420:	528005e2 	mov	w2, #0x2f                  	// #47
  405424:	39000022 	strb	w2, [x1]
  405428:	b4000343 	cbz	x3, 405490 <_nl_find_msg+0x9a0>
  40542c:	91000941 	add	x1, x10, #0x2
  405430:	17ffff65 	b	4051c4 <_nl_find_msg+0x6d4>
  405434:	3100041f 	cmn	w0, #0x1
  405438:	540005a0 	b.eq	4054ec <_nl_find_msg+0x9fc>  // b.none
  40543c:	b400007b 	cbz	x27, 405448 <_nl_find_msg+0x958>
  405440:	910202e0 	add	x0, x23, #0x80
  405444:	d503201f 	nop
  405448:	aa1903e0 	mov	x0, x25
  40544c:	94005c0f 	bl	41c488 <__free>
  405450:	d2800001 	mov	x1, #0x0                   	// #0
  405454:	aa0103f8 	mov	x24, x1
  405458:	17fffe28 	b	404cf8 <_nl_find_msg+0x208>
  40545c:	9400492b 	bl	417908 <__lll_lock_wait_private>
  405460:	17ffffa8 	b	405300 <_nl_find_msg+0x810>
  405464:	aa0203e3 	mov	x3, x2
  405468:	528005e4 	mov	w4, #0x2f                  	// #47
  40546c:	91000862 	add	x2, x3, #0x2
  405470:	39000464 	strb	w4, [x3, #1]
  405474:	17ffff7a 	b	40525c <_nl_find_msg+0x76c>
  405478:	d10043ff 	sub	sp, sp, #0x10
  40547c:	f90007ff 	str	xzr, [sp, #8]
  405480:	910043e1 	add	x1, sp, #0x10
  405484:	528005e2 	mov	w2, #0x2f                  	// #47
  405488:	aa0103e0 	mov	x0, x1
  40548c:	39000022 	strb	w2, [x1]
  405490:	d28a4a82 	mov	x2, #0x5254                	// #21076
  405494:	528005e3 	mov	w3, #0x2f                  	// #47
  405498:	f2a9c822 	movk	x2, #0x4e41, lsl #16
  40549c:	91002821 	add	x1, x1, #0xa
  4054a0:	f2c98a62 	movk	x2, #0x4c53, lsl #32
  4054a4:	381f7023 	sturb	w3, [x1, #-9]
  4054a8:	f2ea8922 	movk	x2, #0x5449, lsl #48
  4054ac:	f81f8022 	stur	x2, [x1, #-8]
  4054b0:	17ffff45 	b	4051c4 <_nl_find_msg+0x6d4>
  4054b4:	d10043ff 	sub	sp, sp, #0x10
  4054b8:	f90007ff 	str	xzr, [sp, #8]
  4054bc:	910043e1 	add	x1, sp, #0x10
  4054c0:	528005e2 	mov	w2, #0x2f                  	// #47
  4054c4:	aa0103e3 	mov	x3, x1
  4054c8:	39000022 	strb	w2, [x1]
  4054cc:	17ffffe7 	b	405468 <_nl_find_msg+0x978>
  4054d0:	94007b24 	bl	424160 <__stack_chk_fail>
  4054d4:	d2801021 	mov	x1, #0x81                  	// #129
  4054d8:	d2800022 	mov	x2, #0x1                   	// #1
  4054dc:	d2800003 	mov	x3, #0x0                   	// #0
  4054e0:	d2800c48 	mov	x8, #0x62                  	// #98
  4054e4:	d4000001 	svc	#0x0
  4054e8:	17ffffbb 	b	4053d4 <_nl_find_msg+0x8e4>
  4054ec:	92800000 	mov	x0, #0xffffffffffffffff    	// #-1
  4054f0:	f9000740 	str	x0, [x26, #8]
  4054f4:	17ffff5f 	b	405270 <_nl_find_msg+0x780>

00000000004054f8 <__dcigettext>:
  4054f8:	a9ac7bfd 	stp	x29, x30, [sp, #-320]!
  4054fc:	910003fd 	mov	x29, sp
  405500:	a90363f7 	stp	x23, x24, [sp, #48]
  405504:	90000457 	adrp	x23, 48d000 <__FRAME_END__+0x1034c>
  405508:	912682e6 	add	x6, x23, #0x9a0
  40550c:	f94000c7 	ldr	x7, [x6]
  405510:	f9009fa7 	str	x7, [x29, #312]
  405514:	d2800007 	mov	x7, #0x0                   	// #0
  405518:	a90153f3 	stp	x19, x20, [sp, #16]
  40551c:	a9025bf5 	stp	x21, x22, [sp, #32]
  405520:	a9046bf9 	stp	x25, x26, [sp, #64]
  405524:	a90573fb 	stp	x27, x28, [sp, #80]
  405528:	d10043ff 	sub	sp, sp, #0x10
  40552c:	a90b13a2 	stp	x2, x4, [x29, #176]
  405530:	b900cfa3 	str	w3, [x29, #204]
  405534:	f9006ba6 	str	x6, [x29, #208]
  405538:	f90077bf 	str	xzr, [x29, #232]
  40553c:	b4002a41 	cbz	x1, 405a84 <__dcigettext+0x58c>
  405540:	710030bf 	cmp	w5, #0xc
  405544:	aa0103f5 	mov	x21, x1
  405548:	2a0503f6 	mov	w22, w5
  40554c:	7a4698a4 	ccmp	w5, #0x6, #0x4, ls  // ls = plast
  405550:	540024a0 	b.eq	4059e4 <__dcigettext+0x4ec>  // b.none
  405554:	90000441 	adrp	x1, 48d000 <__FRAME_END__+0x1034c>
  405558:	f947c421 	ldr	x1, [x1, #3976]
  40555c:	d53bd042 	mrs	x2, tpidr_el0
  405560:	aa0003f4 	mov	x20, x0
  405564:	b0000280 	adrp	x0, 456000 <_IO_stdin_used+0x300>
  405568:	a90987a2 	stp	x2, x1, [x29, #152]
  40556c:	d0000459 	adrp	x25, 48f000 <__progname_full>
  405570:	f942e413 	ldr	x19, [x0, #1480]
  405574:	b8616840 	ldr	w0, [x2, x1]
  405578:	b900cba0 	str	w0, [x29, #200]
  40557c:	b4001bb3 	cbz	x19, 4058f0 <__dcigettext+0x3f8>
  405580:	f0000440 	adrp	x0, 490000 <__abort_msg>
  405584:	9115c000 	add	x0, x0, #0x570
  405588:	d503201f 	nop
  40558c:	b4001b33 	cbz	x19, 4058f0 <__dcigettext+0x3f8>
  405590:	913b0320 	add	x0, x25, #0xec0
  405594:	f90063a0 	str	x0, [x29, #192]
  405598:	9100e000 	add	x0, x0, #0x38
  40559c:	d503201f 	nop
  4055a0:	b0000441 	adrp	x1, 48e000 <_GLOBAL_OFFSET_TABLE_+0xc8>
  4055a4:	f100029f 	cmp	x20, #0x0
  4055a8:	2a1603e0 	mov	w0, w22
  4055ac:	b90103b6 	str	w22, [x29, #256]
  4055b0:	f9409021 	ldr	x1, [x1, #288]
  4055b4:	f9008fbf 	str	xzr, [x29, #280]
  4055b8:	f9009bb5 	str	x21, [x29, #304]
  4055bc:	9a940034 	csel	x20, x1, x20, eq  // eq = none
  4055c0:	f9007fb4 	str	x20, [x29, #248]
  4055c4:	9400afb9 	bl	4314a8 <__current_locale_name>
  4055c8:	f90047a0 	str	x0, [x29, #136]
  4055cc:	f90087a0 	str	x0, [x29, #264]
  4055d0:	b4000093 	cbz	x19, 4055e0 <__dcigettext+0xe8>
  4055d4:	f94063a0 	ldr	x0, [x29, #192]
  4055d8:	9101c000 	add	x0, x0, #0x70
  4055dc:	d503201f 	nop
  4055e0:	f94063b3 	ldr	x19, [x29, #192]
  4055e4:	f0ffffe0 	adrp	x0, 404000 <__libc_start_main+0x1e8>
  4055e8:	9127c000 	add	x0, x0, #0x9f0
  4055ec:	f90043a0 	str	x0, [x29, #128]
  4055f0:	aa0003e2 	mov	x2, x0
  4055f4:	aa1303e1 	mov	x1, x19
  4055f8:	9103e3a0 	add	x0, x29, #0xf8
  4055fc:	940076a7 	bl	423098 <__tfind>
  405600:	b0000281 	adrp	x1, 456000 <_IO_stdin_used+0x300>
  405604:	f90057a0 	str	x0, [x29, #168]
  405608:	f942ec20 	ldr	x0, [x1, #1496]
  40560c:	f9006fa0 	str	x0, [x29, #216]
  405610:	b4000060 	cbz	x0, 40561c <__dcigettext+0x124>
  405614:	9101c260 	add	x0, x19, #0x70
  405618:	d503201f 	nop
  40561c:	f94057a0 	ldr	x0, [x29, #168]
  405620:	b40000e0 	cbz	x0, 40563c <__dcigettext+0x144>
  405624:	f9400000 	ldr	x0, [x0]
  405628:	f0000441 	adrp	x1, 490000 <__abort_msg>
  40562c:	b94e8821 	ldr	w1, [x1, #3720]
  405630:	b9401802 	ldr	w2, [x0, #24]
  405634:	6b01005f 	cmp	w2, w1
  405638:	54002000 	b.eq	405a38 <__dcigettext+0x540>  // b.none
  40563c:	f0000440 	adrp	x0, 490000 <__abort_msg>
  405640:	f9474013 	ldr	x19, [x0, #3712]
  405644:	b50000b3 	cbnz	x19, 405658 <__dcigettext+0x160>
  405648:	140000f5 	b	405a1c <__dcigettext+0x524>
  40564c:	54001eeb 	b.lt	405a28 <__dcigettext+0x530>  // b.tstop
  405650:	f9400273 	ldr	x19, [x19]
  405654:	b4001e53 	cbz	x19, 405a1c <__dcigettext+0x524>
  405658:	91006261 	add	x1, x19, #0x18
  40565c:	aa1403e0 	mov	x0, x20
  405660:	94006118 	bl	41dac0 <strcmp>
  405664:	7100001f 	cmp	w0, #0x0
  405668:	35ffff20 	cbnz	w0, 40564c <__dcigettext+0x154>
  40566c:	f9400678 	ldr	x24, [x19, #8]
  405670:	39400300 	ldrb	w0, [x24]
  405674:	7100bc1f 	cmp	w0, #0x2f
  405678:	54000240 	b.eq	4056c0 <__dcigettext+0x1c8>  // b.none
  40567c:	d2800001 	mov	x1, #0x0                   	// #0
  405680:	d2800000 	mov	x0, #0x0                   	// #0
  405684:	9400724f 	bl	421fc0 <__getcwd>
  405688:	aa0003fa 	mov	x26, x0
  40568c:	b4001660 	cbz	x0, 405958 <__dcigettext+0x460>
  405690:	aa1803e3 	mov	x3, x24
  405694:	aa0003e2 	mov	x2, x0
  405698:	b0000281 	adrp	x1, 456000 <_IO_stdin_used+0x300>
  40569c:	91160021 	add	x1, x1, #0x580
  4056a0:	9103a3a0 	add	x0, x29, #0xe8
  4056a4:	9400125d 	bl	40a018 <___asprintf>
  4056a8:	2a0003f8 	mov	w24, w0
  4056ac:	aa1a03e0 	mov	x0, x26
  4056b0:	94005b76 	bl	41c488 <__free>
  4056b4:	37f81538 	tbnz	w24, #31, 405958 <__dcigettext+0x460>
  4056b8:	f94077b8 	ldr	x24, [x29, #232]
  4056bc:	d503201f 	nop
  4056c0:	b00002a2 	adrp	x2, 45a000 <map+0x318>
  4056c4:	9114c042 	add	x2, x2, #0x530
  4056c8:	b00002bb 	adrp	x27, 45a000 <map+0x318>
  4056cc:	91128361 	add	x1, x27, #0x4a0
  4056d0:	2a1603e0 	mov	w0, w22
  4056d4:	3876c85b 	ldrb	w27, [x2, w22, sxtw]
  4056d8:	8b01037b 	add	x27, x27, x1
  4056dc:	9400af73 	bl	4314a8 <__current_locale_name>
  4056e0:	aa0003f7 	mov	x23, x0
  4056e4:	39400000 	ldrb	w0, [x0]
  4056e8:	71010c1f 	cmp	w0, #0x43
  4056ec:	54001881 	b.ne	4059fc <__dcigettext+0x504>  // b.any
  4056f0:	394006e0 	ldrb	w0, [x23, #1]
  4056f4:	35001840 	cbnz	w0, 4059fc <__dcigettext+0x504>
  4056f8:	aa1403e0 	mov	x0, x20
  4056fc:	97ffeb01 	bl	400300 <.plt+0x60>
  405700:	aa0003e1 	mov	x1, x0
  405704:	aa1b03e0 	mov	x0, x27
  405708:	aa0103f9 	mov	x25, x1
  40570c:	f9003fa1 	str	x1, [x29, #120]
  405710:	97ffeafc 	bl	400300 <.plt+0x60>
  405714:	8b190000 	add	x0, x0, x25
  405718:	91005000 	add	x0, x0, #0x14
  40571c:	9100eb22 	add	x2, x25, #0x3a
  405720:	9270bc01 	and	x1, x0, #0xffffffffffff0000
  405724:	f9003ba2 	str	x2, [x29, #112]
  405728:	cb2163e1 	sub	x1, sp, x1
  40572c:	927cec00 	and	x0, x0, #0xfffffffffffffff0
  405730:	eb2163ff 	cmp	sp, x1
  405734:	540000a0 	b.eq	405748 <__dcigettext+0x250>  // b.none
  405738:	d14043ff 	sub	sp, sp, #0x10, lsl #12
  40573c:	eb2163ff 	cmp	sp, x1
  405740:	f90203ff 	str	xzr, [sp, #1024]
  405744:	54ffffa1 	b.ne	405738 <__dcigettext+0x240>  // b.any
  405748:	92403c00 	and	x0, x0, #0xffff
  40574c:	cb2063ff 	sub	sp, sp, x0
  405750:	f110001f 	cmp	x0, #0x400
  405754:	f90003ff 	str	xzr, [sp]
  405758:	54000043 	b.cc	405760 <__dcigettext+0x268>  // b.lo, b.ul, b.last
  40575c:	f90203ff 	str	xzr, [sp, #1024]
  405760:	910043fa 	add	x26, sp, #0x10
  405764:	aa1b03e1 	mov	x1, x27
  405768:	aa1a03e0 	mov	x0, x26
  40576c:	940065d5 	bl	41eec0 <__stpcpy>
  405770:	f9403fa2 	ldr	x2, [x29, #120]
  405774:	528005e3 	mov	w3, #0x2f                  	// #47
  405778:	78001403 	strh	w3, [x0], #1
  40577c:	aa1403e1 	mov	x1, x20
  405780:	940065c6 	bl	41ee98 <__mempcpy>
  405784:	aa0003e1 	mov	x1, x0
  405788:	528da5c2 	mov	w2, #0x6d2e                	// #27950
  40578c:	aa1703e0 	mov	x0, x23
  405790:	72a00de2 	movk	w2, #0x6f, lsl #16
  405794:	b9000022 	str	w2, [x1]
  405798:	97ffeada 	bl	400300 <.plt+0x60>
  40579c:	91004000 	add	x0, x0, #0x10
  4057a0:	9270bc01 	and	x1, x0, #0xffffffffffff0000
  4057a4:	927cec00 	and	x0, x0, #0xfffffffffffffff0
  4057a8:	cb2163e1 	sub	x1, sp, x1
  4057ac:	eb2163ff 	cmp	sp, x1
  4057b0:	540000a0 	b.eq	4057c4 <__dcigettext+0x2cc>  // b.none
  4057b4:	d14043ff 	sub	sp, sp, #0x10, lsl #12
  4057b8:	eb2163ff 	cmp	sp, x1
  4057bc:	f90203ff 	str	xzr, [sp, #1024]
  4057c0:	54ffffa1 	b.ne	4057b4 <__dcigettext+0x2bc>  // b.any
  4057c4:	92403c00 	and	x0, x0, #0xffff
  4057c8:	cb2063ff 	sub	sp, sp, x0
  4057cc:	f110001f 	cmp	x0, #0x400
  4057d0:	f90003ff 	str	xzr, [sp]
  4057d4:	54000043 	b.cc	4057dc <__dcigettext+0x2e4>  // b.lo, b.ul, b.last
  4057d8:	f90203ff 	str	xzr, [sp, #1024]
  4057dc:	b000029b 	adrp	x27, 456000 <_IO_stdin_used+0x300>
  4057e0:	910043f9 	add	x25, sp, #0x10
  4057e4:	9116637b 	add	x27, x27, #0x598
  4057e8:	90000440 	adrp	x0, 48d000 <__FRAME_END__+0x1034c>
  4057ec:	913bc000 	add	x0, x0, #0xef0
  4057f0:	f9004ba0 	str	x0, [x29, #144]
  4057f4:	d503201f 	nop
  4057f8:	394002e0 	ldrb	w0, [x23]
  4057fc:	7100e81f 	cmp	w0, #0x3a
  405800:	54001460 	b.eq	405a8c <__dcigettext+0x594>  // b.none
  405804:	35001480 	cbnz	w0, 405a94 <__dcigettext+0x59c>
  405808:	52800860 	mov	w0, #0x43                  	// #67
  40580c:	79000320 	strh	w0, [x25]
  405810:	39400320 	ldrb	w0, [x25]
  405814:	71010c1f 	cmp	w0, #0x43
  405818:	54000061 	b.ne	405824 <__dcigettext+0x32c>  // b.any
  40581c:	39400720 	ldrb	w0, [x25, #1]
  405820:	340009c0 	cbz	w0, 405958 <__dcigettext+0x460>
  405824:	aa1b03e1 	mov	x1, x27
  405828:	aa1903e0 	mov	x0, x25
  40582c:	940060a5 	bl	41dac0 <strcmp>
  405830:	34000940 	cbz	w0, 405958 <__dcigettext+0x460>
  405834:	aa1303e3 	mov	x3, x19
  405838:	aa1a03e2 	mov	x2, x26
  40583c:	aa1903e1 	mov	x1, x25
  405840:	aa1803e0 	mov	x0, x24
  405844:	940000ff 	bl	405c40 <_nl_find_domain>
  405848:	aa0003fc 	mov	x28, x0
  40584c:	b4fffd60 	cbz	x0, 4057f8 <__dcigettext+0x300>
  405850:	9103c3a4 	add	x4, x29, #0xf0
  405854:	aa1503e2 	mov	x2, x21
  405858:	aa1303e1 	mov	x1, x19
  40585c:	52800023 	mov	w3, #0x1                   	// #1
  405860:	97fffca4 	bl	404af0 <_nl_find_msg>
  405864:	aa0003e4 	mov	x4, x0
  405868:	b40004a0 	cbz	x0, 4058fc <__dcigettext+0x404>
  40586c:	b100041f 	cmn	x0, #0x1
  405870:	54000740 	b.eq	405958 <__dcigettext+0x460>  // b.none
  405874:	f94077a0 	ldr	x0, [x29, #232]
  405878:	f9005ba4 	str	x4, [x29, #176]
  40587c:	94005b03 	bl	41c488 <__free>
  405880:	a94a93a0 	ldp	x0, x4, [x29, #168]
  405884:	b4001560 	cbz	x0, 405b30 <__dcigettext+0x638>
  405888:	f94057a0 	ldr	x0, [x29, #168]
  40588c:	f0000442 	adrp	x2, 490000 <__abort_msg>
  405890:	f9407ba1 	ldr	x1, [x29, #240]
  405894:	f9400000 	ldr	x0, [x0]
  405898:	b94e8842 	ldr	w2, [x2, #3720]
  40589c:	b9001802 	str	w2, [x0, #24]
  4058a0:	a902101c 	stp	x28, x4, [x0, #32]
  4058a4:	f9001801 	str	x1, [x0, #48]
  4058a8:	a94987a0 	ldp	x0, x1, [x29, #152]
  4058ac:	b940cba2 	ldr	w2, [x29, #200]
  4058b0:	b8216802 	str	w2, [x0, x1]
  4058b4:	b940cfa0 	ldr	w0, [x29, #204]
  4058b8:	350012e0 	cbnz	w0, 405b14 <__dcigettext+0x61c>
  4058bc:	f9406fb3 	ldr	x19, [x29, #216]
  4058c0:	b4000753 	cbz	x19, 4059a8 <__dcigettext+0x4b0>
  4058c4:	f94063a0 	ldr	x0, [x29, #192]
  4058c8:	f9006fa4 	str	x4, [x29, #216]
  4058cc:	9100e000 	add	x0, x0, #0x38
  4058d0:	d503201f 	nop
  4058d4:	f9406fa4 	ldr	x4, [x29, #216]
  4058d8:	b4000693 	cbz	x19, 4059a8 <__dcigettext+0x4b0>
  4058dc:	f0000440 	adrp	x0, 490000 <__abort_msg>
  4058e0:	9115c000 	add	x0, x0, #0x570
  4058e4:	d503201f 	nop
  4058e8:	f9406fa4 	ldr	x4, [x29, #216]
  4058ec:	1400002f 	b	4059a8 <__dcigettext+0x4b0>
  4058f0:	913b0320 	add	x0, x25, #0xec0
  4058f4:	f90063a0 	str	x0, [x29, #192]
  4058f8:	17ffff2a 	b	4055a0 <__dcigettext+0xa8>
  4058fc:	f9401380 	ldr	x0, [x28, #32]
  405900:	b4fff7c0 	cbz	x0, 4057f8 <__dcigettext+0x300>
  405904:	91008381 	add	x1, x28, #0x20
  405908:	d2800006 	mov	x6, #0x0                   	// #0
  40590c:	a9065fb8 	stp	x24, x23, [x29, #96]
  405910:	aa1503f8 	mov	x24, x21
  405914:	aa0603f7 	mov	x23, x6
  405918:	aa1303f5 	mov	x21, x19
  40591c:	aa0103f3 	mov	x19, x1
  405920:	14000005 	b	405934 <__dcigettext+0x43c>
  405924:	b5000d60 	cbnz	x0, 405ad0 <__dcigettext+0x5d8>
  405928:	910006f7 	add	x23, x23, #0x1
  40592c:	f8777a60 	ldr	x0, [x19, x23, lsl #3]
  405930:	b4000da0 	cbz	x0, 405ae4 <__dcigettext+0x5ec>
  405934:	aa1503e1 	mov	x1, x21
  405938:	9103c3a4 	add	x4, x29, #0xf0
  40593c:	aa1803e2 	mov	x2, x24
  405940:	52800023 	mov	w3, #0x1                   	// #1
  405944:	97fffc6b 	bl	404af0 <_nl_find_msg>
  405948:	b100041f 	cmn	x0, #0x1
  40594c:	2a1703e1 	mov	w1, w23
  405950:	54fffea1 	b.ne	405924 <__dcigettext+0x42c>  // b.any
  405954:	aa1803f5 	mov	x21, x24
  405958:	f94077a0 	ldr	x0, [x29, #232]
  40595c:	94005acb 	bl	41c488 <__free>
  405960:	f9406fb3 	ldr	x19, [x29, #216]
  405964:	b4000113 	cbz	x19, 405984 <__dcigettext+0x48c>
  405968:	f94063a0 	ldr	x0, [x29, #192]
  40596c:	9100e000 	add	x0, x0, #0x38
  405970:	d503201f 	nop
  405974:	b4000093 	cbz	x19, 405984 <__dcigettext+0x48c>
  405978:	f0000440 	adrp	x0, 490000 <__abort_msg>
  40597c:	9115c000 	add	x0, x0, #0x570
  405980:	d503201f 	nop
  405984:	a94987a0 	ldp	x0, x1, [x29, #152]
  405988:	b940cba2 	ldr	w2, [x29, #200]
  40598c:	b8216802 	str	w2, [x0, x1]
  405990:	b940cfa0 	ldr	w0, [x29, #204]
  405994:	7100001f 	cmp	w0, #0x0
  405998:	f9405fa0 	ldr	x0, [x29, #184]
  40599c:	fa411804 	ccmp	x0, #0x1, #0x4, ne  // ne = any
  4059a0:	540002a1 	b.ne	4059f4 <__dcigettext+0x4fc>  // b.any
  4059a4:	aa1503e4 	mov	x4, x21
  4059a8:	f9406ba0 	ldr	x0, [x29, #208]
  4059ac:	f9409fa1 	ldr	x1, [x29, #312]
  4059b0:	f9400002 	ldr	x2, [x0]
  4059b4:	eb020021 	subs	x1, x1, x2
  4059b8:	d2800002 	mov	x2, #0x0                   	// #0
  4059bc:	540013e1 	b.ne	405c38 <__dcigettext+0x740>  // b.any
  4059c0:	910003bf 	mov	sp, x29
  4059c4:	aa0403e0 	mov	x0, x4
  4059c8:	a94153f3 	ldp	x19, x20, [sp, #16]
  4059cc:	a9425bf5 	ldp	x21, x22, [sp, #32]
  4059d0:	a94363f7 	ldp	x23, x24, [sp, #48]
  4059d4:	a9446bf9 	ldp	x25, x26, [sp, #64]
  4059d8:	a94573fb 	ldp	x27, x28, [sp, #80]
  4059dc:	a8d47bfd 	ldp	x29, x30, [sp], #320
  4059e0:	d65f03c0 	ret
  4059e4:	2a0303e0 	mov	w0, w3
  4059e8:	7100001f 	cmp	w0, #0x0
  4059ec:	fa411884 	ccmp	x4, #0x1, #0x4, ne  // ne = any
  4059f0:	54fffda0 	b.eq	4059a4 <__dcigettext+0x4ac>  // b.none
  4059f4:	f9405ba4 	ldr	x4, [x29, #176]
  4059f8:	17ffffec 	b	4059a8 <__dcigettext+0x4b0>
  4059fc:	b0000280 	adrp	x0, 456000 <_IO_stdin_used+0x300>
  405a00:	91162000 	add	x0, x0, #0x588
  405a04:	94000e4b 	bl	409330 <getenv>
  405a08:	b4ffe780 	cbz	x0, 4056f8 <__dcigettext+0x200>
  405a0c:	39400001 	ldrb	w1, [x0]
  405a10:	7100003f 	cmp	w1, #0x0
  405a14:	9a8002f7 	csel	x23, x23, x0, eq  // eq = none
  405a18:	17ffff38 	b	4056f8 <__dcigettext+0x200>
  405a1c:	b0000298 	adrp	x24, 456000 <_IO_stdin_used+0x300>
  405a20:	91168318 	add	x24, x24, #0x5a0
  405a24:	17ffff27 	b	4056c0 <__dcigettext+0x1c8>
  405a28:	b0000298 	adrp	x24, 456000 <_IO_stdin_used+0x300>
  405a2c:	d2800013 	mov	x19, #0x0                   	// #0
  405a30:	91168318 	add	x24, x24, #0x5a0
  405a34:	17ffff23 	b	4056c0 <__dcigettext+0x1c8>
  405a38:	b940cfa1 	ldr	w1, [x29, #204]
  405a3c:	f9401404 	ldr	x4, [x0, #40]
  405a40:	350005a1 	cbnz	w1, 405af4 <__dcigettext+0x5fc>
  405a44:	f9406fb3 	ldr	x19, [x29, #216]
  405a48:	b4000173 	cbz	x19, 405a74 <__dcigettext+0x57c>
  405a4c:	f94063a0 	ldr	x0, [x29, #192]
  405a50:	f9006fa4 	str	x4, [x29, #216]
  405a54:	9100e000 	add	x0, x0, #0x38
  405a58:	d503201f 	nop
  405a5c:	f9406fa4 	ldr	x4, [x29, #216]
  405a60:	b40000b3 	cbz	x19, 405a74 <__dcigettext+0x57c>
  405a64:	f0000440 	adrp	x0, 490000 <__abort_msg>
  405a68:	9115c000 	add	x0, x0, #0x570
  405a6c:	d503201f 	nop
  405a70:	f9406fa4 	ldr	x4, [x29, #216]
  405a74:	a94987a0 	ldp	x0, x1, [x29, #152]
  405a78:	b940cba2 	ldr	w2, [x29, #200]
  405a7c:	b8216802 	str	w2, [x0, x1]
  405a80:	17ffffca 	b	4059a8 <__dcigettext+0x4b0>
  405a84:	d2800004 	mov	x4, #0x0                   	// #0
  405a88:	17ffffc8 	b	4059a8 <__dcigettext+0x4b0>
  405a8c:	910006f7 	add	x23, x23, #0x1
  405a90:	17ffff5a 	b	4057f8 <__dcigettext+0x300>
  405a94:	aa1903e1 	mov	x1, x25
  405a98:	38001420 	strb	w0, [x1], #1
  405a9c:	38401ee0 	ldrb	w0, [x23, #1]!
  405aa0:	7100e81f 	cmp	w0, #0x3a
  405aa4:	7a401804 	ccmp	w0, #0x0, #0x4, ne  // ne = any
  405aa8:	54ffff81 	b.ne	405a98 <__dcigettext+0x5a0>  // b.any
  405aac:	f9404ba0 	ldr	x0, [x29, #144]
  405ab0:	3900003f 	strb	wzr, [x1]
  405ab4:	b9400000 	ldr	w0, [x0]
  405ab8:	34ffeac0 	cbz	w0, 405810 <__dcigettext+0x318>
  405abc:	aa1903e0 	mov	x0, x25
  405ac0:	528005e1 	mov	w1, #0x2f                  	// #47
  405ac4:	94005fbb 	bl	41d9b0 <strchr>
  405ac8:	b5ffe980 	cbnz	x0, 4057f8 <__dcigettext+0x300>
  405acc:	17ffff51 	b	405810 <__dcigettext+0x318>
  405ad0:	8b21cf81 	add	x1, x28, w1, sxtw #3
  405ad4:	aa0003e4 	mov	x4, x0
  405ad8:	aa1803f5 	mov	x21, x24
  405adc:	f940103c 	ldr	x28, [x1, #32]
  405ae0:	17ffff65 	b	405874 <__dcigettext+0x37c>
  405ae4:	aa1503f3 	mov	x19, x21
  405ae8:	aa1803f5 	mov	x21, x24
  405aec:	a9465fb8 	ldp	x24, x23, [x29, #96]
  405af0:	17ffff42 	b	4057f8 <__dcigettext+0x300>
  405af4:	f9401005 	ldr	x5, [x0, #32]
  405af8:	aa0403e2 	mov	x2, x4
  405afc:	f9401803 	ldr	x3, [x0, #48]
  405b00:	f94008a0 	ldr	x0, [x5, #16]
  405b04:	f9405fa1 	ldr	x1, [x29, #184]
  405b08:	97fffbda 	bl	404a70 <plural_lookup.isra.0>
  405b0c:	aa0003e4 	mov	x4, x0
  405b10:	17ffffcd 	b	405a44 <__dcigettext+0x54c>
  405b14:	f9400b80 	ldr	x0, [x28, #16]
  405b18:	aa0403e2 	mov	x2, x4
  405b1c:	f9405fa1 	ldr	x1, [x29, #184]
  405b20:	f9407ba3 	ldr	x3, [x29, #240]
  405b24:	97fffbd3 	bl	404a70 <plural_lookup.isra.0>
  405b28:	aa0003e4 	mov	x4, x0
  405b2c:	17ffff64 	b	4058bc <__dcigettext+0x3c4>
  405b30:	aa1503e0 	mov	x0, x21
  405b34:	97ffe9f3 	bl	400300 <.plt+0x60>
  405b38:	f94047b7 	ldr	x23, [x29, #136]
  405b3c:	91000413 	add	x19, x0, #0x1
  405b40:	aa1703e0 	mov	x0, x23
  405b44:	97ffe9ef 	bl	400300 <.plt+0x60>
  405b48:	f9403ba1 	ldr	x1, [x29, #112]
  405b4c:	8b130000 	add	x0, x0, x19
  405b50:	8b010000 	add	x0, x0, x1
  405b54:	940058d5 	bl	41bea8 <__libc_malloc>
  405b58:	aa0003f8 	mov	x24, x0
  405b5c:	f9405ba4 	ldr	x4, [x29, #176]
  405b60:	b4ffea40 	cbz	x0, 4058a8 <__dcigettext+0x3b0>
  405b64:	f9403fa0 	ldr	x0, [x29, #120]
  405b68:	aa1303e2 	mov	x2, x19
  405b6c:	aa1503e1 	mov	x1, x21
  405b70:	91000413 	add	x19, x0, #0x1
  405b74:	9100e300 	add	x0, x24, #0x38
  405b78:	940064c8 	bl	41ee98 <__mempcpy>
  405b7c:	aa0003f5 	mov	x21, x0
  405b80:	aa1303e2 	mov	x2, x19
  405b84:	aa1403e1 	mov	x1, x20
  405b88:	8b130013 	add	x19, x0, x19
  405b8c:	97ffe9c9 	bl	4002b0 <.plt+0x10>
  405b90:	aa1703e1 	mov	x1, x23
  405b94:	aa1303e0 	mov	x0, x19
  405b98:	9400600a 	bl	41dbc0 <strcpy>
  405b9c:	f9000315 	str	x21, [x24]
  405ba0:	b0000280 	adrp	x0, 456000 <_IO_stdin_used+0x300>
  405ba4:	f0000441 	adrp	x1, 490000 <__abort_msg>
  405ba8:	f9405ba4 	ldr	x4, [x29, #176]
  405bac:	b9000b16 	str	w22, [x24, #8]
  405bb0:	f942e800 	ldr	x0, [x0, #1488]
  405bb4:	f9000b13 	str	x19, [x24, #16]
  405bb8:	b94e8822 	ldr	w2, [x1, #3720]
  405bbc:	f9407ba1 	ldr	x1, [x29, #240]
  405bc0:	b9001b02 	str	w2, [x24, #24]
  405bc4:	a902131c 	stp	x28, x4, [x24, #32]
  405bc8:	f9001b01 	str	x1, [x24, #48]
  405bcc:	b40000a0 	cbz	x0, 405be0 <__dcigettext+0x6e8>
  405bd0:	f94063a0 	ldr	x0, [x29, #192]
  405bd4:	9101c000 	add	x0, x0, #0x70
  405bd8:	d503201f 	nop
  405bdc:	f9405ba4 	ldr	x4, [x29, #176]
  405be0:	aa1803e0 	mov	x0, x24
  405be4:	f94043a2 	ldr	x2, [x29, #128]
  405be8:	f9005ba4 	str	x4, [x29, #176]
  405bec:	f94063b4 	ldr	x20, [x29, #192]
  405bf0:	aa1403e1 	mov	x1, x20
  405bf4:	940074c5 	bl	422f08 <__tsearch>
  405bf8:	aa0003f3 	mov	x19, x0
  405bfc:	f9406fa0 	ldr	x0, [x29, #216]
  405c00:	f9405ba4 	ldr	x4, [x29, #176]
  405c04:	b4000080 	cbz	x0, 405c14 <__dcigettext+0x71c>
  405c08:	9101c280 	add	x0, x20, #0x70
  405c0c:	d503201f 	nop
  405c10:	f9405ba4 	ldr	x4, [x29, #176]
  405c14:	b4000093 	cbz	x19, 405c24 <__dcigettext+0x72c>
  405c18:	f9400260 	ldr	x0, [x19]
  405c1c:	eb18001f 	cmp	x0, x24
  405c20:	54ffe440 	b.eq	4058a8 <__dcigettext+0x3b0>  // b.none
  405c24:	aa1803e0 	mov	x0, x24
  405c28:	f9005ba4 	str	x4, [x29, #176]
  405c2c:	94005a17 	bl	41c488 <__free>
  405c30:	f9405ba4 	ldr	x4, [x29, #176]
  405c34:	17ffff1d 	b	4058a8 <__dcigettext+0x3b0>
  405c38:	9400794a 	bl	424160 <__stack_chk_fail>
  405c3c:	d503201f 	nop

0000000000405c40 <_nl_find_domain>:
  405c40:	d102c3ff 	sub	sp, sp, #0xb0
  405c44:	b0000284 	adrp	x4, 456000 <_IO_stdin_used+0x300>
  405c48:	a9027bfd 	stp	x29, x30, [sp, #32]
  405c4c:	910083fd 	add	x29, sp, #0x20
  405c50:	f942f084 	ldr	x4, [x4, #1504]
  405c54:	a9045bf5 	stp	x21, x22, [sp, #64]
  405c58:	90000455 	adrp	x21, 48d000 <__FRAME_END__+0x1034c>
  405c5c:	912682b5 	add	x21, x21, #0x9a0
  405c60:	a90353f3 	stp	x19, x20, [sp, #48]
  405c64:	f94002a5 	ldr	x5, [x21]
  405c68:	f90057e5 	str	x5, [sp, #168]
  405c6c:	d2800005 	mov	x5, #0x0                   	// #0
  405c70:	a90563f7 	stp	x23, x24, [sp, #80]
  405c74:	aa0303f6 	mov	x22, x3
  405c78:	d0000457 	adrp	x23, 48f000 <__progname_full>
  405c7c:	a9066bf9 	stp	x25, x26, [sp, #96]
  405c80:	aa0003f8 	mov	x24, x0
  405c84:	aa0103f9 	mov	x25, x1
  405c88:	aa0203fa 	mov	x26, x2
  405c8c:	913da2f7 	add	x23, x23, #0xf68
  405c90:	b4000064 	cbz	x4, 405c9c <_nl_find_domain+0x5c>
  405c94:	aa1703e0 	mov	x0, x23
  405c98:	d503201f 	nop
  405c9c:	aa1803e0 	mov	x0, x24
  405ca0:	97ffe998 	bl	400300 <.plt+0x60>
  405ca4:	a9006bff 	stp	xzr, x26, [sp]
  405ca8:	91000402 	add	x2, x0, #0x1
  405cac:	52800003 	mov	w3, #0x0                   	// #0
  405cb0:	b90013ff 	str	wzr, [sp, #16]
  405cb4:	aa1903e4 	mov	x4, x25
  405cb8:	aa1803e1 	mov	x1, x24
  405cbc:	9100e2e0 	add	x0, x23, #0x38
  405cc0:	d2800007 	mov	x7, #0x0                   	// #0
  405cc4:	d2800006 	mov	x6, #0x0                   	// #0
  405cc8:	d2800005 	mov	x5, #0x0                   	// #0
  405ccc:	940006af 	bl	407788 <_nl_make_l10nflist>
  405cd0:	b0000283 	adrp	x3, 456000 <_IO_stdin_used+0x300>
  405cd4:	aa0003f3 	mov	x19, x0
  405cd8:	f942f474 	ldr	x20, [x3, #1512]
  405cdc:	b4000074 	cbz	x20, 405ce8 <_nl_find_domain+0xa8>
  405ce0:	aa1703e0 	mov	x0, x23
  405ce4:	d503201f 	nop
  405ce8:	b40004d3 	cbz	x19, 405d80 <_nl_find_domain+0x140>
  405cec:	b9400a60 	ldr	w0, [x19, #8]
  405cf0:	7100001f 	cmp	w0, #0x0
  405cf4:	540003ed 	b.le	405d70 <_nl_find_domain+0x130>
  405cf8:	f9400a60 	ldr	x0, [x19, #16]
  405cfc:	b40001c0 	cbz	x0, 405d34 <_nl_find_domain+0xf4>
  405d00:	f94057e0 	ldr	x0, [sp, #168]
  405d04:	f94002a1 	ldr	x1, [x21]
  405d08:	eb010000 	subs	x0, x0, x1
  405d0c:	d2800001 	mov	x1, #0x0                   	// #0
  405d10:	54000da1 	b.ne	405ec4 <_nl_find_domain+0x284>  // b.any
  405d14:	aa1303e0 	mov	x0, x19
  405d18:	a9427bfd 	ldp	x29, x30, [sp, #32]
  405d1c:	a94353f3 	ldp	x19, x20, [sp, #48]
  405d20:	a9445bf5 	ldp	x21, x22, [sp, #64]
  405d24:	a94563f7 	ldp	x23, x24, [sp, #80]
  405d28:	a9466bf9 	ldp	x25, x26, [sp, #96]
  405d2c:	9102c3ff 	add	sp, sp, #0xb0
  405d30:	d65f03c0 	ret
  405d34:	f9401260 	ldr	x0, [x19, #32]
  405d38:	b4fffe40 	cbz	x0, 405d00 <_nl_find_domain+0xc0>
  405d3c:	91008274 	add	x20, x19, #0x20
  405d40:	14000006 	b	405d58 <_nl_find_domain+0x118>
  405d44:	f9400280 	ldr	x0, [x20]
  405d48:	f9400800 	ldr	x0, [x0, #16]
  405d4c:	b5fffda0 	cbnz	x0, 405d00 <_nl_find_domain+0xc0>
  405d50:	f8408e80 	ldr	x0, [x20, #8]!
  405d54:	b4fffd60 	cbz	x0, 405d00 <_nl_find_domain+0xc0>
  405d58:	b9400801 	ldr	w1, [x0, #8]
  405d5c:	7100003f 	cmp	w1, #0x0
  405d60:	54ffff2c 	b.gt	405d44 <_nl_find_domain+0x104>
  405d64:	aa1603e1 	mov	x1, x22
  405d68:	9400005a 	bl	405ed0 <_nl_load_domain>
  405d6c:	17fffff6 	b	405d44 <_nl_find_domain+0x104>
  405d70:	aa1603e1 	mov	x1, x22
  405d74:	aa1303e0 	mov	x0, x19
  405d78:	94000056 	bl	405ed0 <_nl_load_domain>
  405d7c:	17ffffdf 	b	405cf8 <_nl_find_domain+0xb8>
  405d80:	aa1903e0 	mov	x0, x25
  405d84:	a90773fb 	stp	x27, x28, [sp, #112]
  405d88:	94000608 	bl	4075a8 <_nl_expand_alias>
  405d8c:	aa0003fc 	mov	x28, x0
  405d90:	b4000140 	cbz	x0, 405db8 <_nl_find_domain+0x178>
  405d94:	97ffe95b 	bl	400300 <.plt+0x60>
  405d98:	9100041b 	add	x27, x0, #0x1
  405d9c:	aa1b03e0 	mov	x0, x27
  405da0:	94005842 	bl	41bea8 <__libc_malloc>
  405da4:	aa0003f9 	mov	x25, x0
  405da8:	b40005c0 	cbz	x0, 405e60 <_nl_find_domain+0x220>
  405dac:	aa1b03e2 	mov	x2, x27
  405db0:	aa1c03e1 	mov	x1, x28
  405db4:	97ffe93f 	bl	4002b0 <.plt+0x10>
  405db8:	910283e5 	add	x5, sp, #0xa0
  405dbc:	910263e4 	add	x4, sp, #0x98
  405dc0:	910243e3 	add	x3, sp, #0x90
  405dc4:	910223e2 	add	x2, sp, #0x88
  405dc8:	910203e1 	add	x1, sp, #0x80
  405dcc:	aa1903e0 	mov	x0, x25
  405dd0:	9400081a 	bl	407e38 <_nl_explode_name>
  405dd4:	2a0003fb 	mov	w27, w0
  405dd8:	3100041f 	cmn	w0, #0x1
  405ddc:	54000420 	b.eq	405e60 <_nl_find_domain+0x220>  // b.none
  405de0:	b0000280 	adrp	x0, 456000 <_IO_stdin_used+0x300>
  405de4:	f942f800 	ldr	x0, [x0, #1520]
  405de8:	b4000060 	cbz	x0, 405df4 <_nl_find_domain+0x1b4>
  405dec:	aa1703e0 	mov	x0, x23
  405df0:	d503201f 	nop
  405df4:	aa1803e0 	mov	x0, x24
  405df8:	97ffe942 	bl	400300 <.plt+0x60>
  405dfc:	91000402 	add	x2, x0, #0x1
  405e00:	52800021 	mov	w1, #0x1                   	// #1
  405e04:	a94803e4 	ldp	x4, x0, [sp, #128]
  405e08:	a9006be0 	stp	x0, x26, [sp]
  405e0c:	2a1b03e3 	mov	w3, w27
  405e10:	a9491be5 	ldp	x5, x6, [sp, #144]
  405e14:	b90013e1 	str	w1, [sp, #16]
  405e18:	f94053e7 	ldr	x7, [sp, #160]
  405e1c:	aa1803e1 	mov	x1, x24
  405e20:	9100e2e0 	add	x0, x23, #0x38
  405e24:	94000659 	bl	407788 <_nl_make_l10nflist>
  405e28:	aa0003f3 	mov	x19, x0
  405e2c:	b4000074 	cbz	x20, 405e38 <_nl_find_domain+0x1f8>
  405e30:	aa1703e0 	mov	x0, x23
  405e34:	d503201f 	nop
  405e38:	b4000133 	cbz	x19, 405e5c <_nl_find_domain+0x21c>
  405e3c:	b9400a60 	ldr	w0, [x19, #8]
  405e40:	7100001f 	cmp	w0, #0x0
  405e44:	5400038d 	b.le	405eb4 <_nl_find_domain+0x274>
  405e48:	f9400a60 	ldr	x0, [x19, #16]
  405e4c:	b4000160 	cbz	x0, 405e78 <_nl_find_domain+0x238>
  405e50:	b400007c 	cbz	x28, 405e5c <_nl_find_domain+0x21c>
  405e54:	aa1903e0 	mov	x0, x25
  405e58:	9400598c 	bl	41c488 <__free>
  405e5c:	3700007b 	tbnz	w27, #0, 405e68 <_nl_find_domain+0x228>
  405e60:	a94773fb 	ldp	x27, x28, [sp, #112]
  405e64:	17ffffa7 	b	405d00 <_nl_find_domain+0xc0>
  405e68:	f94053e0 	ldr	x0, [sp, #160]
  405e6c:	94005987 	bl	41c488 <__free>
  405e70:	a94773fb 	ldp	x27, x28, [sp, #112]
  405e74:	17ffffa3 	b	405d00 <_nl_find_domain+0xc0>
  405e78:	f9401260 	ldr	x0, [x19, #32]
  405e7c:	b4fffea0 	cbz	x0, 405e50 <_nl_find_domain+0x210>
  405e80:	91008274 	add	x20, x19, #0x20
  405e84:	14000006 	b	405e9c <_nl_find_domain+0x25c>
  405e88:	f9400280 	ldr	x0, [x20]
  405e8c:	f9400800 	ldr	x0, [x0, #16]
  405e90:	b5fffe00 	cbnz	x0, 405e50 <_nl_find_domain+0x210>
  405e94:	f8408e80 	ldr	x0, [x20, #8]!
  405e98:	b4fffdc0 	cbz	x0, 405e50 <_nl_find_domain+0x210>
  405e9c:	b9400801 	ldr	w1, [x0, #8]
  405ea0:	7100003f 	cmp	w1, #0x0
  405ea4:	54ffff2c 	b.gt	405e88 <_nl_find_domain+0x248>
  405ea8:	aa1603e1 	mov	x1, x22
  405eac:	94000009 	bl	405ed0 <_nl_load_domain>
  405eb0:	17fffff6 	b	405e88 <_nl_find_domain+0x248>
  405eb4:	aa1603e1 	mov	x1, x22
  405eb8:	aa1303e0 	mov	x0, x19
  405ebc:	94000005 	bl	405ed0 <_nl_load_domain>
  405ec0:	17ffffe2 	b	405e48 <_nl_find_domain+0x208>
  405ec4:	a90773fb 	stp	x27, x28, [sp, #112]
  405ec8:	940078a6 	bl	424160 <__stack_chk_fail>
  405ecc:	d503201f 	nop

0000000000405ed0 <_nl_load_domain>:
  405ed0:	a9a67bfd 	stp	x29, x30, [sp, #-416]!
  405ed4:	d0000446 	adrp	x6, 48f000 <__progname_full>
  405ed8:	90000442 	adrp	x2, 48d000 <__FRAME_END__+0x1034c>
  405edc:	910003fd 	mov	x29, sp
  405ee0:	a90573fb 	stp	x27, x28, [sp, #80]
  405ee4:	913ea0db 	add	x27, x6, #0xfa8
  405ee8:	a9046bf9 	stp	x25, x26, [sp, #64]
  405eec:	9126805a 	add	x26, x2, #0x9a0
  405ef0:	f9400342 	ldr	x2, [x26]
  405ef4:	f900cfe2 	str	x2, [sp, #408]
  405ef8:	d2800002 	mov	x2, #0x0                   	// #0
  405efc:	f9400762 	ldr	x2, [x27, #8]
  405f00:	a90153f3 	stp	x19, x20, [sp, #16]
  405f04:	d53bd054 	mrs	x20, tpidr_el0
  405f08:	a9025bf5 	stp	x21, x22, [sp, #32]
  405f0c:	d11c0293 	sub	x19, x20, #0x700
  405f10:	aa0003f6 	mov	x22, x0
  405f14:	a90363f7 	stp	x23, x24, [sp, #48]
  405f18:	eb13005f 	cmp	x2, x19
  405f1c:	aa0103f7 	mov	x23, x1
  405f20:	54000120 	b.eq	405f44 <_nl_load_domain+0x74>  // b.none
  405f24:	52800020 	mov	w0, #0x1                   	// #1
  405f28:	885fff61 	ldaxr	w1, [x27]
  405f2c:	35000061 	cbnz	w1, 405f38 <_nl_load_domain+0x68>
  405f30:	88027f60 	stxr	w2, w0, [x27]
  405f34:	35ffffa2 	cbnz	w2, 405f28 <_nl_load_domain+0x58>
  405f38:	7100003f 	cmp	w1, #0x0
  405f3c:	540012e1 	b.ne	406198 <_nl_load_domain+0x2c8>  // b.any
  405f40:	f9000773 	str	x19, [x27, #8]
  405f44:	b9400761 	ldr	w1, [x27, #4]
  405f48:	b9400ac0 	ldr	w0, [x22, #8]
  405f4c:	11000422 	add	w2, w1, #0x1
  405f50:	b9000762 	str	w2, [x27, #4]
  405f54:	35000d60 	cbnz	w0, 406100 <_nl_load_domain+0x230>
  405f58:	f94002c0 	ldr	x0, [x22]
  405f5c:	12800002 	mov	w2, #0xffffffff            	// #-1
  405f60:	b9000ac2 	str	w2, [x22, #8]
  405f64:	f9000adf 	str	xzr, [x22, #16]
  405f68:	b4000c80 	cbz	x0, 4060f8 <_nl_load_domain+0x228>
  405f6c:	52800001 	mov	w1, #0x0                   	// #0
  405f70:	940071fc 	bl	422760 <__open64_nocancel>
  405f74:	2a0003f3 	mov	w19, w0
  405f78:	3100041f 	cmn	w0, #0x1
  405f7c:	54000ee0 	b.eq	406158 <_nl_load_domain+0x288>  // b.none
  405f80:	2a0003e1 	mov	w1, w0
  405f84:	910463e2 	add	x2, sp, #0x118
  405f88:	52800000 	mov	w0, #0x0                   	// #0
  405f8c:	94006f33 	bl	421c58 <__fxstat>
  405f90:	b90067e0 	str	w0, [sp, #100]
  405f94:	35000de0 	cbnz	w0, 406150 <_nl_load_domain+0x280>
  405f98:	f940a7f9 	ldr	x25, [sp, #328]
  405f9c:	f100bf3f 	cmp	x25, #0x2f
  405fa0:	54000d89 	b.ls	406150 <_nl_load_domain+0x280>  // b.plast
  405fa4:	2a1303e4 	mov	w4, w19
  405fa8:	aa1903e1 	mov	x1, x25
  405fac:	d2800005 	mov	x5, #0x0                   	// #0
  405fb0:	52800043 	mov	w3, #0x2                   	// #2
  405fb4:	52800022 	mov	w2, #0x1                   	// #1
  405fb8:	d2800000 	mov	x0, #0x0                   	// #0
  405fbc:	940072c9 	bl	422ae0 <__mmap64>
  405fc0:	aa0003fc 	mov	x28, x0
  405fc4:	b100041f 	cmn	x0, #0x1
  405fc8:	54002da0 	b.eq	40657c <_nl_load_domain+0x6ac>  // b.none
  405fcc:	2a1303e0 	mov	w0, w19
  405fd0:	9400718c 	bl	422600 <__close_nocancel>
  405fd4:	b9400398 	ldr	w24, [x28]
  405fd8:	52825bc1 	mov	w1, #0x12de                	// #4830
  405fdc:	72b2a081 	movk	w1, #0x9504, lsl #16
  405fe0:	528092a0 	mov	w0, #0x495                 	// #1173
  405fe4:	6b01031f 	cmp	w24, w1
  405fe8:	72bbc240 	movk	w0, #0xde12, lsl #16
  405fec:	1a9f07f3 	cset	w19, ne  // ne = any
  405ff0:	7100027f 	cmp	w19, #0x0
  405ff4:	7a401304 	ccmp	w24, w0, #0x4, ne  // ne = any
  405ff8:	54002561 	b.ne	4064a4 <_nl_load_domain+0x5d4>  // b.any
  405ffc:	52800020 	mov	w0, #0x1                   	// #1
  406000:	b90067e0 	str	w0, [sp, #100]
  406004:	d2801900 	mov	x0, #0xc8                  	// #200
  406008:	940057a8 	bl	41bea8 <__libc_malloc>
  40600c:	aa0003f5 	mov	x21, x0
  406010:	b4000a40 	cbz	x0, 406158 <_nl_load_domain+0x288>
  406014:	52825bc0 	mov	w0, #0x12de                	// #4830
  406018:	b94067e1 	ldr	w1, [sp, #100]
  40601c:	72b2a080 	movk	w0, #0x9504, lsl #16
  406020:	6b00031f 	cmp	w24, w0
  406024:	b9400780 	ldr	w0, [x28, #4]
  406028:	f90002bc 	str	x28, [x21]
  40602c:	b9000aa1 	str	w1, [x21, #8]
  406030:	f9000ab9 	str	x25, [x21, #16]
  406034:	f9000ad5 	str	x21, [x22, #16]
  406038:	b9001ab3 	str	w19, [x21, #24]
  40603c:	f90012bf 	str	xzr, [x21, #32]
  406040:	54000ca0 	b.eq	4061d4 <_nl_load_domain+0x304>  // b.none
  406044:	5ac00800 	rev	w0, w0
  406048:	13107c01 	asr	w1, w0, #16
  40604c:	7100043f 	cmp	w1, #0x1
  406050:	54000aa8 	b.hi	4061a4 <_nl_load_domain+0x2d4>  // b.pmore
  406054:	29410b84 	ldp	w4, w2, [x28, #8]
  406058:	12003c00 	and	w0, w0, #0xffff
  40605c:	29422781 	ldp	w1, w9, [x28, #16]
  406060:	5ac00842 	rev	w2, w2
  406064:	8b020382 	add	x2, x28, x2
