
coremark.exe:     file format elf64-littleaarch64


Disassembly of section .init:

0000000000400280 <_init>:
  400280:	a9bf7bfd 	stp	x29, x30, [sp, #-16]!
  400284:	910003fd 	mov	x29, sp
  400288:	940002f6 	bl	400e60 <call_weak_fn>
  40028c:	a8c17bfd 	ldp	x29, x30, [sp], #16
  400290:	d65f03c0 	ret

Disassembly of section .plt:

00000000004002a0 <.plt>:
  4002a0:	90000470 	adrp	x16, 48c000 <_GLOBAL_OFFSET_TABLE_+0xc8>
  4002a4:	f9400211 	ldr	x17, [x16]
  4002a8:	91000210 	add	x16, x16, #0x0
  4002ac:	d61f0220 	br	x17
  4002b0:	90000470 	adrp	x16, 48c000 <_GLOBAL_OFFSET_TABLE_+0xc8>
  4002b4:	f9400611 	ldr	x17, [x16, #8]
  4002b8:	91002210 	add	x16, x16, #0x8
  4002bc:	d61f0220 	br	x17
  4002c0:	90000470 	adrp	x16, 48c000 <_GLOBAL_OFFSET_TABLE_+0xc8>
  4002c4:	f9400a11 	ldr	x17, [x16, #16]
  4002c8:	91004210 	add	x16, x16, #0x10
  4002cc:	d61f0220 	br	x17
  4002d0:	90000470 	adrp	x16, 48c000 <_GLOBAL_OFFSET_TABLE_+0xc8>
  4002d4:	f9400e11 	ldr	x17, [x16, #24]
  4002d8:	91006210 	add	x16, x16, #0x18
  4002dc:	d61f0220 	br	x17
  4002e0:	90000470 	adrp	x16, 48c000 <_GLOBAL_OFFSET_TABLE_+0xc8>
  4002e4:	f9401211 	ldr	x17, [x16, #32]
  4002e8:	91008210 	add	x16, x16, #0x20
  4002ec:	d61f0220 	br	x17
  4002f0:	90000470 	adrp	x16, 48c000 <_GLOBAL_OFFSET_TABLE_+0xc8>
  4002f4:	f9401611 	ldr	x17, [x16, #40]
  4002f8:	9100a210 	add	x16, x16, #0x28
  4002fc:	d61f0220 	br	x17
  400300:	90000470 	adrp	x16, 48c000 <_GLOBAL_OFFSET_TABLE_+0xc8>
  400304:	f9401a11 	ldr	x17, [x16, #48]
  400308:	9100c210 	add	x16, x16, #0x30
  40030c:	d61f0220 	br	x17

Disassembly of section .text:

0000000000400340 <abort>:
  400340:	a9ac7bfd 	stp	x29, x30, [sp, #-320]!
  400344:	f0000440 	adrp	x0, 48b000 <__FRAME_END__+0xf85c>
  400348:	91268000 	add	x0, x0, #0x9a0
  40034c:	910003fd 	mov	x29, sp
  400350:	a90153f3 	stp	x19, x20, [sp, #16]
  400354:	b0000473 	adrp	x19, 48d000 <_dl_main_map+0xa0>
  400358:	913ce273 	add	x19, x19, #0xf38
  40035c:	f9400001 	ldr	x1, [x0]
  400360:	f9009fe1 	str	x1, [sp, #312]
  400364:	d2800001 	mov	x1, #0x0                   	// #0
  400368:	d53bd054 	mrs	x20, tpidr_el0
  40036c:	d11c0294 	sub	x20, x20, #0x700
  400370:	f9400660 	ldr	x0, [x19, #8]
  400374:	eb14001f 	cmp	x0, x20
  400378:	54000160 	b.eq	4003a4 <abort+0x64>  // b.none
  40037c:	52800020 	mov	w0, #0x1                   	// #1
  400380:	885ffe61 	ldaxr	w1, [x19]
  400384:	35000061 	cbnz	w1, 400390 <abort+0x50>
  400388:	88027e60 	stxr	w2, w0, [x19]
  40038c:	35ffffa2 	cbnz	w2, 400380 <abort+0x40>
  400390:	7100003f 	cmp	w1, #0x0
  400394:	54000060 	b.eq	4003a0 <abort+0x60>  // b.none
  400398:	aa1303e0 	mov	x0, x19
  40039c:	9400417d 	bl	410990 <__lll_lock_wait_private>
  4003a0:	f9000674 	str	x20, [x19, #8]
  4003a4:	b9400660 	ldr	w0, [x19, #4]
  4003a8:	b9401261 	ldr	w1, [x19, #16]
  4003ac:	11000400 	add	w0, w0, #0x1
  4003b0:	b9000660 	str	w0, [x19, #4]
  4003b4:	35000201 	cbnz	w1, 4003f4 <abort+0xb4>
  4003b8:	910083e1 	add	x1, sp, #0x20
  4003bc:	52800022 	mov	w2, #0x1                   	// #1
  4003c0:	d2800200 	mov	x0, #0x10                  	// #16
  4003c4:	b9001262 	str	w2, [x19, #16]
  4003c8:	d1000400 	sub	x0, x0, #0x1
  4003cc:	b100041f 	cmn	x0, #0x1
  4003d0:	54000060 	b.eq	4003dc <abort+0x9c>  // b.none
  4003d4:	f820783f 	str	xzr, [x1, x0, lsl #3]
  4003d8:	17fffffc 	b	4003c8 <abort+0x88>
  4003dc:	f94013e3 	ldr	x3, [sp, #32]
  4003e0:	d2800002 	mov	x2, #0x0                   	// #0
  4003e4:	52800020 	mov	w0, #0x1                   	// #1
  4003e8:	b27b0063 	orr	x3, x3, #0x20
  4003ec:	f90013e3 	str	x3, [sp, #32]
  4003f0:	94001cde 	bl	407768 <__sigprocmask>
  4003f4:	b9401260 	ldr	w0, [x19, #16]
  4003f8:	7100041f 	cmp	w0, #0x1
  4003fc:	540004a1 	b.ne	400490 <abort+0x150>  // b.any
  400400:	b9400660 	ldr	w0, [x19, #4]
  400404:	b900127f 	str	wzr, [x19, #16]
  400408:	51000400 	sub	w0, w0, #0x1
  40040c:	b9000660 	str	w0, [x19, #4]
  400410:	350001a0 	cbnz	w0, 400444 <abort+0x104>
  400414:	f900067f 	str	xzr, [x19, #8]
  400418:	885f7e60 	ldxr	w0, [x19]
  40041c:	8801fe7f 	stlxr	w1, wzr, [x19]
  400420:	35ffffc1 	cbnz	w1, 400418 <abort+0xd8>
  400424:	7100041f 	cmp	w0, #0x1
  400428:	540000ed 	b.le	400444 <abort+0x104>
  40042c:	aa1303e0 	mov	x0, x19
  400430:	d2801021 	mov	x1, #0x81                  	// #129
  400434:	d2800022 	mov	x2, #0x1                   	// #1
  400438:	d2800003 	mov	x3, #0x0                   	// #0
  40043c:	d2800c48 	mov	x8, #0x62                  	// #98
  400440:	d4000001 	svc	#0x0
  400444:	528000c0 	mov	w0, #0x6                   	// #6
  400448:	94001c80 	bl	407648 <raise>
  40044c:	f9400660 	ldr	x0, [x19, #8]
  400450:	eb14001f 	cmp	x0, x20
  400454:	54000160 	b.eq	400480 <abort+0x140>  // b.none
  400458:	52800020 	mov	w0, #0x1                   	// #1
  40045c:	885ffe61 	ldaxr	w1, [x19]
  400460:	35000061 	cbnz	w1, 40046c <abort+0x12c>
  400464:	88027e60 	stxr	w2, w0, [x19]
  400468:	35ffffa2 	cbnz	w2, 40045c <abort+0x11c>
  40046c:	7100003f 	cmp	w1, #0x0
  400470:	54000060 	b.eq	40047c <abort+0x13c>  // b.none
  400474:	aa1303e0 	mov	x0, x19
  400478:	94004146 	bl	410990 <__lll_lock_wait_private>
  40047c:	f9000674 	str	x20, [x19, #8]
  400480:	b9400660 	ldr	w0, [x19, #4]
  400484:	11000400 	add	w0, w0, #0x1
  400488:	b9000660 	str	w0, [x19, #4]
  40048c:	14000003 	b	400498 <abort+0x158>
  400490:	7100081f 	cmp	w0, #0x2
  400494:	54000261 	b.ne	4004e0 <abort+0x1a0>  // b.any
  400498:	52800063 	mov	w3, #0x3                   	// #3
  40049c:	910283f4 	add	x20, sp, #0xa0
  4004a0:	52800001 	mov	w1, #0x0                   	// #0
  4004a4:	91002280 	add	x0, x20, #0x8
  4004a8:	d2801202 	mov	x2, #0x90                  	// #144
  4004ac:	b9001263 	str	w3, [x19, #16]
  4004b0:	97ffff88 	bl	4002d0 <.plt+0x30>
  4004b4:	f90053ff 	str	xzr, [sp, #160]
  4004b8:	d2800200 	mov	x0, #0x10                  	// #16
  4004bc:	92800001 	mov	x1, #0xffffffffffffffff    	// #-1
  4004c0:	f8207a81 	str	x1, [x20, x0, lsl #3]
  4004c4:	f1000400 	subs	x0, x0, #0x1
  4004c8:	54ffffc1 	b.ne	4004c0 <abort+0x180>  // b.any
  4004cc:	aa1403e1 	mov	x1, x20
  4004d0:	d2800002 	mov	x2, #0x0                   	// #0
  4004d4:	528000c0 	mov	w0, #0x6                   	// #6
  4004d8:	b9012bff 	str	wzr, [sp, #296]
  4004dc:	9400a1b3 	bl	428ba8 <__sigaction>
  4004e0:	b9401260 	ldr	w0, [x19, #16]
  4004e4:	71000c1f 	cmp	w0, #0x3
  4004e8:	540000a1 	b.ne	4004fc <abort+0x1bc>  // b.any
  4004ec:	52800081 	mov	w1, #0x4                   	// #4
  4004f0:	528000c0 	mov	w0, #0x6                   	// #6
  4004f4:	b9001261 	str	w1, [x19, #16]
  4004f8:	94001c54 	bl	407648 <raise>
  4004fc:	b9401260 	ldr	w0, [x19, #16]
  400500:	7100101f 	cmp	w0, #0x4
  400504:	54000081 	b.ne	400514 <abort+0x1d4>  // b.any
  400508:	528000a0 	mov	w0, #0x5                   	// #5
  40050c:	b9001260 	str	w0, [x19, #16]
  400510:	d4207d00 	brk	#0x3e8
  400514:	b9401260 	ldr	w0, [x19, #16]
  400518:	7100141f 	cmp	w0, #0x5
  40051c:	540000a1 	b.ne	400530 <abort+0x1f0>  // b.any
  400520:	528000c1 	mov	w1, #0x6                   	// #6
  400524:	52800fe0 	mov	w0, #0x7f                  	// #127
  400528:	b9001261 	str	w1, [x19, #16]
  40052c:	94006657 	bl	419e88 <_exit>
  400530:	d4207d00 	brk	#0x3e8
  400534:	17ffffff 	b	400530 <abort+0x1f0>

0000000000400538 <_dl_start>:
  400538:	a9bf7bfd 	stp	x29, x30, [sp, #-16]!
  40053c:	910003fd 	mov	x29, sp
  400540:	97ffff80 	bl	400340 <abort>
  400544:	d503201f 	nop

0000000000400548 <fini>:
  400548:	d0000460 	adrp	x0, 48e000 <initial+0x90>
  40054c:	91190000 	add	x0, x0, #0x640
  400550:	91008000 	add	x0, x0, #0x20
  400554:	14011f35 	b	448228 <check_free.isra.0>

0000000000400558 <main>:
  400558:	a9ae7bfd 	stp	x29, x30, [sp, #-288]!
  40055c:	aa0103e2 	mov	x2, x1
  400560:	910003fd 	mov	x29, sp
  400564:	a90153f3 	stp	x19, x20, [sp, #16]
  400568:	f0000453 	adrp	x19, 48b000 <__FRAME_END__+0xf85c>
  40056c:	9102a3f4 	add	x20, sp, #0xa8
  400570:	f947a663 	ldr	x3, [x19, #3912]
  400574:	b9009fe0 	str	w0, [sp, #156]
  400578:	a9025bf5 	stp	x21, x22, [sp, #32]
  40057c:	aa0103f5 	mov	x21, x1
  400580:	f9400060 	ldr	x0, [x3]
  400584:	f9008fe0 	str	x0, [sp, #280]
  400588:	d2800000 	mov	x0, #0x0                   	// #0
  40058c:	910273e1 	add	x1, sp, #0x9c
  400590:	9101aa80 	add	x0, x20, #0x6a
  400594:	a90363f7 	stp	x23, x24, [sp, #48]
  400598:	a9046bf9 	stp	x25, x26, [sp, #64]
  40059c:	a90573fb 	stp	x27, x28, [sp, #80]
  4005a0:	940008e4 	bl	402930 <portable_init>
  4005a4:	b9409fe1 	ldr	w1, [sp, #156]
  4005a8:	aa1503e2 	mov	x2, x21
  4005ac:	52800020 	mov	w0, #0x1                   	// #1
  4005b0:	94000876 	bl	402788 <get_seed_args>
  4005b4:	2a0003e3 	mov	w3, w0
  4005b8:	b9409fe1 	ldr	w1, [sp, #156]
  4005bc:	aa1503e2 	mov	x2, x21
  4005c0:	52800040 	mov	w0, #0x2                   	// #2
  4005c4:	790153e3 	strh	w3, [sp, #168]
  4005c8:	94000870 	bl	402788 <get_seed_args>
  4005cc:	2a0003e3 	mov	w3, w0
  4005d0:	b9409fe1 	ldr	w1, [sp, #156]
  4005d4:	aa1503e2 	mov	x2, x21
  4005d8:	52800060 	mov	w0, #0x3                   	// #3
  4005dc:	790157e3 	strh	w3, [sp, #170]
  4005e0:	9400086a 	bl	402788 <get_seed_args>
  4005e4:	2a0003e4 	mov	w4, w0
  4005e8:	b9409fe1 	ldr	w1, [sp, #156]
  4005ec:	52800143 	mov	w3, #0xa                   	// #10
  4005f0:	aa1503e2 	mov	x2, x21
  4005f4:	528000a0 	mov	w0, #0x5                   	// #5
  4005f8:	79015be4 	strh	w4, [sp, #172]
  4005fc:	b900d7e3 	str	w3, [sp, #212]
  400600:	94000862 	bl	402788 <get_seed_args>
  400604:	7100001f 	cmp	w0, #0x0
  400608:	f94057e1 	ldr	x1, [sp, #168]
  40060c:	528000e2 	mov	w2, #0x7                   	// #7
  400610:	1a821000 	csel	w0, w0, w2, ne  // ne = any
  400614:	b900dbe0 	str	w0, [sp, #216]
  400618:	f240bc3f 	tst	x1, #0xffffffffffff
  40061c:	540000a1 	b.ne	400630 <main+0xd8>  // b.any
  400620:	52800cc0 	mov	w0, #0x66                  	// #102
  400624:	b900abff 	str	wzr, [sp, #168]
  400628:	79015be0 	strh	w0, [sp, #172]
  40062c:	f94057e1 	ldr	x1, [sp, #168]
  400630:	9240bc21 	and	x1, x1, #0xffffffffffff
  400634:	f100043f 	cmp	x1, #0x1
  400638:	540000c1 	b.ne	400650 <main+0xf8>  // b.any
  40063c:	528682a1 	mov	w1, #0x3415                	// #13333
  400640:	52800cc0 	mov	w0, #0x66                  	// #102
  400644:	72a682a1 	movk	w1, #0x3415, lsl #16
  400648:	b900abe1 	str	w1, [sp, #168]
  40064c:	79015be0 	strh	w0, [sp, #172]
  400650:	b9409fe1 	ldr	w1, [sp, #156]
  400654:	aa1503e2 	mov	x2, x21
  400658:	528000e0 	mov	w0, #0x7                   	// #7
  40065c:	9400084b 	bl	402788 <get_seed_args>
  400660:	13003c00 	sxth	w0, w0
  400664:	35002f60 	cbnz	w0, 400c50 <main+0x6f8>
  400668:	5280fa01 	mov	w1, #0x7d0                 	// #2000
  40066c:	d280fa00 	mov	x0, #0x7d0                 	// #2000
  400670:	b900d3e1 	str	w1, [sp, #208]
  400674:	94000887 	bl	402890 <portable_malloc>
  400678:	b940dbe1 	ldr	w1, [sp, #216]
  40067c:	aa0003e4 	mov	x4, x0
  400680:	b940d3e3 	ldr	w3, [sp, #208]
  400684:	d2800006 	mov	x6, #0x0                   	// #0
  400688:	721f0025 	ands	w5, w1, #0x2
  40068c:	12000022 	and	w2, w1, #0x1
  400690:	1a820442 	cinc	w2, w2, ne  // ne = any
  400694:	f27e003f 	tst	x1, #0x4
  400698:	1a820442 	cinc	w2, w2, ne  // ne = any
  40069c:	12000029 	and	w9, w1, #0x1
  4006a0:	52800007 	mov	w7, #0x0                   	// #0
  4006a4:	52800028 	mov	w8, #0x1                   	// #1
  4006a8:	f9005be4 	str	x4, [sp, #176]
  4006ac:	1ac20860 	udiv	w0, w3, w2
  4006b0:	790223ff 	strh	wzr, [sp, #272]
  4006b4:	b900d3e0 	str	w0, [sp, #208]
  4006b8:	1ac62102 	lsl	w2, w8, w6
  4006bc:	6a01005f 	tst	w2, w1
  4006c0:	54003161 	b.ne	400cec <main+0x794>  // b.any
  4006c4:	910004c6 	add	x6, x6, #0x1
  4006c8:	f1000cdf 	cmp	x6, #0x3
  4006cc:	54ffff61 	b.ne	4006b8 <main+0x160>  // b.any
  4006d0:	35002b09 	cbnz	w9, 400c30 <main+0x6d8>
  4006d4:	350029c5 	cbnz	w5, 400c0c <main+0x6b4>
  4006d8:	361000a1 	tbz	w1, #2, 4006ec <main+0x194>
  4006dc:	794153e1 	ldrh	w1, [sp, #168]
  4006e0:	b940d3e0 	ldr	w0, [sp, #208]
  4006e4:	f94067e2 	ldr	x2, [sp, #200]
  4006e8:	94000626 	bl	401f80 <core_init_state>
  4006ec:	b940d7e0 	ldr	w0, [sp, #212]
  4006f0:	35000360 	cbnz	w0, 40075c <main+0x204>
  4006f4:	52800020 	mov	w0, #0x1                   	// #1
  4006f8:	fd0033e8 	str	d8, [sp, #96]
  4006fc:	1e6e1008 	fmov	d8, #1.000000000000000000e+00
  400700:	b900d7e0 	str	w0, [sp, #212]
  400704:	d503201f 	nop
  400708:	b940d7e0 	ldr	w0, [sp, #212]
  40070c:	0b000800 	add	w0, w0, w0, lsl #2
  400710:	531f7800 	lsl	w0, w0, #1
  400714:	b900d7e0 	str	w0, [sp, #212]
  400718:	94000862 	bl	4028a0 <start_time>
  40071c:	aa1403e0 	mov	x0, x20
  400720:	940003fe 	bl	401718 <iterate>
  400724:	94000863 	bl	4028b0 <stop_time>
  400728:	94000868 	bl	4028c8 <get_time>
  40072c:	9400087b 	bl	402918 <time_in_secs>
  400730:	1e682010 	fcmpe	d0, d8
  400734:	54fffea4 	b.mi	400708 <main+0x1b0>  // b.first
  400738:	1e790000 	fcvtzu	w0, d0
  40073c:	52800142 	mov	w2, #0xa                   	// #10
  400740:	b940d7e1 	ldr	w1, [sp, #212]
  400744:	fd4033e8 	ldr	d8, [sp, #96]
  400748:	7100001f 	cmp	w0, #0x0
  40074c:	1a9f1400 	csinc	w0, w0, wzr, ne  // ne = any
  400750:	1ac00840 	udiv	w0, w2, w0
  400754:	1b010401 	madd	w1, w0, w1, w1
  400758:	b900d7e1 	str	w1, [sp, #212]
  40075c:	94000851 	bl	4028a0 <start_time>
  400760:	aa1403e0 	mov	x0, x20
  400764:	940003ed 	bl	401718 <iterate>
  400768:	94000852 	bl	4028b0 <stop_time>
  40076c:	94000857 	bl	4028c8 <get_time>
  400770:	aa0003f9 	mov	x25, x0
  400774:	794153e0 	ldrh	w0, [sp, #168]
  400778:	52800001 	mov	w1, #0x0                   	// #0
  40077c:	94000841 	bl	402880 <crc16>
  400780:	2a0003e1 	mov	w1, w0
  400784:	794157e0 	ldrh	w0, [sp, #170]
  400788:	9400083e 	bl	402880 <crc16>
  40078c:	2a0003e1 	mov	w1, w0
  400790:	79415be0 	ldrh	w0, [sp, #172]
  400794:	9400083b 	bl	402880 <crc16>
  400798:	2a0003e1 	mov	w1, w0
  40079c:	7941a3e0 	ldrh	w0, [sp, #208]
  4007a0:	94000838 	bl	402880 <crc16>
  4007a4:	12003c01 	and	w1, w0, #0xffff
  4007a8:	b9009be1 	str	w1, [sp, #152]
  4007ac:	528f60a0 	mov	w0, #0x7b05                	// #31493
  4007b0:	6b00003f 	cmp	w1, w0
  4007b4:	54003000 	b.eq	400db4 <main+0x85c>  // b.none
  4007b8:	54002828 	b.hi	400cbc <main+0x764>  // b.pmore
  4007bc:	52831e40 	mov	w0, #0x18f2                	// #6386
  4007c0:	6b00003f 	cmp	w1, w0
  4007c4:	54003020 	b.eq	400dc8 <main+0x870>  // b.none
  4007c8:	5289d5e0 	mov	w0, #0x4eaf                	// #20143
  4007cc:	6b00003f 	cmp	w1, w0
  4007d0:	54003181 	b.ne	400e00 <main+0x8a8>  // b.any
  4007d4:	900002a0 	adrp	x0, 454000 <free_modules_db+0x50>
  4007d8:	52800056 	mov	w22, #0x2                   	// #2
  4007dc:	91222000 	add	x0, x0, #0x888
  4007e0:	94002374 	bl	4095b0 <_IO_puts>
  4007e4:	f0000455 	adrp	x21, 48b000 <__FRAME_END__+0xf85c>
  4007e8:	f947eaa0 	ldr	x0, [x21, #4048]
  4007ec:	b9400000 	ldr	w0, [x0]
  4007f0:	34003000 	cbz	w0, 400df0 <main+0x898>
  4007f4:	900002b7 	adrp	x23, 454000 <free_modules_db+0x50>
  4007f8:	913342e0 	add	x0, x23, #0xcd0
  4007fc:	f9003be0 	str	x0, [sp, #112]
  400800:	91004000 	add	x0, x0, #0x10
  400804:	910443f7 	add	x23, sp, #0x110
  400808:	910363f8 	add	x24, sp, #0xd8
  40080c:	f90047e0 	str	x0, [sp, #136]
  400810:	91042be0 	add	x0, sp, #0x10a
  400814:	5280001c 	mov	w28, #0x0                   	// #0
  400818:	5280001b 	mov	w27, #0x0                   	// #0
  40081c:	f9003fe0 	str	x0, [sp, #120]
  400820:	910433e0 	add	x0, sp, #0x10c
  400824:	f90043e0 	str	x0, [sp, #128]
  400828:	93407f69 	sxtw	x9, w27
  40082c:	937d7f65 	sbfiz	x5, x27, #3, #32
  400830:	cb0900a5 	sub	x5, x5, x9
  400834:	d37cecba 	lsl	x26, x5, #4
  400838:	b87a6b00 	ldr	w0, [x24, x26]
  40083c:	783a6aff 	strh	wzr, [x23, x26]
  400840:	36000220 	tbz	w0, #0, 400884 <main+0x32c>
  400844:	f9403fe0 	ldr	x0, [sp, #120]
  400848:	787a6803 	ldrh	w3, [x0, x26]
  40084c:	f9403be0 	ldr	x0, [sp, #112]
  400850:	7876d804 	ldrh	w4, [x0, w22, sxtw #1]
  400854:	6b04007f 	cmp	w3, w4
  400858:	54000160 	b.eq	400884 <main+0x32c>  // b.none
  40085c:	2a1b03e2 	mov	w2, w27
  400860:	900002a1 	adrp	x1, 454000 <free_modules_db+0x50>
  400864:	52800020 	mov	w0, #0x1                   	// #1
  400868:	91246021 	add	x1, x1, #0x918
  40086c:	f9004be9 	str	x9, [sp, #144]
  400870:	94006f36 	bl	41c548 <___printf_chk>
  400874:	787a6ae0 	ldrh	w0, [x23, x26]
  400878:	f9404be9 	ldr	x9, [sp, #144]
  40087c:	11000400 	add	w0, w0, #0x1
  400880:	783a6ae0 	strh	w0, [x23, x26]
  400884:	d37df125 	lsl	x5, x9, #3
  400888:	cb0900a5 	sub	x5, x5, x9
  40088c:	d37cecba 	lsl	x26, x5, #4
  400890:	b87a6b00 	ldr	w0, [x24, x26]
  400894:	36080240 	tbz	w0, #1, 4008dc <main+0x384>
  400898:	f94043e1 	ldr	x1, [sp, #128]
  40089c:	787a6823 	ldrh	w3, [x1, x26]
  4008a0:	f94047e1 	ldr	x1, [sp, #136]
  4008a4:	7876d824 	ldrh	w4, [x1, w22, sxtw #1]
  4008a8:	6b04007f 	cmp	w3, w4
  4008ac:	54000180 	b.eq	4008dc <main+0x384>  // b.none
  4008b0:	2a1b03e2 	mov	w2, w27
  4008b4:	900002a1 	adrp	x1, 454000 <free_modules_db+0x50>
  4008b8:	52800020 	mov	w0, #0x1                   	// #1
  4008bc:	91252021 	add	x1, x1, #0x948
  4008c0:	f9004be9 	str	x9, [sp, #144]
  4008c4:	94006f21 	bl	41c548 <___printf_chk>
  4008c8:	787a6ae1 	ldrh	w1, [x23, x26]
  4008cc:	b87a6b00 	ldr	w0, [x24, x26]
  4008d0:	f9404be9 	ldr	x9, [sp, #144]
  4008d4:	11000421 	add	w1, w1, #0x1
  4008d8:	783a6ae1 	strh	w1, [x23, x26]
  4008dc:	37101c00 	tbnz	w0, #2, 400c5c <main+0x704>
  4008e0:	d37df120 	lsl	x0, x9, #3
  4008e4:	cb090009 	sub	x9, x0, x9
  4008e8:	d37ced29 	lsl	x9, x9, #4
  4008ec:	78696ae0 	ldrh	w0, [x23, x9]
  4008f0:	f947eaa1 	ldr	x1, [x21, #4048]
  4008f4:	0b1c0000 	add	w0, w0, w28
  4008f8:	12003c1a 	and	w26, w0, #0xffff
  4008fc:	11000763 	add	w3, w27, #0x1
  400900:	13003c1c 	sxth	w28, w0
  400904:	12003c7b 	and	w27, w3, #0xffff
  400908:	b9400020 	ldr	w0, [x1]
  40090c:	6b23201f 	cmp	w0, w3, uxth
  400910:	54fff8c8 	b.hi	400828 <main+0x2d0>  // b.pmore
  400914:	940007dd 	bl	402888 <check_data_types>
  400918:	0b200344 	add	w4, w26, w0, uxtb
  40091c:	b940d3e2 	ldr	w2, [sp, #208]
  400920:	12003c97 	and	w23, w4, #0xffff
  400924:	900002a1 	adrp	x1, 454000 <free_modules_db+0x50>
  400928:	52800020 	mov	w0, #0x1                   	// #1
  40092c:	9126c021 	add	x1, x1, #0x9b0
  400930:	94006f06 	bl	41c548 <___printf_chk>
  400934:	aa1903e2 	mov	x2, x25
  400938:	900002a1 	adrp	x1, 454000 <free_modules_db+0x50>
  40093c:	91272021 	add	x1, x1, #0x9c8
  400940:	52800020 	mov	w0, #0x1                   	// #1
  400944:	94006f01 	bl	41c548 <___printf_chk>
  400948:	aa1903e0 	mov	x0, x25
  40094c:	940007f3 	bl	402918 <time_in_secs>
  400950:	900002a1 	adrp	x1, 454000 <free_modules_db+0x50>
  400954:	91278021 	add	x1, x1, #0x9e0
  400958:	52800020 	mov	w0, #0x1                   	// #1
  40095c:	94006efb 	bl	41c548 <___printf_chk>
  400960:	aa1903e0 	mov	x0, x25
  400964:	940007ed 	bl	402918 <time_in_secs>
  400968:	1e602018 	fcmpe	d0, #0.0
  40096c:	540001ed 	b.le	4009a8 <main+0x450>
  400970:	f947eaa2 	ldr	x2, [x21, #4048]
  400974:	aa1903e0 	mov	x0, x25
  400978:	b940d7e1 	ldr	w1, [sp, #212]
  40097c:	b9400042 	ldr	w2, [x2]
  400980:	fd0033e8 	str	d8, [sp, #96]
  400984:	1b027c21 	mul	w1, w1, w2
  400988:	1e630028 	ucvtf	d8, w1
  40098c:	940007e3 	bl	402918 <time_in_secs>
  400990:	1e601900 	fdiv	d0, d8, d0
  400994:	900002a1 	adrp	x1, 454000 <free_modules_db+0x50>
  400998:	52800020 	mov	w0, #0x1                   	// #1
  40099c:	9127e021 	add	x1, x1, #0x9f8
  4009a0:	94006eea 	bl	41c548 <___printf_chk>
  4009a4:	fd4033e8 	ldr	d8, [sp, #96]
  4009a8:	aa1903e0 	mov	x0, x25
  4009ac:	940007db 	bl	402918 <time_in_secs>
  4009b0:	1e649001 	fmov	d1, #1.000000000000000000e+01
  4009b4:	1e612010 	fcmpe	d0, d1
  4009b8:	54001f04 	b.mi	400d98 <main+0x840>  // b.first
  4009bc:	f947eabb 	ldr	x27, [x21, #4048]
  4009c0:	900002a1 	adrp	x1, 454000 <free_modules_db+0x50>
  4009c4:	b940d7e2 	ldr	w2, [sp, #212]
  4009c8:	91294021 	add	x1, x1, #0xa50
  4009cc:	52800020 	mov	w0, #0x1                   	// #1
  4009d0:	13003ef7 	sxth	w23, w23
  4009d4:	b9400363 	ldr	w3, [x27]
  4009d8:	9ba27c62 	umull	x2, w3, w2
  4009dc:	94006edb 	bl	41c548 <___printf_chk>
  4009e0:	900002a0 	adrp	x0, 454000 <free_modules_db+0x50>
  4009e4:	900002a1 	adrp	x1, 454000 <free_modules_db+0x50>
  4009e8:	9129a002 	add	x2, x0, #0xa68
  4009ec:	9129e021 	add	x1, x1, #0xa78
  4009f0:	52800020 	mov	w0, #0x1                   	// #1
  4009f4:	94006ed5 	bl	41c548 <___printf_chk>
  4009f8:	900002a0 	adrp	x0, 454000 <free_modules_db+0x50>
  4009fc:	900002a1 	adrp	x1, 454000 <free_modules_db+0x50>
  400a00:	912a4002 	add	x2, x0, #0xa90
  400a04:	912ac021 	add	x1, x1, #0xab0
  400a08:	52800020 	mov	w0, #0x1                   	// #1
  400a0c:	94006ecf 	bl	41c548 <___printf_chk>
  400a10:	900002a2 	adrp	x2, 454000 <free_modules_db+0x50>
  400a14:	900002a1 	adrp	x1, 454000 <free_modules_db+0x50>
  400a18:	912b2042 	add	x2, x2, #0xac8
  400a1c:	912c6021 	add	x1, x1, #0xb18
  400a20:	52800020 	mov	w0, #0x1                   	// #1
  400a24:	94006ec9 	bl	41c548 <___printf_chk>
  400a28:	b9409be2 	ldr	w2, [sp, #152]
  400a2c:	900002a1 	adrp	x1, 454000 <free_modules_db+0x50>
  400a30:	52800020 	mov	w0, #0x1                   	// #1
  400a34:	912cc021 	add	x1, x1, #0xb30
  400a38:	94006ec4 	bl	41c548 <___printf_chk>
  400a3c:	b940dbe0 	ldr	w0, [sp, #216]
  400a40:	360002c0 	tbz	w0, #0, 400a98 <main+0x540>
  400a44:	b9400361 	ldr	w1, [x27]
  400a48:	34000281 	cbz	w1, 400a98 <main+0x540>
  400a4c:	900002bc 	adrp	x28, 454000 <free_modules_db+0x50>
  400a50:	91042bf8 	add	x24, sp, #0x10a
  400a54:	912d439c 	add	x28, x28, #0xb50
  400a58:	5280001a 	mov	w26, #0x0                   	// #0
  400a5c:	d503201f 	nop
  400a60:	937d7f43 	sbfiz	x3, x26, #3, #32
  400a64:	2a1a03e2 	mov	w2, w26
  400a68:	cb3ac063 	sub	x3, x3, w26, sxtw
  400a6c:	aa1c03e1 	mov	x1, x28
  400a70:	52800020 	mov	w0, #0x1                   	// #1
  400a74:	d37cec63 	lsl	x3, x3, #4
  400a78:	78636b03 	ldrh	w3, [x24, x3]
  400a7c:	94006eb3 	bl	41c548 <___printf_chk>
  400a80:	b9400361 	ldr	w1, [x27]
  400a84:	11000740 	add	w0, w26, #0x1
  400a88:	12003c1a 	and	w26, w0, #0xffff
  400a8c:	6b20203f 	cmp	w1, w0, uxth
  400a90:	54fffe88 	b.hi	400a60 <main+0x508>  // b.pmore
  400a94:	b940dbe0 	ldr	w0, [sp, #216]
  400a98:	36080300 	tbz	w0, #1, 400af8 <main+0x5a0>
  400a9c:	f947eaa4 	ldr	x4, [x21, #4048]
  400aa0:	b9400081 	ldr	w1, [x4]
  400aa4:	34001841 	cbz	w1, 400dac <main+0x854>
  400aa8:	900002bc 	adrp	x28, 454000 <free_modules_db+0x50>
  400aac:	aa0403fb 	mov	x27, x4
  400ab0:	910433f8 	add	x24, sp, #0x10c
  400ab4:	912dc39c 	add	x28, x28, #0xb70
  400ab8:	5280001a 	mov	w26, #0x0                   	// #0
  400abc:	d503201f 	nop
  400ac0:	937d7f43 	sbfiz	x3, x26, #3, #32
  400ac4:	2a1a03e2 	mov	w2, w26
  400ac8:	cb3ac063 	sub	x3, x3, w26, sxtw
  400acc:	aa1c03e1 	mov	x1, x28
  400ad0:	52800020 	mov	w0, #0x1                   	// #1
  400ad4:	d37cec63 	lsl	x3, x3, #4
  400ad8:	78636b03 	ldrh	w3, [x24, x3]
  400adc:	94006e9b 	bl	41c548 <___printf_chk>
  400ae0:	b9400361 	ldr	w1, [x27]
  400ae4:	11000740 	add	w0, w26, #0x1
  400ae8:	12003c1a 	and	w26, w0, #0xffff
  400aec:	6b20203f 	cmp	w1, w0, uxth
  400af0:	54fffe88 	b.hi	400ac0 <main+0x568>  // b.pmore
  400af4:	b940dbe0 	ldr	w0, [sp, #216]
  400af8:	361002e0 	tbz	w0, #2, 400b54 <main+0x5fc>
  400afc:	f947eaa4 	ldr	x4, [x21, #4048]
  400b00:	b9400080 	ldr	w0, [x4]
  400b04:	34000540 	cbz	w0, 400bac <main+0x654>
  400b08:	900002b8 	adrp	x24, 454000 <free_modules_db+0x50>
  400b0c:	aa0403fb 	mov	x27, x4
  400b10:	91043bfa 	add	x26, sp, #0x10e
  400b14:	912e4318 	add	x24, x24, #0xb90
  400b18:	5280001c 	mov	w28, #0x0                   	// #0
  400b1c:	d503201f 	nop
  400b20:	937d7f83 	sbfiz	x3, x28, #3, #32
  400b24:	2a1c03e2 	mov	w2, w28
  400b28:	cb3cc063 	sub	x3, x3, w28, sxtw
  400b2c:	aa1803e1 	mov	x1, x24
  400b30:	52800020 	mov	w0, #0x1                   	// #1
  400b34:	d37cec63 	lsl	x3, x3, #4
  400b38:	78636b43 	ldrh	w3, [x26, x3]
  400b3c:	94006e83 	bl	41c548 <___printf_chk>
  400b40:	b9400361 	ldr	w1, [x27]
  400b44:	11000780 	add	w0, w28, #0x1
  400b48:	12003c1c 	and	w28, w0, #0xffff
  400b4c:	6b20203f 	cmp	w1, w0, uxth
  400b50:	54fffe88 	b.hi	400b20 <main+0x5c8>  // b.pmore
  400b54:	f947eaa4 	ldr	x4, [x21, #4048]
  400b58:	b9400080 	ldr	w0, [x4]
  400b5c:	34000280 	cbz	w0, 400bac <main+0x654>
  400b60:	900002bc 	adrp	x28, 454000 <free_modules_db+0x50>
  400b64:	aa0403fb 	mov	x27, x4
  400b68:	910423f8 	add	x24, sp, #0x108
  400b6c:	912ec39c 	add	x28, x28, #0xbb0
  400b70:	5280001a 	mov	w26, #0x0                   	// #0
  400b74:	d503201f 	nop
  400b78:	937d7f43 	sbfiz	x3, x26, #3, #32
  400b7c:	2a1a03e2 	mov	w2, w26
  400b80:	cb3ac063 	sub	x3, x3, w26, sxtw
  400b84:	aa1c03e1 	mov	x1, x28
  400b88:	52800020 	mov	w0, #0x1                   	// #1
  400b8c:	d37cec63 	lsl	x3, x3, #4
  400b90:	78636b03 	ldrh	w3, [x24, x3]
  400b94:	94006e6d 	bl	41c548 <___printf_chk>
  400b98:	b9400361 	ldr	w1, [x27]
  400b9c:	11000740 	add	w0, w26, #0x1
  400ba0:	12003c1a 	and	w26, w0, #0xffff
  400ba4:	6b20203f 	cmp	w1, w0, uxth
  400ba8:	54fffe88 	b.hi	400b78 <main+0x620>  // b.pmore
  400bac:	710002ff 	cmp	w23, #0x0
  400bb0:	34000b57 	cbz	w23, 400d18 <main+0x7c0>
  400bb4:	54000aad 	b.le	400d08 <main+0x7b0>
  400bb8:	900002a0 	adrp	x0, 454000 <free_modules_db+0x50>
  400bbc:	91310000 	add	x0, x0, #0xc40
  400bc0:	9400227c 	bl	4095b0 <_IO_puts>
  400bc4:	f9405be0 	ldr	x0, [sp, #176]
  400bc8:	94000734 	bl	402898 <portable_free>
  400bcc:	9101aa80 	add	x0, x20, #0x6a
  400bd0:	9400075c 	bl	402940 <portable_fini>
  400bd4:	f947a673 	ldr	x19, [x19, #3912]
  400bd8:	f9408fe0 	ldr	x0, [sp, #280]
  400bdc:	f9400261 	ldr	x1, [x19]
  400be0:	eb010000 	subs	x0, x0, x1
  400be4:	d2800001 	mov	x1, #0x0                   	// #0
  400be8:	54001081 	b.ne	400df8 <main+0x8a0>  // b.any
  400bec:	52800000 	mov	w0, #0x0                   	// #0
  400bf0:	a94153f3 	ldp	x19, x20, [sp, #16]
  400bf4:	a9425bf5 	ldp	x21, x22, [sp, #32]
  400bf8:	a94363f7 	ldp	x23, x24, [sp, #48]
  400bfc:	a9446bf9 	ldp	x25, x26, [sp, #64]
  400c00:	a94573fb 	ldp	x27, x28, [sp, #80]
  400c04:	a8d27bfd 	ldp	x29, x30, [sp], #288
  400c08:	d65f03c0 	ret
  400c0c:	79c157e4 	ldrsh	w4, [sp, #170]
  400c10:	91010283 	add	x3, x20, #0x40
  400c14:	b940d3e0 	ldr	w0, [sp, #208]
  400c18:	f94063e1 	ldr	x1, [sp, #192]
  400c1c:	79c153e2 	ldrsh	w2, [sp, #168]
  400c20:	2a044042 	orr	w2, w2, w4, lsl #16
  400c24:	940002dd 	bl	401798 <core_init_matrix>
  400c28:	b940dbe1 	ldr	w1, [sp, #216]
  400c2c:	17fffeab 	b	4006d8 <main+0x180>
  400c30:	794153e2 	ldrh	w2, [sp, #168]
  400c34:	f9405fe1 	ldr	x1, [sp, #184]
  400c38:	94000260 	bl	4015b8 <core_list_init>
  400c3c:	f90073e0 	str	x0, [sp, #224]
  400c40:	b940dbe1 	ldr	w1, [sp, #216]
  400c44:	121f0025 	and	w5, w1, #0x2
  400c48:	34ffd485 	cbz	w5, 4006d8 <main+0x180>
  400c4c:	17fffff0 	b	400c0c <main+0x6b4>
  400c50:	2a0003e0 	mov	w0, w0
  400c54:	aa0003e1 	mov	x1, x0
  400c58:	17fffe86 	b	400670 <main+0x118>
  400c5c:	d37df120 	lsl	x0, x9, #3
  400c60:	91043bfa 	add	x26, sp, #0x10e
  400c64:	cb090009 	sub	x9, x0, x9
  400c68:	f9403be0 	ldr	x0, [sp, #112]
  400c6c:	d37ced29 	lsl	x9, x9, #4
  400c70:	91008000 	add	x0, x0, #0x20
  400c74:	78696b43 	ldrh	w3, [x26, x9]
  400c78:	7876d804 	ldrh	w4, [x0, w22, sxtw #1]
  400c7c:	6b04007f 	cmp	w3, w4
  400c80:	54000061 	b.ne	400c8c <main+0x734>  // b.any
  400c84:	78696ae0 	ldrh	w0, [x23, x9]
  400c88:	17ffff1a 	b	4008f0 <main+0x398>
  400c8c:	2a1b03e2 	mov	w2, w27
  400c90:	900002a1 	adrp	x1, 454000 <free_modules_db+0x50>
  400c94:	52800020 	mov	w0, #0x1                   	// #1
  400c98:	91260021 	add	x1, x1, #0x980
  400c9c:	f9004be9 	str	x9, [sp, #144]
  400ca0:	94006e2a 	bl	41c548 <___printf_chk>
  400ca4:	f9404be9 	ldr	x9, [sp, #144]
  400ca8:	78696ae0 	ldrh	w0, [x23, x9]
  400cac:	11000400 	add	w0, w0, #0x1
  400cb0:	12003c00 	and	w0, w0, #0xffff
  400cb4:	78296ae0 	strh	w0, [x23, x9]
  400cb8:	17ffff0e 	b	4008f0 <main+0x398>
  400cbc:	b9409be1 	ldr	w1, [sp, #152]
  400cc0:	52914040 	mov	w0, #0x8a02                	// #35330
  400cc4:	6b00003f 	cmp	w1, w0
  400cc8:	540008a0 	b.eq	400ddc <main+0x884>  // b.none
  400ccc:	529d3ea0 	mov	w0, #0xe9f5                	// #59893
  400cd0:	6b00003f 	cmp	w1, w0
  400cd4:	54000961 	b.ne	400e00 <main+0x8a8>  // b.any
  400cd8:	900002a0 	adrp	x0, 454000 <free_modules_db+0x50>
  400cdc:	52800076 	mov	w22, #0x3                   	// #3
  400ce0:	9122e000 	add	x0, x0, #0x8b8
  400ce4:	94002233 	bl	4095b0 <_IO_puts>
  400ce8:	17fffebf 	b	4007e4 <main+0x28c>
  400cec:	8b060e83 	add	x3, x20, x6, lsl #3
  400cf0:	1b007ce2 	mul	w2, w7, w0
  400cf4:	110004e7 	add	w7, w7, #0x1
  400cf8:	8b020082 	add	x2, x4, x2
  400cfc:	12003ce7 	and	w7, w7, #0xffff
  400d00:	f9000862 	str	x2, [x3, #16]
  400d04:	17fffe70 	b	4006c4 <main+0x16c>
  400d08:	900002a0 	adrp	x0, 454000 <free_modules_db+0x50>
  400d0c:	91314000 	add	x0, x0, #0xc50
  400d10:	94002228 	bl	4095b0 <_IO_puts>
  400d14:	17ffffac 	b	400bc4 <main+0x66c>
  400d18:	900002a0 	adrp	x0, 454000 <free_modules_db+0x50>
  400d1c:	912f4000 	add	x0, x0, #0xbd0
  400d20:	94002224 	bl	4095b0 <_IO_puts>
  400d24:	71000edf 	cmp	w22, #0x3
  400d28:	54fff4e1 	b.ne	400bc4 <main+0x66c>  // b.any
  400d2c:	f947eab5 	ldr	x21, [x21, #4048]
  400d30:	aa1903e0 	mov	x0, x25
  400d34:	b940d7e1 	ldr	w1, [sp, #212]
  400d38:	b94002a2 	ldr	w2, [x21]
  400d3c:	fd0033e8 	str	d8, [sp, #96]
  400d40:	1b027c21 	mul	w1, w1, w2
  400d44:	1e630028 	ucvtf	d8, w1
  400d48:	940006f4 	bl	402918 <time_in_secs>
  400d4c:	1e601900 	fdiv	d0, d8, d0
  400d50:	900002a0 	adrp	x0, 454000 <free_modules_db+0x50>
  400d54:	912a4003 	add	x3, x0, #0xa90
  400d58:	900002a0 	adrp	x0, 454000 <free_modules_db+0x50>
  400d5c:	900002a1 	adrp	x1, 454000 <free_modules_db+0x50>
  400d60:	9129a002 	add	x2, x0, #0xa68
  400d64:	91306021 	add	x1, x1, #0xc18
  400d68:	52800020 	mov	w0, #0x1                   	// #1
  400d6c:	94006df7 	bl	41c548 <___printf_chk>
  400d70:	90000460 	adrp	x0, 48c000 <_GLOBAL_OFFSET_TABLE_+0xc8>
  400d74:	900002a1 	adrp	x1, 454000 <free_modules_db+0x50>
  400d78:	9130e021 	add	x1, x1, #0xc38
  400d7c:	f9402802 	ldr	x2, [x0, #80]
  400d80:	52800020 	mov	w0, #0x1                   	// #1
  400d84:	94006df1 	bl	41c548 <___printf_chk>
  400d88:	52800140 	mov	w0, #0xa                   	// #10
  400d8c:	9400228b 	bl	4097b8 <putchar>
  400d90:	fd4033e8 	ldr	d8, [sp, #96]
  400d94:	17ffff8c 	b	400bc4 <main+0x66c>
  400d98:	900002a0 	adrp	x0, 454000 <free_modules_db+0x50>
  400d9c:	110006f7 	add	w23, w23, #0x1
  400da0:	91284000 	add	x0, x0, #0xa10
  400da4:	94002203 	bl	4095b0 <_IO_puts>
  400da8:	17ffff05 	b	4009bc <main+0x464>
  400dac:	3717f000 	tbnz	w0, #2, 400bac <main+0x654>
  400db0:	17ffff69 	b	400b54 <main+0x5fc>
  400db4:	900002a0 	adrp	x0, 454000 <free_modules_db+0x50>
  400db8:	52800036 	mov	w22, #0x1                   	// #1
  400dbc:	91216000 	add	x0, x0, #0x858
  400dc0:	940021fc 	bl	4095b0 <_IO_puts>
  400dc4:	17fffe88 	b	4007e4 <main+0x28c>
  400dc8:	900002a0 	adrp	x0, 454000 <free_modules_db+0x50>
  400dcc:	52800096 	mov	w22, #0x4                   	// #4
  400dd0:	9123a000 	add	x0, x0, #0x8e8
  400dd4:	940021f7 	bl	4095b0 <_IO_puts>
  400dd8:	17fffe83 	b	4007e4 <main+0x28c>
  400ddc:	900002a0 	adrp	x0, 454000 <free_modules_db+0x50>
  400de0:	52800016 	mov	w22, #0x0                   	// #0
  400de4:	9120a000 	add	x0, x0, #0x828
  400de8:	940021f2 	bl	4095b0 <_IO_puts>
  400dec:	17fffe7e 	b	4007e4 <main+0x28c>
  400df0:	5280001a 	mov	w26, #0x0                   	// #0
  400df4:	17fffec8 	b	400914 <main+0x3bc>
  400df8:	fd0033e8 	str	d8, [sp, #96]
  400dfc:	94006e01 	bl	41c600 <__stack_chk_fail>
  400e00:	529ffffa 	mov	w26, #0xffff                	// #65535
  400e04:	12800016 	mov	w22, #0xffffffff            	// #-1
  400e08:	f0000455 	adrp	x21, 48b000 <__FRAME_END__+0xf85c>
  400e0c:	17fffec2 	b	400914 <main+0x3bc>

0000000000400e10 <_start>:
  400e10:	d280001d 	mov	x29, #0x0                   	// #0
  400e14:	d280001e 	mov	x30, #0x0                   	// #0
  400e18:	aa0003e5 	mov	x5, x0
  400e1c:	f94003e1 	ldr	x1, [sp]
  400e20:	910023e2 	add	x2, sp, #0x8
  400e24:	910003e6 	mov	x6, sp
  400e28:	d2e00000 	movz	x0, #0x0, lsl #48
  400e2c:	f2c00000 	movk	x0, #0x0, lsl #32
  400e30:	f2a00800 	movk	x0, #0x40, lsl #16
  400e34:	f280ab00 	movk	x0, #0x558
  400e38:	d2e00003 	movz	x3, #0x0, lsl #48
  400e3c:	f2c00003 	movk	x3, #0x0, lsl #32
  400e40:	f2a00803 	movk	x3, #0x40, lsl #16
  400e44:	f2860303 	movk	x3, #0x3018
  400e48:	d2e00004 	movz	x4, #0x0, lsl #48
  400e4c:	f2c00004 	movk	x4, #0x0, lsl #32
  400e50:	f2a00804 	movk	x4, #0x40, lsl #16
  400e54:	f2861c04 	movk	x4, #0x30e0
  400e58:	940006bc 	bl	402948 <__libc_start_main>
  400e5c:	97fffd39 	bl	400340 <abort>

0000000000400e60 <call_weak_fn>:
  400e60:	f0000440 	adrp	x0, 48b000 <__FRAME_END__+0xf85c>
  400e64:	f947f000 	ldr	x0, [x0, #4064]
  400e68:	b4000040 	cbz	x0, 400e70 <call_weak_fn+0x10>
  400e6c:	d503201f 	nop
  400e70:	d65f03c0 	ret
  400e74:	d503201f 	nop

0000000000400e78 <deregister_tm_clones>:
  400e78:	b0000460 	adrp	x0, 48d000 <_dl_main_map+0xa0>
  400e7c:	9126a000 	add	x0, x0, #0x9a8
  400e80:	b0000461 	adrp	x1, 48d000 <_dl_main_map+0xa0>
  400e84:	9126a021 	add	x1, x1, #0x9a8
  400e88:	eb00003f 	cmp	x1, x0
  400e8c:	540000c0 	b.eq	400ea4 <deregister_tm_clones+0x2c>  // b.none
  400e90:	900002a1 	adrp	x1, 454000 <free_modules_db+0x50>
  400e94:	f9440421 	ldr	x1, [x1, #2056]
  400e98:	b4000061 	cbz	x1, 400ea4 <deregister_tm_clones+0x2c>
  400e9c:	aa0103f0 	mov	x16, x1
  400ea0:	d61f0200 	br	x16
  400ea4:	d65f03c0 	ret

0000000000400ea8 <register_tm_clones>:
  400ea8:	b0000460 	adrp	x0, 48d000 <_dl_main_map+0xa0>
  400eac:	9126a000 	add	x0, x0, #0x9a8
  400eb0:	b0000461 	adrp	x1, 48d000 <_dl_main_map+0xa0>
  400eb4:	9126a021 	add	x1, x1, #0x9a8
  400eb8:	cb000021 	sub	x1, x1, x0
  400ebc:	d37ffc22 	lsr	x2, x1, #63
  400ec0:	8b810c41 	add	x1, x2, x1, asr #3
  400ec4:	eb8107ff 	cmp	xzr, x1, asr #1
  400ec8:	9341fc21 	asr	x1, x1, #1
  400ecc:	540000c0 	b.eq	400ee4 <register_tm_clones+0x3c>  // b.none
  400ed0:	900002a2 	adrp	x2, 454000 <free_modules_db+0x50>
  400ed4:	f9440842 	ldr	x2, [x2, #2064]
  400ed8:	b4000062 	cbz	x2, 400ee4 <register_tm_clones+0x3c>
  400edc:	aa0203f0 	mov	x16, x2
  400ee0:	d61f0200 	br	x16
  400ee4:	d65f03c0 	ret

0000000000400ee8 <__do_global_dtors_aux>:
  400ee8:	a9be7bfd 	stp	x29, x30, [sp, #-32]!
  400eec:	910003fd 	mov	x29, sp
  400ef0:	f9000bf3 	str	x19, [sp, #16]
  400ef4:	b0000473 	adrp	x19, 48d000 <_dl_main_map+0xa0>
  400ef8:	3966a260 	ldrb	w0, [x19, #2472]
  400efc:	35000140 	cbnz	w0, 400f24 <__do_global_dtors_aux+0x3c>
  400f00:	97ffffde 	bl	400e78 <deregister_tm_clones>
  400f04:	900002a0 	adrp	x0, 454000 <free_modules_db+0x50>
  400f08:	f9440c00 	ldr	x0, [x0, #2072]
  400f0c:	b4000080 	cbz	x0, 400f1c <__do_global_dtors_aux+0x34>
  400f10:	b0000380 	adrp	x0, 471000 <_IO_file_jumps_maybe_mmap+0x98>
  400f14:	91084000 	add	x0, x0, #0x210
  400f18:	9401496e 	bl	4534d0 <__deregister_frame_info>
  400f1c:	52800020 	mov	w0, #0x1                   	// #1
  400f20:	3926a260 	strb	w0, [x19, #2472]
  400f24:	f9400bf3 	ldr	x19, [sp, #16]
  400f28:	a8c27bfd 	ldp	x29, x30, [sp], #32
  400f2c:	d65f03c0 	ret

0000000000400f30 <frame_dummy>:
  400f30:	900002a0 	adrp	x0, 454000 <free_modules_db+0x50>
  400f34:	f9441000 	ldr	x0, [x0, #2080]
  400f38:	b4000140 	cbz	x0, 400f60 <frame_dummy+0x30>
  400f3c:	a9bf7bfd 	stp	x29, x30, [sp, #-16]!
  400f40:	b0000461 	adrp	x1, 48d000 <_dl_main_map+0xa0>
  400f44:	b0000380 	adrp	x0, 471000 <_IO_file_jumps_maybe_mmap+0x98>
  400f48:	910003fd 	mov	x29, sp
  400f4c:	9126c021 	add	x1, x1, #0x9b0
  400f50:	91084000 	add	x0, x0, #0x210
  400f54:	940148bd 	bl	453248 <__register_frame_info>
  400f58:	a8c17bfd 	ldp	x29, x30, [sp], #16
  400f5c:	17ffffd3 	b	400ea8 <register_tm_clones>
  400f60:	17ffffd2 	b	400ea8 <register_tm_clones>
  400f64:	d503201f 	nop

0000000000400f68 <cmp_idx>:
  400f68:	b40000a2 	cbz	x2, 400f7c <cmp_idx+0x14>
  400f6c:	79c00402 	ldrsh	w2, [x0, #2]
  400f70:	79c00420 	ldrsh	w0, [x1, #2]
  400f74:	4b000040 	sub	w0, w2, w0
  400f78:	d65f03c0 	ret
  400f7c:	79c00002 	ldrsh	w2, [x0]
  400f80:	12185c43 	and	w3, w2, #0xffffff00
  400f84:	d3483c42 	ubfx	x2, x2, #8, #8
  400f88:	2a020062 	orr	w2, w3, w2
  400f8c:	79000002 	strh	w2, [x0]
  400f90:	79c00022 	ldrsh	w2, [x1]
  400f94:	12185c43 	and	w3, w2, #0xffffff00
  400f98:	d3483c42 	ubfx	x2, x2, #8, #8
  400f9c:	2a020062 	orr	w2, w3, w2
  400fa0:	79000022 	strh	w2, [x1]
  400fa4:	79c00402 	ldrsh	w2, [x0, #2]
  400fa8:	79c00420 	ldrsh	w0, [x1, #2]
  400fac:	4b000040 	sub	w0, w2, w0
  400fb0:	d65f03c0 	ret
  400fb4:	d503201f 	nop

0000000000400fb8 <calc_func>:
  400fb8:	a9bd7bfd 	stp	x29, x30, [sp, #-48]!
  400fbc:	910003fd 	mov	x29, sp
  400fc0:	a90153f3 	stp	x19, x20, [sp, #16]
  400fc4:	79c00013 	ldrsh	w19, [x0]
  400fc8:	363800b3 	tbz	w19, #7, 400fdc <calc_func+0x24>
  400fcc:	12001a60 	and	w0, w19, #0x7f
  400fd0:	a94153f3 	ldp	x19, x20, [sp, #16]
  400fd4:	a8c37bfd 	ldp	x29, x30, [sp], #48
  400fd8:	d65f03c0 	ret
  400fdc:	d3431a64 	ubfx	x4, x19, #3, #4
  400fe0:	a9025bf5 	stp	x21, x22, [sp, #32]
  400fe4:	aa0103f4 	mov	x20, x1
  400fe8:	aa0003f5 	mov	x21, x0
  400fec:	7940c021 	ldrh	w1, [x1, #96]
  400ff0:	72000a60 	ands	w0, w19, #0x7
  400ff4:	2a041084 	orr	w4, w4, w4, lsl #4
  400ff8:	540003a0 	b.eq	40106c <calc_func+0xb4>  // b.none
  400ffc:	7100041f 	cmp	w0, #0x1
  401000:	540001e0 	b.eq	40103c <calc_func+0x84>  // b.none
  401004:	12003e60 	and	w0, w19, #0xffff
  401008:	2a1303f6 	mov	w22, w19
  40100c:	940005f5 	bl	4027e0 <crcu16>
  401010:	12185e73 	and	w19, w19, #0xffffff00
  401014:	2a0003e1 	mov	w1, w0
  401018:	12001ac0 	and	w0, w22, #0x7f
  40101c:	2a130013 	orr	w19, w0, w19
  401020:	7900c281 	strh	w1, [x20, #96]
  401024:	32190273 	orr	w19, w19, #0x80
  401028:	790002b3 	strh	w19, [x21]
  40102c:	a94153f3 	ldp	x19, x20, [sp, #16]
  401030:	a9425bf5 	ldp	x21, x22, [sp, #32]
  401034:	a8c37bfd 	ldp	x29, x30, [sp], #48
  401038:	d65f03c0 	ret
  40103c:	2a0103e2 	mov	w2, w1
  401040:	91010280 	add	x0, x20, #0x40
  401044:	2a0403e1 	mov	w1, w4
  401048:	940003c0 	bl	401f48 <core_bench_matrix>
  40104c:	7940ca81 	ldrh	w1, [x20, #100]
  401050:	2a0003e2 	mov	w2, w0
  401054:	12003c00 	and	w0, w0, #0xffff
  401058:	13003c56 	sxth	w22, w2
  40105c:	350002a1 	cbnz	w1, 4010b0 <calc_func+0xf8>
  401060:	7940c281 	ldrh	w1, [x20, #96]
  401064:	7900ca82 	strh	w2, [x20, #100]
  401068:	17ffffe9 	b	40100c <calc_func+0x54>
  40106c:	79400282 	ldrh	w2, [x20]
  401070:	2a0103e5 	mov	w5, w1
  401074:	79400683 	ldrh	w3, [x20, #2]
  401078:	7100889f 	cmp	w4, #0x22
  40107c:	b9402a80 	ldr	w0, [x20, #40]
  401080:	52800446 	mov	w6, #0x22                  	// #34
  401084:	f9401281 	ldr	x1, [x20, #32]
  401088:	1a86a084 	csel	w4, w4, w6, ge  // ge = tcont
  40108c:	94000501 	bl	402490 <core_bench_state>
  401090:	2a0003e2 	mov	w2, w0
  401094:	7940ce81 	ldrh	w1, [x20, #102]
  401098:	12003c00 	and	w0, w0, #0xffff
  40109c:	13003c56 	sxth	w22, w2
  4010a0:	35000081 	cbnz	w1, 4010b0 <calc_func+0xf8>
  4010a4:	7940c281 	ldrh	w1, [x20, #96]
  4010a8:	7900ce82 	strh	w2, [x20, #102]
  4010ac:	17ffffd8 	b	40100c <calc_func+0x54>
  4010b0:	7940c281 	ldrh	w1, [x20, #96]
  4010b4:	17ffffd6 	b	40100c <calc_func+0x54>

00000000004010b8 <cmp_complex>:
  4010b8:	a9be7bfd 	stp	x29, x30, [sp, #-32]!
  4010bc:	910003fd 	mov	x29, sp
  4010c0:	a90153f3 	stp	x19, x20, [sp, #16]
  4010c4:	aa0203f3 	mov	x19, x2
  4010c8:	aa0103f4 	mov	x20, x1
  4010cc:	aa0203e1 	mov	x1, x2
  4010d0:	97ffffba 	bl	400fb8 <calc_func>
  4010d4:	2a0003e2 	mov	w2, w0
  4010d8:	aa1303e1 	mov	x1, x19
  4010dc:	aa1403e0 	mov	x0, x20
  4010e0:	13003c53 	sxth	w19, w2
  4010e4:	97ffffb5 	bl	400fb8 <calc_func>
  4010e8:	4b20a260 	sub	w0, w19, w0, sxth
  4010ec:	a94153f3 	ldp	x19, x20, [sp, #16]
  4010f0:	a8c27bfd 	ldp	x29, x30, [sp], #32
  4010f4:	d65f03c0 	ret

00000000004010f8 <copy_info>:
  4010f8:	79c00022 	ldrsh	w2, [x1]
  4010fc:	79c00421 	ldrsh	w1, [x1, #2]
  401100:	79000002 	strh	w2, [x0]
  401104:	79000401 	strh	w1, [x0, #2]
  401108:	d65f03c0 	ret
  40110c:	d503201f 	nop

0000000000401110 <core_list_insert_new>:
  401110:	aa0003e6 	mov	x6, x0
  401114:	f9400040 	ldr	x0, [x2]
  401118:	91004007 	add	x7, x0, #0x10
  40111c:	eb0400ff 	cmp	x7, x4
  401120:	54000262 	b.cs	40116c <core_list_insert_new+0x5c>  // b.hs, b.nlast
  401124:	f9400064 	ldr	x4, [x3]
  401128:	91001088 	add	x8, x4, #0x4
  40112c:	eb0800bf 	cmp	x5, x8
  401130:	540001e9 	b.ls	40116c <core_list_insert_new+0x5c>  // b.plast
  401134:	79c00025 	ldrsh	w5, [x1]
  401138:	f9000047 	str	x7, [x2]
  40113c:	f94000c2 	ldr	x2, [x6]
  401140:	f9000002 	str	x2, [x0]
  401144:	79c00422 	ldrsh	w2, [x1, #2]
  401148:	f90000c0 	str	x0, [x6]
  40114c:	f9000404 	str	x4, [x0, #8]
  401150:	f9400061 	ldr	x1, [x3]
  401154:	91001021 	add	x1, x1, #0x4
  401158:	f9000061 	str	x1, [x3]
  40115c:	f9400401 	ldr	x1, [x0, #8]
  401160:	79000025 	strh	w5, [x1]
  401164:	79000422 	strh	w2, [x1, #2]
  401168:	d65f03c0 	ret
  40116c:	d2800000 	mov	x0, #0x0                   	// #0
  401170:	d65f03c0 	ret
  401174:	d503201f 	nop

0000000000401178 <core_list_remove>:
  401178:	aa0003e1 	mov	x1, x0
  40117c:	a9400800 	ldp	x0, x2, [x0]
  401180:	f9400403 	ldr	x3, [x0, #8]
  401184:	f9000423 	str	x3, [x1, #8]
  401188:	f9000402 	str	x2, [x0, #8]
  40118c:	f9400002 	ldr	x2, [x0]
  401190:	f9000022 	str	x2, [x1]
  401194:	f900001f 	str	xzr, [x0]
  401198:	d65f03c0 	ret
  40119c:	d503201f 	nop

00000000004011a0 <core_list_undo_remove>:
  4011a0:	f9400424 	ldr	x4, [x1, #8]
  4011a4:	f9400403 	ldr	x3, [x0, #8]
  4011a8:	f9000404 	str	x4, [x0, #8]
  4011ac:	f9000423 	str	x3, [x1, #8]
  4011b0:	f9400023 	ldr	x3, [x1]
  4011b4:	f9000003 	str	x3, [x0]
  4011b8:	f9000020 	str	x0, [x1]
  4011bc:	d65f03c0 	ret

00000000004011c0 <core_list_find>:
  4011c0:	79c00422 	ldrsh	w2, [x1, #2]
  4011c4:	37f80142 	tbnz	w2, #31, 4011ec <core_list_find+0x2c>
  4011c8:	b5000080 	cbnz	x0, 4011d8 <core_list_find+0x18>
  4011cc:	14000007 	b	4011e8 <core_list_find+0x28>
  4011d0:	f9400000 	ldr	x0, [x0]
  4011d4:	b4000200 	cbz	x0, 401214 <core_list_find+0x54>
  4011d8:	f9400401 	ldr	x1, [x0, #8]
  4011dc:	79c00421 	ldrsh	w1, [x1, #2]
  4011e0:	6b02003f 	cmp	w1, w2
  4011e4:	54ffff61 	b.ne	4011d0 <core_list_find+0x10>  // b.any
  4011e8:	d65f03c0 	ret
  4011ec:	b4000140 	cbz	x0, 401214 <core_list_find+0x54>
  4011f0:	79c00022 	ldrsh	w2, [x1]
  4011f4:	14000003 	b	401200 <core_list_find+0x40>
  4011f8:	f9400000 	ldr	x0, [x0]
  4011fc:	b4ffff60 	cbz	x0, 4011e8 <core_list_find+0x28>
  401200:	f9400401 	ldr	x1, [x0, #8]
  401204:	39400021 	ldrb	w1, [x1]
  401208:	6b02003f 	cmp	w1, w2
  40120c:	54ffff61 	b.ne	4011f8 <core_list_find+0x38>  // b.any
  401210:	d65f03c0 	ret
  401214:	d2800000 	mov	x0, #0x0                   	// #0
  401218:	d65f03c0 	ret
  40121c:	d503201f 	nop

0000000000401220 <core_list_reverse>:
  401220:	b4000100 	cbz	x0, 401240 <core_list_reverse+0x20>
  401224:	d2800002 	mov	x2, #0x0                   	// #0
  401228:	14000002 	b	401230 <core_list_reverse+0x10>
  40122c:	aa0103e0 	mov	x0, x1
  401230:	f9400001 	ldr	x1, [x0]
  401234:	f9000002 	str	x2, [x0]
  401238:	aa0003e2 	mov	x2, x0
  40123c:	b5ffff81 	cbnz	x1, 40122c <core_list_reverse+0xc>
  401240:	d65f03c0 	ret
  401244:	d503201f 	nop

0000000000401248 <core_list_mergesort>:
  401248:	a9ba7bfd 	stp	x29, x30, [sp, #-96]!
  40124c:	910003fd 	mov	x29, sp
  401250:	a90153f3 	stp	x19, x20, [sp, #16]
  401254:	aa0003f3 	mov	x19, x0
  401258:	a9046bf9 	stp	x25, x26, [sp, #64]
  40125c:	aa0103fa 	mov	x26, x1
  401260:	a90573fb 	stp	x27, x28, [sp, #80]
  401264:	aa0203fc 	mov	x28, x2
  401268:	a9025bf5 	stp	x21, x22, [sp, #32]
  40126c:	a90363f7 	stp	x23, x24, [sp, #48]
  401270:	52800038 	mov	w24, #0x1                   	// #1
  401274:	b40006f3 	cbz	x19, 401350 <core_list_mergesort+0x108>
  401278:	5280001b 	mov	w27, #0x0                   	// #0
  40127c:	d2800015 	mov	x21, #0x0                   	// #0
  401280:	d2800019 	mov	x25, #0x0                   	// #0
  401284:	d503201f 	nop
  401288:	1100077b 	add	w27, w27, #0x1
  40128c:	aa1303e0 	mov	x0, x19
  401290:	52800014 	mov	w20, #0x0                   	// #0
  401294:	d503201f 	nop
  401298:	f9400000 	ldr	x0, [x0]
  40129c:	11000694 	add	w20, w20, #0x1
  4012a0:	b4000060 	cbz	x0, 4012ac <core_list_mergesort+0x64>
  4012a4:	6b14031f 	cmp	w24, w20
  4012a8:	54ffff81 	b.ne	401298 <core_list_mergesort+0x50>  // b.any
  4012ac:	2a1803f6 	mov	w22, w24
  4012b0:	aa1303f7 	mov	x23, x19
  4012b4:	710002df 	cmp	w22, #0x0
  4012b8:	aa0003f3 	mov	x19, x0
  4012bc:	34000234 	cbz	w20, 401300 <core_list_mergesort+0xb8>
  4012c0:	fa401a64 	ccmp	x19, #0x0, #0x4, ne  // ne = any
  4012c4:	54000300 	b.eq	401324 <core_list_mergesort+0xdc>  // b.none
  4012c8:	f9400661 	ldr	x1, [x19, #8]
  4012cc:	aa1c03e2 	mov	x2, x28
  4012d0:	f94006e0 	ldr	x0, [x23, #8]
  4012d4:	d63f0340 	blr	x26
  4012d8:	7100001f 	cmp	w0, #0x0
  4012dc:	5400024d 	b.le	401324 <core_list_mergesort+0xdc>
  4012e0:	aa1303e0 	mov	x0, x19
  4012e4:	510006d6 	sub	w22, w22, #0x1
  4012e8:	f9400273 	ldr	x19, [x19]
  4012ec:	b4000175 	cbz	x21, 401318 <core_list_mergesort+0xd0>
  4012f0:	f90002a0 	str	x0, [x21]
  4012f4:	aa0003f5 	mov	x21, x0
  4012f8:	710002df 	cmp	w22, #0x0
  4012fc:	35fffe34 	cbnz	w20, 4012c0 <core_list_mergesort+0x78>
  401300:	fa40ca64 	ccmp	x19, #0x0, #0x4, gt
  401304:	54000180 	b.eq	401334 <core_list_mergesort+0xec>  // b.none
  401308:	aa1303e0 	mov	x0, x19
  40130c:	510006d6 	sub	w22, w22, #0x1
  401310:	f9400273 	ldr	x19, [x19]
  401314:	b5fffef5 	cbnz	x21, 4012f0 <core_list_mergesort+0xa8>
  401318:	aa0003f9 	mov	x25, x0
  40131c:	aa0003f5 	mov	x21, x0
  401320:	17fffff6 	b	4012f8 <core_list_mergesort+0xb0>
  401324:	aa1703e0 	mov	x0, x23
  401328:	51000694 	sub	w20, w20, #0x1
  40132c:	f94002f7 	ldr	x23, [x23]
  401330:	17ffffef 	b	4012ec <core_list_mergesort+0xa4>
  401334:	b5fffab3 	cbnz	x19, 401288 <core_list_mergesort+0x40>
  401338:	f90002bf 	str	xzr, [x21]
  40133c:	7100077f 	cmp	w27, #0x1
  401340:	540000c0 	b.eq	401358 <core_list_mergesort+0x110>  // b.none
  401344:	531f7b18 	lsl	w24, w24, #1
  401348:	aa1903f3 	mov	x19, x25
  40134c:	17ffffca 	b	401274 <core_list_mergesort+0x2c>
  401350:	f900027f 	str	xzr, [x19]
  401354:	d4207d00 	brk	#0x3e8
  401358:	aa1903e0 	mov	x0, x25
  40135c:	a94153f3 	ldp	x19, x20, [sp, #16]
  401360:	a9425bf5 	ldp	x21, x22, [sp, #32]
  401364:	a94363f7 	ldp	x23, x24, [sp, #48]
  401368:	a9446bf9 	ldp	x25, x26, [sp, #64]
  40136c:	a94573fb 	ldp	x27, x28, [sp, #80]
  401370:	a8c67bfd 	ldp	x29, x30, [sp], #96
  401374:	d65f03c0 	ret

0000000000401378 <core_bench_list>:
  401378:	a9bb7bfd 	stp	x29, x30, [sp, #-80]!
  40137c:	aa0003e8 	mov	x8, x0
  401380:	13003c29 	sxth	w9, w1
  401384:	910003fd 	mov	x29, sp
  401388:	a9025bf5 	stp	x21, x22, [sp, #32]
  40138c:	d0000455 	adrp	x21, 48b000 <__FRAME_END__+0xf85c>
  401390:	79c0090b 	ldrsh	w11, [x8, #4]
  401394:	f947a6a0 	ldr	x0, [x21, #3912]
  401398:	a90153f3 	stp	x19, x20, [sp, #16]
  40139c:	7100017f 	cmp	w11, #0x0
  4013a0:	f9400001 	ldr	x1, [x0]
  4013a4:	f90027e1 	str	x1, [sp, #72]
  4013a8:	d2800001 	mov	x1, #0x0                   	// #0
  4013ac:	790087e9 	strh	w9, [sp, #66]
  4013b0:	f9401d13 	ldr	x19, [x8, #56]
  4013b4:	f9001bf7 	str	x23, [sp, #48]
  4013b8:	54000f8d 	b.le	4015a8 <core_bench_list+0x230>
  4013bc:	2a0903e5 	mov	w5, w9
  4013c0:	910103f6 	add	x22, sp, #0x40
  4013c4:	52800004 	mov	w4, #0x0                   	// #0
  4013c8:	5280000a 	mov	w10, #0x0                   	// #0
  4013cc:	52800003 	mov	w3, #0x0                   	// #0
  4013d0:	52800006 	mov	w6, #0x0                   	// #0
  4013d4:	d503201f 	nop
  4013d8:	12001c82 	and	w2, w4, #0xff
  4013dc:	aa1603e1 	mov	x1, x22
  4013e0:	aa1303e0 	mov	x0, x19
  4013e4:	790083e2 	strh	w2, [sp, #64]
  4013e8:	97ffff76 	bl	4011c0 <core_list_find>
  4013ec:	b4000113 	cbz	x19, 40140c <core_bench_list+0x94>
  4013f0:	d2800002 	mov	x2, #0x0                   	// #0
  4013f4:	14000002 	b	4013fc <core_bench_list+0x84>
  4013f8:	aa0103f3 	mov	x19, x1
  4013fc:	f9400261 	ldr	x1, [x19]
  401400:	f9000262 	str	x2, [x19]
  401404:	aa1303e2 	mov	x2, x19
  401408:	b5ffff81 	cbnz	x1, 4013f8 <core_bench_list+0x80>
  40140c:	b4000320 	cbz	x0, 401470 <core_bench_list+0xf8>
  401410:	a9400402 	ldp	x2, x1, [x0]
  401414:	11000463 	add	w3, w3, #0x1
  401418:	12003c63 	and	w3, w3, #0xffff
  40141c:	79c00027 	ldrsh	w7, [x1]
  401420:	d34924e1 	ubfx	x1, x7, #9, #1
  401424:	f24000ff 	tst	x7, #0x1
  401428:	0b0100c1 	add	w1, w6, w1
  40142c:	12003c21 	and	w1, w1, #0xffff
  401430:	1a861026 	csel	w6, w1, w6, ne  // ne = any
  401434:	b40000c2 	cbz	x2, 40144c <core_bench_list+0xd4>
  401438:	f9400041 	ldr	x1, [x2]
  40143c:	f9000001 	str	x1, [x0]
  401440:	f9400260 	ldr	x0, [x19]
  401444:	f9000040 	str	x0, [x2]
  401448:	f9000262 	str	x2, [x19]
  40144c:	37f80065 	tbnz	w5, #31, 401458 <core_bench_list+0xe0>
  401450:	110004a5 	add	w5, w5, #0x1
  401454:	790087e5 	strh	w5, [sp, #66]
  401458:	11000484 	add	w4, w4, #0x1
  40145c:	6b24a17f 	cmp	w11, w4, sxth
  401460:	13003c84 	sxth	w4, w4
  401464:	54000180 	b.eq	401494 <core_bench_list+0x11c>  // b.none
  401468:	79c087e5 	ldrsh	w5, [sp, #66]
  40146c:	17ffffdb 	b	4013d8 <core_bench_list+0x60>
  401470:	f9400260 	ldr	x0, [x19]
  401474:	11000554 	add	w20, w10, #0x1
  401478:	12003e8a 	and	w10, w20, #0xffff
  40147c:	f9400400 	ldr	x0, [x0, #8]
  401480:	39c00414 	ldrsb	w20, [x0, #1]
  401484:	12000294 	and	w20, w20, #0x1
  401488:	0b1400d4 	add	w20, w6, w20
  40148c:	12003e86 	and	w6, w20, #0xffff
  401490:	17ffffef 	b	40144c <core_bench_list+0xd4>
  401494:	0b0308d4 	add	w20, w6, w3, lsl #2
  401498:	4b0a0294 	sub	w20, w20, w10
  40149c:	12003e94 	and	w20, w20, #0xffff
  4014a0:	7100013f 	cmp	w9, #0x0
  4014a4:	540000ed 	b.le	4014c0 <core_bench_list+0x148>
  4014a8:	aa1303e0 	mov	x0, x19
  4014ac:	aa0803e2 	mov	x2, x8
  4014b0:	90000001 	adrp	x1, 401000 <calc_func+0x48>
  4014b4:	9102e021 	add	x1, x1, #0xb8
  4014b8:	97ffff64 	bl	401248 <core_list_mergesort>
  4014bc:	aa0003f3 	mov	x19, x0
  4014c0:	f9400262 	ldr	x2, [x19]
  4014c4:	aa1603e1 	mov	x1, x22
  4014c8:	aa1303e0 	mov	x0, x19
  4014cc:	a9400c57 	ldp	x23, x3, [x2]
  4014d0:	f94006e4 	ldr	x4, [x23, #8]
  4014d4:	f9000444 	str	x4, [x2, #8]
  4014d8:	f90006e3 	str	x3, [x23, #8]
  4014dc:	f94002e4 	ldr	x4, [x23]
  4014e0:	f9000044 	str	x4, [x2]
  4014e4:	f90002ff 	str	xzr, [x23]
  4014e8:	97ffff36 	bl	4011c0 <core_list_find>
  4014ec:	aa0003f6 	mov	x22, x0
  4014f0:	b4000560 	cbz	x0, 40159c <core_bench_list+0x224>
  4014f4:	d503201f 	nop
  4014f8:	f9400660 	ldr	x0, [x19, #8]
  4014fc:	2a1403e1 	mov	w1, w20
  401500:	79400000 	ldrh	w0, [x0]
  401504:	940004df 	bl	402880 <crc16>
  401508:	12003c14 	and	w20, w0, #0xffff
  40150c:	f94002d6 	ldr	x22, [x22]
  401510:	b5ffff56 	cbnz	x22, 4014f8 <core_bench_list+0x180>
  401514:	f9400276 	ldr	x22, [x19]
  401518:	f94006e3 	ldr	x3, [x23, #8]
  40151c:	aa1303e0 	mov	x0, x19
  401520:	a94006c2 	ldp	x2, x1, [x22]
  401524:	f90006e1 	str	x1, [x23, #8]
  401528:	f90006c3 	str	x3, [x22, #8]
  40152c:	f90002e2 	str	x2, [x23]
  401530:	f90002d7 	str	x23, [x22]
  401534:	f0ffffe1 	adrp	x1, 400000 <__ehdr_start>
  401538:	d2800002 	mov	x2, #0x0                   	// #0
  40153c:	913da021 	add	x1, x1, #0xf68
  401540:	97ffff42 	bl	401248 <core_list_mergesort>
  401544:	aa0003f6 	mov	x22, x0
  401548:	f9400013 	ldr	x19, [x0]
  40154c:	b4000113 	cbz	x19, 40156c <core_bench_list+0x1f4>
  401550:	f94006c2 	ldr	x2, [x22, #8]
  401554:	2a1403e1 	mov	w1, w20
  401558:	79400040 	ldrh	w0, [x2]
  40155c:	940004c9 	bl	402880 <crc16>
  401560:	12003c14 	and	w20, w0, #0xffff
  401564:	f9400273 	ldr	x19, [x19]
  401568:	b5ffff53 	cbnz	x19, 401550 <core_bench_list+0x1d8>
  40156c:	f947a6b5 	ldr	x21, [x21, #3912]
  401570:	f94027e0 	ldr	x0, [sp, #72]
  401574:	f94002a1 	ldr	x1, [x21]
  401578:	eb010000 	subs	x0, x0, x1
  40157c:	d2800001 	mov	x1, #0x0                   	// #0
  401580:	540001a1 	b.ne	4015b4 <core_bench_list+0x23c>  // b.any
  401584:	2a1403e0 	mov	w0, w20
  401588:	a94153f3 	ldp	x19, x20, [sp, #16]
  40158c:	a9425bf5 	ldp	x21, x22, [sp, #32]
  401590:	f9401bf7 	ldr	x23, [sp, #48]
  401594:	a8c57bfd 	ldp	x29, x30, [sp], #80
  401598:	d65f03c0 	ret
  40159c:	f9400276 	ldr	x22, [x19]
  4015a0:	b5fffad6 	cbnz	x22, 4014f8 <core_bench_list+0x180>
  4015a4:	17ffffde 	b	40151c <core_bench_list+0x1a4>
  4015a8:	910103f6 	add	x22, sp, #0x40
  4015ac:	52800014 	mov	w20, #0x0                   	// #0
  4015b0:	17ffffbc 	b	4014a0 <core_bench_list+0x128>
  4015b4:	94006c13 	bl	41c600 <__stack_chk_fail>

00000000004015b8 <core_list_init>:
  4015b8:	2a0003e3 	mov	w3, w0
  4015bc:	529999a9 	mov	w9, #0xcccd                	// #52429
  4015c0:	72b99989 	movk	w9, #0xcccc, lsl #16
  4015c4:	aa0103e0 	mov	x0, x1
  4015c8:	91008025 	add	x5, x1, #0x20
  4015cc:	91004028 	add	x8, x1, #0x10
  4015d0:	9ba97c69 	umull	x9, w3, w9
  4015d4:	52901004 	mov	w4, #0x8080                	// #32896
  4015d8:	13003c42 	sxth	w2, w2
  4015dc:	d364fd29 	lsr	x9, x9, #36
  4015e0:	51000929 	sub	w9, w9, #0x2
  4015e4:	d37c7d23 	ubfiz	x3, x9, #4, #32
  4015e8:	8b030021 	add	x1, x1, x3
  4015ec:	a900041f 	stp	xzr, x1, [x0]
  4015f0:	8b29482d 	add	x13, x1, w9, uxtw #2
  4015f4:	b8236804 	str	w4, [x0, x3]
  4015f8:	91001026 	add	x6, x1, #0x4
  4015fc:	eb05003f 	cmp	x1, x5
  401600:	540007a9 	b.ls	4016f4 <core_list_init+0x13c>  // b.plast
  401604:	91002027 	add	x7, x1, #0x8
  401608:	eb0701bf 	cmp	x13, x7
  40160c:	540007c9 	b.ls	401704 <core_list_init+0x14c>  // b.plast
  401610:	f9000008 	str	x8, [x0]
  401614:	12b00003 	mov	w3, #0x7fffffff            	// #2147483647
  401618:	a901181f 	stp	xzr, x6, [x0, #16]
  40161c:	b9000423 	str	w3, [x1, #4]
  401620:	34000369 	cbz	w9, 40168c <core_list_init+0xd4>
  401624:	12003c4c 	and	w12, w2, #0xffff
  401628:	52800006 	mov	w6, #0x0                   	// #0
  40162c:	528fffee 	mov	w14, #0x7fff                	// #32767
  401630:	12003cc4 	and	w4, w6, #0xffff
  401634:	910040aa 	add	x10, x5, #0x10
  401638:	4a040183 	eor	w3, w12, w4
  40163c:	12000884 	and	w4, w4, #0x7
  401640:	110004c6 	add	w6, w6, #0x1
  401644:	910010eb 	add	x11, x7, #0x4
  401648:	531d0c63 	ubfiz	w3, w3, #3, #4
  40164c:	eb0a003f 	cmp	x1, x10
  401650:	2a040063 	orr	w3, w3, w4
  401654:	54000189 	b.ls	401684 <core_list_init+0xcc>  // b.plast
  401658:	eb0b01bf 	cmp	x13, x11
  40165c:	54000149 	b.ls	401684 <core_list_init+0xcc>  // b.plast
  401660:	f90000a8 	str	x8, [x5]
  401664:	2a032063 	orr	w3, w3, w3, lsl #8
  401668:	f9000005 	str	x5, [x0]
  40166c:	aa0503e8 	mov	x8, x5
  401670:	f90004a7 	str	x7, [x5, #8]
  401674:	aa0a03e5 	mov	x5, x10
  401678:	790000e3 	strh	w3, [x7]
  40167c:	790004ee 	strh	w14, [x7, #2]
  401680:	aa0b03e7 	mov	x7, x11
  401684:	6b06013f 	cmp	w9, w6
  401688:	54fffd41 	b.ne	401630 <core_list_init+0x78>  // b.any
  40168c:	f9400106 	ldr	x6, [x8]
  401690:	b40002a6 	cbz	x6, 4016e4 <core_list_init+0x12c>
  401694:	529999a1 	mov	w1, #0xcccd                	// #52429
  401698:	52800024 	mov	w4, #0x1                   	// #1
  40169c:	72b99981 	movk	w1, #0xcccc, lsl #16
  4016a0:	9ba17d29 	umull	x9, w9, w1
  4016a4:	d362fd29 	lsr	x9, x9, #34
  4016a8:	12003c85 	and	w5, w4, #0xffff
  4016ac:	6b04013f 	cmp	w9, w4
  4016b0:	110004a3 	add	w3, w5, #0x1
  4016b4:	4a0200a5 	eor	w5, w5, w2
  4016b8:	f9400501 	ldr	x1, [x8, #8]
  4016bc:	53180863 	ubfiz	w3, w3, #8, #3
  4016c0:	2a050063 	orr	w3, w3, w5
  4016c4:	aa0603e8 	mov	x8, x6
  4016c8:	f94000c5 	ldr	x5, [x6]
  4016cc:	12003463 	and	w3, w3, #0x3fff
  4016d0:	1a849063 	csel	w3, w3, w4, ls  // ls = plast
  4016d4:	79000423 	strh	w3, [x1, #2]
  4016d8:	11000484 	add	w4, w4, #0x1
  4016dc:	aa0503e6 	mov	x6, x5
  4016e0:	b5fffe45 	cbnz	x5, 4016a8 <core_list_init+0xf0>
  4016e4:	f0ffffe1 	adrp	x1, 400000 <__ehdr_start>
  4016e8:	d2800002 	mov	x2, #0x0                   	// #0
  4016ec:	913da021 	add	x1, x1, #0xf68
  4016f0:	17fffed6 	b	401248 <core_list_mergesort>
  4016f4:	aa0803e5 	mov	x5, x8
  4016f8:	aa0603e7 	mov	x7, x6
  4016fc:	d2800008 	mov	x8, #0x0                   	// #0
  401700:	17ffffc8 	b	401620 <core_list_init+0x68>
  401704:	aa0803e5 	mov	x5, x8
  401708:	aa0603e7 	mov	x7, x6
  40170c:	d2800008 	mov	x8, #0x0                   	// #0
  401710:	17ffffc4 	b	401620 <core_list_init+0x68>
  401714:	d503201f 	nop

0000000000401718 <iterate>:
  401718:	a9bd7bfd 	stp	x29, x30, [sp, #-48]!
  40171c:	910003fd 	mov	x29, sp
  401720:	f90013f5 	str	x21, [sp, #32]
  401724:	b9402c15 	ldr	w21, [x0, #44]
  401728:	f900301f 	str	xzr, [x0, #96]
  40172c:	340002f5 	cbz	w21, 401788 <iterate+0x70>
  401730:	a90153f3 	stp	x19, x20, [sp, #16]
  401734:	aa0003f3 	mov	x19, x0
  401738:	52800014 	mov	w20, #0x0                   	// #0
  40173c:	d503201f 	nop
  401740:	52800021 	mov	w1, #0x1                   	// #1
  401744:	aa1303e0 	mov	x0, x19
  401748:	97ffff0c 	bl	401378 <core_bench_list>
  40174c:	7940c261 	ldrh	w1, [x19, #96]
  401750:	94000424 	bl	4027e0 <crcu16>
  401754:	7900c260 	strh	w0, [x19, #96]
  401758:	12800001 	mov	w1, #0xffffffff            	// #-1
  40175c:	aa1303e0 	mov	x0, x19
  401760:	97ffff06 	bl	401378 <core_bench_list>
  401764:	7940c261 	ldrh	w1, [x19, #96]
  401768:	9400041e 	bl	4027e0 <crcu16>
  40176c:	7900c260 	strh	w0, [x19, #96]
  401770:	35000054 	cbnz	w20, 401778 <iterate+0x60>
  401774:	7900c660 	strh	w0, [x19, #98]
  401778:	11000694 	add	w20, w20, #0x1
  40177c:	6b1402bf 	cmp	w21, w20
  401780:	54fffe01 	b.ne	401740 <iterate+0x28>  // b.any
  401784:	a94153f3 	ldp	x19, x20, [sp, #16]
  401788:	d2800000 	mov	x0, #0x0                   	// #0
  40178c:	f94013f5 	ldr	x21, [sp, #32]
  401790:	a8c37bfd 	ldp	x29, x30, [sp], #48
  401794:	d65f03c0 	ret

0000000000401798 <core_init_matrix>:
  401798:	d1000427 	sub	x7, x1, #0x1
  40179c:	7100005f 	cmp	w2, #0x0
  4017a0:	927ef4e7 	and	x7, x7, #0xfffffffffffffffc
  4017a4:	1a9f1442 	csinc	w2, w2, wzr, ne  // ne = any
  4017a8:	2a0003e5 	mov	w5, w0
  4017ac:	910010e9 	add	x9, x7, #0x4
  4017b0:	52800001 	mov	w1, #0x0                   	// #0
  4017b4:	34000680 	cbz	w0, 401884 <core_init_matrix+0xec>
  4017b8:	2a0103e0 	mov	w0, w1
  4017bc:	11000421 	add	w1, w1, #0x1
  4017c0:	1b017c24 	mul	w4, w1, w1
  4017c4:	6b040cbf 	cmp	w5, w4, lsl #3
  4017c8:	54ffff88 	b.hi	4017b8 <core_init_matrix+0x20>  // b.pmore
  4017cc:	1b007c0d 	mul	w13, w0, w0
  4017d0:	2a0003ef 	mov	w15, w0
  4017d4:	d37ff9ad 	lsl	x13, x13, #1
  4017d8:	8b0d0127 	add	x7, x9, x13
  4017dc:	34000440 	cbz	w0, 401864 <core_init_matrix+0xcc>
  4017e0:	5100040e 	sub	w14, w0, #0x1
  4017e4:	5280000c 	mov	w12, #0x0                   	// #0
  4017e8:	5280000b 	mov	w11, #0x0                   	// #0
  4017ec:	5280002a 	mov	w10, #0x1                   	// #1
  4017f0:	2a0a03e4 	mov	w4, w10
  4017f4:	4b0a0188 	sub	w8, w12, w10
  4017f8:	52800006 	mov	w6, #0x0                   	// #0
  4017fc:	d503201f 	nop
  401800:	1b047c42 	mul	w2, w2, w4
  401804:	0b040105 	add	w5, w8, w4
  401808:	110004c6 	add	w6, w6, #0x1
  40180c:	6b0203e1 	negs	w1, w2
  401810:	12003c42 	and	w2, w2, #0xffff
  401814:	12003c21 	and	w1, w1, #0xffff
  401818:	d37ff8a5 	lsl	x5, x5, #1
  40181c:	5a814442 	csneg	w2, w2, w1, mi  // mi = first
  401820:	6b0000df 	cmp	w6, w0
  401824:	0b242041 	add	w1, w2, w4, uxth
  401828:	12003c21 	and	w1, w1, #0xffff
  40182c:	782568e1 	strh	w1, [x7, x5]
  401830:	0b242021 	add	w1, w1, w4, uxth
  401834:	11000484 	add	w4, w4, #0x1
  401838:	12001c21 	and	w1, w1, #0xff
  40183c:	78256921 	strh	w1, [x9, x5]
  401840:	54fffe03 	b.cc	401800 <core_init_matrix+0x68>  // b.lo, b.ul, b.last
  401844:	7100001f 	cmp	w0, #0x0
  401848:	1100054a 	add	w10, w10, #0x1
  40184c:	1a9f11c1 	csel	w1, w14, wzr, ne  // ne = any
  401850:	1100056b 	add	w11, w11, #0x1
  401854:	0b00018c 	add	w12, w12, w0
  401858:	0b0a002a 	add	w10, w1, w10
  40185c:	6b00017f 	cmp	w11, w0
  401860:	54fffc83 	b.cc	4017f0 <core_init_matrix+0x58>  // b.lo, b.ul, b.last
  401864:	8b0d00e1 	add	x1, x7, x13
  401868:	b900006f 	str	w15, [x3]
  40186c:	d1000421 	sub	x1, x1, #0x1
  401870:	a9009c69 	stp	x9, x7, [x3, #8]
  401874:	927ef421 	and	x1, x1, #0xfffffffffffffffc
  401878:	91001021 	add	x1, x1, #0x4
  40187c:	f9000c61 	str	x1, [x3, #24]
  401880:	d65f03c0 	ret
  401884:	1280000f 	mov	w15, #0xffffffff            	// #-1
  401888:	910018e7 	add	x7, x7, #0x6
  40188c:	2a0f03e0 	mov	w0, w15
  401890:	d280004d 	mov	x13, #0x2                   	// #2
  401894:	17ffffd3 	b	4017e0 <core_init_matrix+0x48>

0000000000401898 <matrix_sum>:
  401898:	2a0003e9 	mov	w9, w0
  40189c:	13003c42 	sxth	w2, w2
  4018a0:	34000440 	cbz	w0, 401928 <matrix_sum+0x90>
  4018a4:	2a0003e8 	mov	w8, w0
  4018a8:	5280000b 	mov	w11, #0x0                   	// #0
  4018ac:	5280000a 	mov	w10, #0x0                   	// #0
  4018b0:	52800000 	mov	w0, #0x0                   	// #0
  4018b4:	52800005 	mov	w5, #0x0                   	// #0
  4018b8:	52800004 	mov	w4, #0x0                   	// #0
  4018bc:	d503201f 	nop
  4018c0:	2a0b03e3 	mov	w3, w11
  4018c4:	14000006 	b	4018dc <matrix_sum+0x44>
  4018c8:	11000463 	add	w3, w3, #0x1
  4018cc:	13003ce0 	sxth	w0, w7
  4018d0:	6b03011f 	cmp	w8, w3
  4018d4:	52800004 	mov	w4, #0x0                   	// #0
  4018d8:	540001c0 	b.eq	401910 <matrix_sum+0x78>  // b.none
  4018dc:	2a0503e6 	mov	w6, w5
  4018e0:	b8635825 	ldr	w5, [x1, w3, uxtw #2]
  4018e4:	12003c00 	and	w0, w0, #0xffff
  4018e8:	0b050084 	add	w4, w4, w5
  4018ec:	11002807 	add	w7, w0, #0xa
  4018f0:	6b04005f 	cmp	w2, w4
  4018f4:	54fffeab 	b.lt	4018c8 <matrix_sum+0x30>  // b.tstop
  4018f8:	6b0600bf 	cmp	w5, w6
  4018fc:	11000463 	add	w3, w3, #0x1
  401900:	1a80d400 	cinc	w0, w0, gt
  401904:	6b03011f 	cmp	w8, w3
  401908:	13003c00 	sxth	w0, w0
  40190c:	54fffe81 	b.ne	4018dc <matrix_sum+0x44>  // b.any
  401910:	1100054a 	add	w10, w10, #0x1
  401914:	0b090108 	add	w8, w8, w9
  401918:	6b0a013f 	cmp	w9, w10
  40191c:	0b09016b 	add	w11, w11, w9
  401920:	54fffd01 	b.ne	4018c0 <matrix_sum+0x28>  // b.any
  401924:	d65f03c0 	ret
  401928:	52800000 	mov	w0, #0x0                   	// #0
  40192c:	d65f03c0 	ret

0000000000401930 <matrix_mul_const>:
  401930:	13003c63 	sxth	w3, w3
  401934:	34000240 	cbz	w0, 40197c <matrix_mul_const+0x4c>
  401938:	2a0003e6 	mov	w6, w0
  40193c:	52800008 	mov	w8, #0x0                   	// #0
  401940:	52800007 	mov	w7, #0x0                   	// #0
  401944:	d503201f 	nop
  401948:	2a0803e4 	mov	w4, w8
  40194c:	d503201f 	nop
  401950:	78e45845 	ldrsh	w5, [x2, w4, uxtw #1]
  401954:	1b037ca5 	mul	w5, w5, w3
  401958:	b8245825 	str	w5, [x1, w4, uxtw #2]
  40195c:	11000484 	add	w4, w4, #0x1
  401960:	6b0400df 	cmp	w6, w4
  401964:	54ffff61 	b.ne	401950 <matrix_mul_const+0x20>  // b.any
  401968:	110004e7 	add	w7, w7, #0x1
  40196c:	0b000108 	add	w8, w8, w0
  401970:	6b07001f 	cmp	w0, w7
  401974:	0b0000c6 	add	w6, w6, w0
  401978:	54fffe81 	b.ne	401948 <matrix_mul_const+0x18>  // b.any
  40197c:	d65f03c0 	ret

0000000000401980 <matrix_add_const>:
  401980:	13003c42 	sxth	w2, w2
  401984:	34000260 	cbz	w0, 4019d0 <matrix_add_const+0x50>
  401988:	12003c46 	and	w6, w2, #0xffff
  40198c:	2a0003e5 	mov	w5, w0
  401990:	52800008 	mov	w8, #0x0                   	// #0
  401994:	52800007 	mov	w7, #0x0                   	// #0
  401998:	2a0803e2 	mov	w2, w8
  40199c:	d503201f 	nop
  4019a0:	d37f7c44 	ubfiz	x4, x2, #1, #32
  4019a4:	11000442 	add	w2, w2, #0x1
  4019a8:	6b0200bf 	cmp	w5, w2
  4019ac:	78646823 	ldrh	w3, [x1, x4]
  4019b0:	0b0300c3 	add	w3, w6, w3
  4019b4:	78246823 	strh	w3, [x1, x4]
  4019b8:	54ffff41 	b.ne	4019a0 <matrix_add_const+0x20>  // b.any
  4019bc:	110004e7 	add	w7, w7, #0x1
  4019c0:	0b000108 	add	w8, w8, w0
  4019c4:	6b07001f 	cmp	w0, w7
  4019c8:	0b0000a5 	add	w5, w5, w0
  4019cc:	54fffe61 	b.ne	401998 <matrix_add_const+0x18>  // b.any
  4019d0:	d65f03c0 	ret
  4019d4:	d503201f 	nop

00000000004019d8 <matrix_mul_vect>:
  4019d8:	2a0003e9 	mov	w9, w0
  4019dc:	5280000b 	mov	w11, #0x0                   	// #0
  4019e0:	d280000a 	mov	x10, #0x0                   	// #0
  4019e4:	34000220 	cbz	w0, 401a28 <matrix_mul_vect+0x50>
  4019e8:	aa0303e6 	mov	x6, x3
  4019ec:	2a0b03e4 	mov	w4, w11
  4019f0:	52800005 	mov	w5, #0x0                   	// #0
  4019f4:	d503201f 	nop
  4019f8:	78e45848 	ldrsh	w8, [x2, w4, uxtw #1]
  4019fc:	11000484 	add	w4, w4, #0x1
  401a00:	78c024c7 	ldrsh	w7, [x6], #2
  401a04:	6b04013f 	cmp	w9, w4
  401a08:	1b071505 	madd	w5, w8, w7, w5
  401a0c:	54ffff61 	b.ne	4019f8 <matrix_mul_vect+0x20>  // b.any
  401a10:	b82a7825 	str	w5, [x1, x10, lsl #2]
  401a14:	9100054a 	add	x10, x10, #0x1
  401a18:	6b0a001f 	cmp	w0, w10
  401a1c:	0b00016b 	add	w11, w11, w0
  401a20:	0b000129 	add	w9, w9, w0
  401a24:	54fffe28 	b.hi	4019e8 <matrix_mul_vect+0x10>  // b.pmore
  401a28:	d65f03c0 	ret
  401a2c:	d503201f 	nop

0000000000401a30 <matrix_mul_matrix>:
  401a30:	2a0003e5 	mov	w5, w0
  401a34:	aa0103ec 	mov	x12, x1
  401a38:	aa0203e8 	mov	x8, x2
  401a3c:	aa0303e7 	mov	x7, x3
  401a40:	2a0003e6 	mov	w6, w0
  401a44:	5280000a 	mov	w10, #0x0                   	// #0
  401a48:	5280000d 	mov	w13, #0x0                   	// #0
  401a4c:	34000320 	cbz	w0, 401ab0 <matrix_mul_matrix+0x80>
  401a50:	52800009 	mov	w9, #0x0                   	// #0
  401a54:	d503201f 	nop
  401a58:	0b0a012b 	add	w11, w9, w10
  401a5c:	2a0903e1 	mov	w1, w9
  401a60:	2a0a03e0 	mov	w0, w10
  401a64:	52800002 	mov	w2, #0x0                   	// #0
  401a68:	78e05904 	ldrsh	w4, [x8, w0, uxtw #1]
  401a6c:	11000400 	add	w0, w0, #0x1
  401a70:	78e158e3 	ldrsh	w3, [x7, w1, uxtw #1]
  401a74:	6b0000df 	cmp	w6, w0
  401a78:	0b050021 	add	w1, w1, w5
  401a7c:	1b030882 	madd	w2, w4, w3, w2
  401a80:	54ffff41 	b.ne	401a68 <matrix_mul_matrix+0x38>  // b.any
  401a84:	b82b7982 	str	w2, [x12, x11, lsl #2]
  401a88:	11000520 	add	w0, w9, #0x1
  401a8c:	6b0000bf 	cmp	w5, w0
  401a90:	54000060 	b.eq	401a9c <matrix_mul_matrix+0x6c>  // b.none
  401a94:	2a0003e9 	mov	w9, w0
  401a98:	17fffff0 	b	401a58 <matrix_mul_matrix+0x28>
  401a9c:	6b0901bf 	cmp	w13, w9
  401aa0:	0b05014a 	add	w10, w10, w5
  401aa4:	0b0500c6 	add	w6, w6, w5
  401aa8:	110005ad 	add	w13, w13, #0x1
  401aac:	54fffd21 	b.ne	401a50 <matrix_mul_matrix+0x20>  // b.any
  401ab0:	d65f03c0 	ret
  401ab4:	d503201f 	nop

0000000000401ab8 <matrix_mul_matrix_bitextract>:
  401ab8:	2a0003e5 	mov	w5, w0
  401abc:	aa0103ec 	mov	x12, x1
  401ac0:	aa0203e8 	mov	x8, x2
  401ac4:	aa0303e7 	mov	x7, x3
  401ac8:	2a0003e6 	mov	w6, w0
  401acc:	5280000a 	mov	w10, #0x0                   	// #0
  401ad0:	5280000d 	mov	w13, #0x0                   	// #0
  401ad4:	34000380 	cbz	w0, 401b44 <matrix_mul_matrix_bitextract+0x8c>
  401ad8:	52800009 	mov	w9, #0x0                   	// #0
  401adc:	d503201f 	nop
  401ae0:	0b0a012b 	add	w11, w9, w10
  401ae4:	2a0903e2 	mov	w2, w9
  401ae8:	2a0a03e1 	mov	w1, w10
  401aec:	52800003 	mov	w3, #0x0                   	// #0
  401af0:	78e258e4 	ldrsh	w4, [x7, w2, uxtw #1]
  401af4:	0b050042 	add	w2, w2, w5
  401af8:	78e15900 	ldrsh	w0, [x8, w1, uxtw #1]
  401afc:	11000421 	add	w1, w1, #0x1
  401b00:	6b0100df 	cmp	w6, w1
  401b04:	1b047c00 	mul	w0, w0, w4
  401b08:	d3421404 	ubfx	x4, x0, #2, #4
  401b0c:	d3452c00 	ubfx	x0, x0, #5, #7
  401b10:	1b000c83 	madd	w3, w4, w0, w3
  401b14:	54fffee1 	b.ne	401af0 <matrix_mul_matrix_bitextract+0x38>  // b.any
  401b18:	b82b7983 	str	w3, [x12, x11, lsl #2]
  401b1c:	11000520 	add	w0, w9, #0x1
  401b20:	6b0000bf 	cmp	w5, w0
  401b24:	54000060 	b.eq	401b30 <matrix_mul_matrix_bitextract+0x78>  // b.none
  401b28:	2a0003e9 	mov	w9, w0
  401b2c:	17ffffed 	b	401ae0 <matrix_mul_matrix_bitextract+0x28>
  401b30:	6b0901bf 	cmp	w13, w9
  401b34:	0b05014a 	add	w10, w10, w5
  401b38:	0b0500c6 	add	w6, w6, w5
  401b3c:	110005ad 	add	w13, w13, #0x1
  401b40:	54fffcc1 	b.ne	401ad8 <matrix_mul_matrix_bitextract+0x20>  // b.any
  401b44:	d65f03c0 	ret

0000000000401b48 <matrix_test>:
  401b48:	a9bb7bfd 	stp	x29, x30, [sp, #-80]!
  401b4c:	910003fd 	mov	x29, sp
  401b50:	a90153f3 	stp	x19, x20, [sp, #16]
  401b54:	aa0103f3 	mov	x19, x1
  401b58:	aa0203f4 	mov	x20, x2
  401b5c:	a9025bf5 	stp	x21, x22, [sp, #32]
  401b60:	aa0303f5 	mov	x21, x3
  401b64:	34001ae0 	cbz	w0, 401ec0 <matrix_test+0x378>
  401b68:	13003c84 	sxth	w4, w4
  401b6c:	2a0003e5 	mov	w5, w0
  401b70:	a90363f7 	stp	x23, x24, [sp, #48]
  401b74:	32144c98 	orr	w24, w4, #0xfffff000
  401b78:	12003c97 	and	w23, w4, #0xffff
  401b7c:	52800006 	mov	w6, #0x0                   	// #0
  401b80:	f90023f9 	str	x25, [sp, #64]
  401b84:	52800019 	mov	w25, #0x0                   	// #0
  401b88:	2a0603e1 	mov	w1, w6
  401b8c:	d503201f 	nop
  401b90:	d37f7c23 	ubfiz	x3, x1, #1, #32
  401b94:	11000421 	add	w1, w1, #0x1
  401b98:	6b0100bf 	cmp	w5, w1
  401b9c:	78636a82 	ldrh	w2, [x20, x3]
  401ba0:	0b0202e2 	add	w2, w23, w2
  401ba4:	78236a82 	strh	w2, [x20, x3]
  401ba8:	54ffff41 	b.ne	401b90 <matrix_test+0x48>  // b.any
  401bac:	11000736 	add	w22, w25, #0x1
  401bb0:	0b0000c6 	add	w6, w6, w0
  401bb4:	0b0000a5 	add	w5, w5, w0
  401bb8:	6b16001f 	cmp	w0, w22
  401bbc:	54000060 	b.eq	401bc8 <matrix_test+0x80>  // b.none
  401bc0:	2a1603f9 	mov	w25, w22
  401bc4:	17fffff1 	b	401b88 <matrix_test+0x40>
  401bc8:	2a1603e2 	mov	w2, w22
  401bcc:	52800005 	mov	w5, #0x0                   	// #0
  401bd0:	52800003 	mov	w3, #0x0                   	// #0
  401bd4:	d503201f 	nop
  401bd8:	2a0503e0 	mov	w0, w5
  401bdc:	d503201f 	nop
  401be0:	78e05a81 	ldrsh	w1, [x20, w0, uxtw #1]
  401be4:	1b047c21 	mul	w1, w1, w4
  401be8:	b8205a61 	str	w1, [x19, w0, uxtw #2]
  401bec:	11000400 	add	w0, w0, #0x1
  401bf0:	6b00005f 	cmp	w2, w0
  401bf4:	54ffff61 	b.ne	401be0 <matrix_test+0x98>  // b.any
  401bf8:	6b19007f 	cmp	w3, w25
  401bfc:	0b1600a5 	add	w5, w5, w22
  401c00:	0b160042 	add	w2, w2, w22
  401c04:	11000463 	add	w3, w3, #0x1
  401c08:	54fffe81 	b.ne	401bd8 <matrix_test+0x90>  // b.any
  401c0c:	2a1603e6 	mov	w6, w22
  401c10:	52800008 	mov	w8, #0x0                   	// #0
  401c14:	52800000 	mov	w0, #0x0                   	// #0
  401c18:	52800003 	mov	w3, #0x0                   	// #0
  401c1c:	52800002 	mov	w2, #0x0                   	// #0
  401c20:	52800007 	mov	w7, #0x0                   	// #0
  401c24:	d503201f 	nop
  401c28:	2a0803e1 	mov	w1, w8
  401c2c:	14000006 	b	401c44 <matrix_test+0xfc>
  401c30:	11000421 	add	w1, w1, #0x1
  401c34:	13003ca0 	sxth	w0, w5
  401c38:	6b0100df 	cmp	w6, w1
  401c3c:	52800002 	mov	w2, #0x0                   	// #0
  401c40:	540001c0 	b.eq	401c78 <matrix_test+0x130>  // b.none
  401c44:	2a0303e4 	mov	w4, w3
  401c48:	b8615a63 	ldr	w3, [x19, w1, uxtw #2]
  401c4c:	12003c00 	and	w0, w0, #0xffff
  401c50:	0b030042 	add	w2, w2, w3
  401c54:	11002805 	add	w5, w0, #0xa
  401c58:	6b18005f 	cmp	w2, w24
  401c5c:	54fffeac 	b.gt	401c30 <matrix_test+0xe8>
  401c60:	6b04007f 	cmp	w3, w4
  401c64:	11000421 	add	w1, w1, #0x1
  401c68:	1a80d400 	cinc	w0, w0, gt
  401c6c:	6b0100df 	cmp	w6, w1
  401c70:	13003c00 	sxth	w0, w0
  401c74:	54fffe81 	b.ne	401c44 <matrix_test+0xfc>  // b.any
  401c78:	6b1900ff 	cmp	w7, w25
  401c7c:	0b1600c6 	add	w6, w6, w22
  401c80:	0b160108 	add	w8, w8, w22
  401c84:	110004e7 	add	w7, w7, #0x1
  401c88:	54fffd01 	b.ne	401c28 <matrix_test+0xe0>  // b.any
  401c8c:	52800001 	mov	w1, #0x0                   	// #0
  401c90:	940002fc 	bl	402880 <crc16>
  401c94:	2a0003ec 	mov	w12, w0
  401c98:	aa1503e3 	mov	x3, x21
  401c9c:	aa1403e2 	mov	x2, x20
  401ca0:	2a1603e0 	mov	w0, w22
  401ca4:	aa1303e1 	mov	x1, x19
  401ca8:	97ffff4c 	bl	4019d8 <matrix_mul_vect>
  401cac:	2a1603e6 	mov	w6, w22
  401cb0:	52800008 	mov	w8, #0x0                   	// #0
  401cb4:	52800000 	mov	w0, #0x0                   	// #0
  401cb8:	52800003 	mov	w3, #0x0                   	// #0
  401cbc:	52800002 	mov	w2, #0x0                   	// #0
  401cc0:	52800007 	mov	w7, #0x0                   	// #0
  401cc4:	d503201f 	nop
  401cc8:	2a0803e1 	mov	w1, w8
  401ccc:	14000006 	b	401ce4 <matrix_test+0x19c>
  401cd0:	11000421 	add	w1, w1, #0x1
  401cd4:	13003ca0 	sxth	w0, w5
  401cd8:	6b0100df 	cmp	w6, w1
  401cdc:	52800002 	mov	w2, #0x0                   	// #0
  401ce0:	540001c0 	b.eq	401d18 <matrix_test+0x1d0>  // b.none
  401ce4:	2a0303e4 	mov	w4, w3
  401ce8:	b8615a63 	ldr	w3, [x19, w1, uxtw #2]
  401cec:	12003c00 	and	w0, w0, #0xffff
  401cf0:	0b030042 	add	w2, w2, w3
  401cf4:	11002805 	add	w5, w0, #0xa
  401cf8:	6b18005f 	cmp	w2, w24
  401cfc:	54fffeac 	b.gt	401cd0 <matrix_test+0x188>
  401d00:	6b04007f 	cmp	w3, w4
  401d04:	11000421 	add	w1, w1, #0x1
  401d08:	1a80d400 	cinc	w0, w0, gt
  401d0c:	6b0100df 	cmp	w6, w1
  401d10:	13003c00 	sxth	w0, w0
  401d14:	54fffe81 	b.ne	401ce4 <matrix_test+0x19c>  // b.any
  401d18:	6b1900ff 	cmp	w7, w25
  401d1c:	0b1600c6 	add	w6, w6, w22
  401d20:	0b160108 	add	w8, w8, w22
  401d24:	110004e7 	add	w7, w7, #0x1
  401d28:	54fffd01 	b.ne	401cc8 <matrix_test+0x180>  // b.any
  401d2c:	2a0c03e1 	mov	w1, w12
  401d30:	940002d4 	bl	402880 <crc16>
  401d34:	2a0003ee 	mov	w14, w0
  401d38:	aa1503e3 	mov	x3, x21
  401d3c:	2a1603e0 	mov	w0, w22
  401d40:	aa1403e2 	mov	x2, x20
  401d44:	aa1303e1 	mov	x1, x19
  401d48:	97ffff3a 	bl	401a30 <matrix_mul_matrix>
  401d4c:	52800007 	mov	w7, #0x0                   	// #0
  401d50:	52800000 	mov	w0, #0x0                   	// #0
  401d54:	52800004 	mov	w4, #0x0                   	// #0
  401d58:	52800003 	mov	w3, #0x0                   	// #0
  401d5c:	52800008 	mov	w8, #0x0                   	// #0
  401d60:	52800001 	mov	w1, #0x0                   	// #0
  401d64:	14000005 	b	401d78 <matrix_test+0x230>
  401d68:	11000421 	add	w1, w1, #0x1
  401d6c:	52800003 	mov	w3, #0x0                   	// #0
  401d70:	6b16003f 	cmp	w1, w22
  401d74:	54000202 	b.cs	401db4 <matrix_test+0x26c>  // b.hs, b.nlast
  401d78:	0b070022 	add	w2, w1, w7
  401d7c:	2a0403e6 	mov	w6, w4
  401d80:	12003c05 	and	w5, w0, #0xffff
  401d84:	110028a0 	add	w0, w5, #0xa
  401d88:	b8627a64 	ldr	w4, [x19, x2, lsl #2]
  401d8c:	13003c00 	sxth	w0, w0
  401d90:	0b040063 	add	w3, w3, w4
  401d94:	6b18007f 	cmp	w3, w24
  401d98:	54fffe8c 	b.gt	401d68 <matrix_test+0x220>
  401d9c:	6b06009f 	cmp	w4, w6
  401da0:	11000421 	add	w1, w1, #0x1
  401da4:	1a85d4a0 	cinc	w0, w5, gt
  401da8:	6b16003f 	cmp	w1, w22
  401dac:	13003c00 	sxth	w0, w0
  401db0:	54fffe43 	b.cc	401d78 <matrix_test+0x230>  // b.lo, b.ul, b.last
  401db4:	11000508 	add	w8, w8, #0x1
  401db8:	0b1600e7 	add	w7, w7, w22
  401dbc:	6b16011f 	cmp	w8, w22
  401dc0:	54fffd03 	b.cc	401d60 <matrix_test+0x218>  // b.lo, b.ul, b.last
  401dc4:	2a0e03e1 	mov	w1, w14
  401dc8:	940002ae 	bl	402880 <crc16>
  401dcc:	2a0003ee 	mov	w14, w0
  401dd0:	aa1503e3 	mov	x3, x21
  401dd4:	2a1603e0 	mov	w0, w22
  401dd8:	aa1403e2 	mov	x2, x20
  401ddc:	aa1303e1 	mov	x1, x19
  401de0:	97ffff36 	bl	401ab8 <matrix_mul_matrix_bitextract>
  401de4:	52800007 	mov	w7, #0x0                   	// #0
  401de8:	52800000 	mov	w0, #0x0                   	// #0
  401dec:	52800004 	mov	w4, #0x0                   	// #0
  401df0:	52800003 	mov	w3, #0x0                   	// #0
  401df4:	52800008 	mov	w8, #0x0                   	// #0
  401df8:	52800001 	mov	w1, #0x0                   	// #0
  401dfc:	14000005 	b	401e10 <matrix_test+0x2c8>
  401e00:	11000421 	add	w1, w1, #0x1
  401e04:	52800003 	mov	w3, #0x0                   	// #0
  401e08:	6b16003f 	cmp	w1, w22
  401e0c:	54000202 	b.cs	401e4c <matrix_test+0x304>  // b.hs, b.nlast
  401e10:	0b070022 	add	w2, w1, w7
  401e14:	2a0403e6 	mov	w6, w4
  401e18:	12003c05 	and	w5, w0, #0xffff
  401e1c:	110028a0 	add	w0, w5, #0xa
  401e20:	b8627a64 	ldr	w4, [x19, x2, lsl #2]
  401e24:	13003c00 	sxth	w0, w0
  401e28:	0b040063 	add	w3, w3, w4
  401e2c:	6b18007f 	cmp	w3, w24
  401e30:	54fffe8c 	b.gt	401e00 <matrix_test+0x2b8>
  401e34:	6b06009f 	cmp	w4, w6
  401e38:	11000421 	add	w1, w1, #0x1
  401e3c:	1a85d4a0 	cinc	w0, w5, gt
  401e40:	6b16003f 	cmp	w1, w22
  401e44:	13003c00 	sxth	w0, w0
  401e48:	54fffe43 	b.cc	401e10 <matrix_test+0x2c8>  // b.lo, b.ul, b.last
  401e4c:	11000508 	add	w8, w8, #0x1
  401e50:	0b1600e7 	add	w7, w7, w22
  401e54:	6b16011f 	cmp	w8, w22
  401e58:	54fffd03 	b.cc	401df8 <matrix_test+0x2b0>  // b.lo, b.ul, b.last
  401e5c:	2a0e03e1 	mov	w1, w14
  401e60:	94000288 	bl	402880 <crc16>
  401e64:	52800004 	mov	w4, #0x0                   	// #0
  401e68:	52800005 	mov	w5, #0x0                   	// #0
  401e6c:	d503201f 	nop
  401e70:	52800002 	mov	w2, #0x0                   	// #0
  401e74:	d503201f 	nop
  401e78:	0b040041 	add	w1, w2, w4
  401e7c:	11000442 	add	w2, w2, #0x1
  401e80:	6b16005f 	cmp	w2, w22
  401e84:	d37ff821 	lsl	x1, x1, #1
  401e88:	78616a83 	ldrh	w3, [x20, x1]
  401e8c:	4b170063 	sub	w3, w3, w23
  401e90:	78216a83 	strh	w3, [x20, x1]
  401e94:	54ffff23 	b.cc	401e78 <matrix_test+0x330>  // b.lo, b.ul, b.last
  401e98:	110004a5 	add	w5, w5, #0x1
  401e9c:	0b160084 	add	w4, w4, w22
  401ea0:	6b1600bf 	cmp	w5, w22
  401ea4:	54fffe63 	b.cc	401e70 <matrix_test+0x328>  // b.lo, b.ul, b.last
  401ea8:	a94153f3 	ldp	x19, x20, [sp, #16]
  401eac:	a9425bf5 	ldp	x21, x22, [sp, #32]
  401eb0:	a94363f7 	ldp	x23, x24, [sp, #48]
  401eb4:	f94023f9 	ldr	x25, [sp, #64]
  401eb8:	a8c57bfd 	ldp	x29, x30, [sp], #80
  401ebc:	d65f03c0 	ret
  401ec0:	52800001 	mov	w1, #0x0                   	// #0
  401ec4:	52800000 	mov	w0, #0x0                   	// #0
  401ec8:	9400026e 	bl	402880 <crc16>
  401ecc:	2a0003ec 	mov	w12, w0
  401ed0:	aa1503e3 	mov	x3, x21
  401ed4:	aa1403e2 	mov	x2, x20
  401ed8:	aa1303e1 	mov	x1, x19
  401edc:	52800000 	mov	w0, #0x0                   	// #0
  401ee0:	97fffebe 	bl	4019d8 <matrix_mul_vect>
  401ee4:	2a0c03e1 	mov	w1, w12
  401ee8:	52800000 	mov	w0, #0x0                   	// #0
  401eec:	94000265 	bl	402880 <crc16>
  401ef0:	2a0003ee 	mov	w14, w0
  401ef4:	aa1503e3 	mov	x3, x21
  401ef8:	aa1403e2 	mov	x2, x20
  401efc:	aa1303e1 	mov	x1, x19
  401f00:	52800000 	mov	w0, #0x0                   	// #0
  401f04:	97fffecb 	bl	401a30 <matrix_mul_matrix>
  401f08:	2a0e03e1 	mov	w1, w14
  401f0c:	52800000 	mov	w0, #0x0                   	// #0
  401f10:	9400025c 	bl	402880 <crc16>
  401f14:	2a0003ee 	mov	w14, w0
  401f18:	aa1503e3 	mov	x3, x21
  401f1c:	aa1403e2 	mov	x2, x20
  401f20:	aa1303e1 	mov	x1, x19
  401f24:	52800000 	mov	w0, #0x0                   	// #0
  401f28:	97fffee4 	bl	401ab8 <matrix_mul_matrix_bitextract>
  401f2c:	2a0e03e1 	mov	w1, w14
  401f30:	a94153f3 	ldp	x19, x20, [sp, #16]
  401f34:	52800000 	mov	w0, #0x0                   	// #0
  401f38:	a9425bf5 	ldp	x21, x22, [sp, #32]
  401f3c:	a8c57bfd 	ldp	x29, x30, [sp], #80
  401f40:	14000250 	b	402880 <crc16>
  401f44:	d503201f 	nop

0000000000401f48 <core_bench_matrix>:
  401f48:	aa0003e5 	mov	x5, x0
  401f4c:	a9be7bfd 	stp	x29, x30, [sp, #-32]!
  401f50:	2a0103e4 	mov	w4, w1
  401f54:	910003fd 	mov	x29, sp
  401f58:	a94104a3 	ldp	x3, x1, [x5, #16]
  401f5c:	b9400000 	ldr	w0, [x0]
  401f60:	f9000bf3 	str	x19, [sp, #16]
  401f64:	12003c53 	and	w19, w2, #0xffff
  401f68:	f94004a2 	ldr	x2, [x5, #8]
  401f6c:	97fffef7 	bl	401b48 <matrix_test>
  401f70:	2a1303e1 	mov	w1, w19
  401f74:	f9400bf3 	ldr	x19, [sp, #16]
  401f78:	a8c27bfd 	ldp	x29, x30, [sp], #32
  401f7c:	14000241 	b	402880 <crc16>

0000000000401f80 <core_init_state>:
  401f80:	51000409 	sub	w9, w0, #0x1
  401f84:	2a0003ed 	mov	w13, w0
  401f88:	13003c21 	sxth	w1, w1
  401f8c:	7100053f 	cmp	w9, #0x1
  401f90:	540008c9 	b.ls	4020a8 <core_init_state+0x128>  // b.plast
  401f94:	11000421 	add	w1, w1, #0x1
  401f98:	d000044c 	adrp	x12, 48b000 <__FRAME_END__+0xf85c>
  401f9c:	12003c24 	and	w4, w1, #0xffff
  401fa0:	9124818c 	add	x12, x12, #0x920
  401fa4:	12000881 	and	w1, w4, #0x7
  401fa8:	9101818f 	add	x15, x12, #0x60
  401fac:	9101018e 	add	x14, x12, #0x40
  401fb0:	91008180 	add	x0, x12, #0x20
  401fb4:	d3431087 	ubfx	x7, x4, #3, #2
  401fb8:	71001c3f 	cmp	w1, #0x7
  401fbc:	52800006 	mov	w6, #0x0                   	// #0
  401fc0:	5280058b 	mov	w11, #0x2c                  	// #44
  401fc4:	540003c0 	b.eq	40203c <core_init_state+0xbc>  // b.none
  401fc8:	7100103f 	cmp	w1, #0x4
  401fcc:	54000668 	b.hi	402098 <core_init_state+0x118>  // b.pmore
  401fd0:	51000c21 	sub	w1, w1, #0x3
  401fd4:	12003c21 	and	w1, w1, #0xffff
  401fd8:	7100043f 	cmp	w1, #0x1
  401fdc:	54000568 	b.hi	402088 <core_init_state+0x108>  // b.pmore
  401fe0:	f867d807 	ldr	x7, [x0, w7, sxtw #3]
  401fe4:	52800125 	mov	w5, #0x9                   	// #9
  401fe8:	d2800103 	mov	x3, #0x8                   	// #8
  401fec:	0b0500c5 	add	w5, w6, w5
  401ff0:	6b0900bf 	cmp	w5, w9
  401ff4:	54000302 	b.cs	402054 <core_init_state+0xd4>  // b.hs, b.nlast
  401ff8:	2a0603ea 	mov	w10, w6
  401ffc:	d2800001 	mov	x1, #0x0                   	// #0
  402000:	8b0a0048 	add	x8, x2, x10
  402004:	386168e6 	ldrb	w6, [x7, x1]
  402008:	38216906 	strb	w6, [x8, x1]
  40200c:	91000421 	add	x1, x1, #0x1
  402010:	eb01007f 	cmp	x3, x1
  402014:	54ffff81 	b.ne	402004 <core_init_state+0x84>  // b.any
  402018:	8b030043 	add	x3, x2, x3
  40201c:	11000484 	add	w4, w4, #0x1
  402020:	12003c84 	and	w4, w4, #0xffff
  402024:	2a0503e6 	mov	w6, w5
  402028:	12000881 	and	w1, w4, #0x7
  40202c:	382a686b 	strb	w11, [x3, x10]
  402030:	d3431087 	ubfx	x7, x4, #3, #2
  402034:	71001c3f 	cmp	w1, #0x7
  402038:	54fffc81 	b.ne	401fc8 <core_init_state+0x48>  // b.any
  40203c:	52800125 	mov	w5, #0x9                   	// #9
  402040:	0b0500c5 	add	w5, w6, w5
  402044:	6b0900bf 	cmp	w5, w9
  402048:	d2800103 	mov	x3, #0x8                   	// #8
  40204c:	f867d9e7 	ldr	x7, [x15, w7, sxtw #3]
  402050:	54fffd43 	b.cc	401ff8 <core_init_state+0x78>  // b.lo, b.ul, b.last
  402054:	6b0d00df 	cmp	w6, w13
  402058:	54000162 	b.cs	402084 <core_init_state+0x104>  // b.hs, b.nlast
  40205c:	2a0603e0 	mov	w0, w6
  402060:	4b060121 	sub	w1, w9, w6
  402064:	8b000021 	add	x1, x1, x0
  402068:	91000443 	add	x3, x2, #0x1
  40206c:	8b000040 	add	x0, x2, x0
  402070:	8b030021 	add	x1, x1, x3
  402074:	d503201f 	nop
  402078:	3800141f 	strb	wzr, [x0], #1
  40207c:	eb00003f 	cmp	x1, x0
  402080:	54ffffc1 	b.ne	402078 <core_init_state+0xf8>  // b.any
  402084:	d65f03c0 	ret
  402088:	528000a5 	mov	w5, #0x5                   	// #5
  40208c:	d2800083 	mov	x3, #0x4                   	// #4
  402090:	f867d987 	ldr	x7, [x12, w7, sxtw #3]
  402094:	17ffffd6 	b	401fec <core_init_state+0x6c>
  402098:	52800125 	mov	w5, #0x9                   	// #9
  40209c:	d2800103 	mov	x3, #0x8                   	// #8
  4020a0:	f867d9c7 	ldr	x7, [x14, w7, sxtw #3]
  4020a4:	17ffffd2 	b	401fec <core_init_state+0x6c>
  4020a8:	52800006 	mov	w6, #0x0                   	// #0
  4020ac:	17ffffec 	b	40205c <core_init_state+0xdc>

00000000004020b0 <core_state_transition>:
  4020b0:	aa0003e6 	mov	x6, x0
  4020b4:	52800000 	mov	w0, #0x0                   	// #0
  4020b8:	f94000c4 	ldr	x4, [x6]
  4020bc:	aa0403e3 	mov	x3, x4
  4020c0:	39400082 	ldrb	w2, [x4]
  4020c4:	34000482 	cbz	w2, 402154 <core_state_transition+0xa4>
  4020c8:	7100b05f 	cmp	w2, #0x2c
  4020cc:	91000483 	add	x3, x4, #0x1
  4020d0:	54000420 	b.eq	402154 <core_state_transition+0xa4>  // b.none
  4020d4:	71000c1f 	cmp	w0, #0x3
  4020d8:	54000680 	b.eq	4021a8 <core_state_transition+0xf8>  // b.none
  4020dc:	54000208 	b.hi	40211c <core_state_transition+0x6c>  // b.pmore
  4020e0:	34000940 	cbz	w0, 402208 <core_state_transition+0x158>
  4020e4:	7100081f 	cmp	w0, #0x2
  4020e8:	54001bc1 	b.ne	402460 <core_state_transition+0x3b0>  // b.any
  4020ec:	b9400820 	ldr	w0, [x1, #8]
  4020f0:	5100c045 	sub	w5, w2, #0x30
  4020f4:	12001ca5 	and	w5, w5, #0xff
  4020f8:	710024bf 	cmp	w5, #0x9
  4020fc:	11000405 	add	w5, w0, #0x1
  402100:	540010e9 	b.ls	40231c <core_state_transition+0x26c>  // b.plast
  402104:	7100b85f 	cmp	w2, #0x2e
  402108:	54001620 	b.eq	4023cc <core_state_transition+0x31c>  // b.none
  40210c:	b9000825 	str	w5, [x1, #8]
  402110:	52800020 	mov	w0, #0x1                   	// #1
  402114:	f90000c3 	str	x3, [x6]
  402118:	d65f03c0 	ret
  40211c:	7100181f 	cmp	w0, #0x6
  402120:	54000600 	b.eq	4021e0 <core_state_transition+0x130>  // b.none
  402124:	71001c1f 	cmp	w0, #0x7
  402128:	540001a1 	b.ne	40215c <core_state_transition+0xac>  // b.any
  40212c:	5100c042 	sub	w2, w2, #0x30
  402130:	91000465 	add	x5, x3, #0x1
  402134:	12001c42 	and	w2, w2, #0xff
  402138:	528000e0 	mov	w0, #0x7                   	// #7
  40213c:	7100245f 	cmp	w2, #0x9
  402140:	54000fa9 	b.ls	402334 <core_state_transition+0x284>  // b.plast
  402144:	b9400422 	ldr	w2, [x1, #4]
  402148:	52800020 	mov	w0, #0x1                   	// #1
  40214c:	0b000042 	add	w2, w2, w0
  402150:	b9000422 	str	w2, [x1, #4]
  402154:	f90000c3 	str	x3, [x6]
  402158:	d65f03c0 	ret
  40215c:	7100101f 	cmp	w0, #0x4
  402160:	54000820 	b.eq	402264 <core_state_transition+0x1b4>  // b.none
  402164:	7100141f 	cmp	w0, #0x5
  402168:	54001881 	b.ne	402478 <core_state_transition+0x3c8>  // b.any
  40216c:	121a7840 	and	w0, w2, #0xffffffdf
  402170:	5100c042 	sub	w2, w2, #0x30
  402174:	12001c00 	and	w0, w0, #0xff
  402178:	12001c42 	and	w2, w2, #0xff
  40217c:	7101141f 	cmp	w0, #0x45
  402180:	54000941 	b.ne	4022a8 <core_state_transition+0x1f8>  // b.any
  402184:	b9401420 	ldr	w0, [x1, #20]
  402188:	11000400 	add	w0, w0, #0x1
  40218c:	b9001420 	str	w0, [x1, #20]
  402190:	39400482 	ldrb	w2, [x4, #1]
  402194:	34001382 	cbz	w2, 402404 <core_state_transition+0x354>
  402198:	aa0303e4 	mov	x4, x3
  40219c:	7100b05f 	cmp	w2, #0x2c
  4021a0:	91000463 	add	x3, x3, #0x1
  4021a4:	54001300 	b.eq	402404 <core_state_transition+0x354>  // b.none
  4021a8:	b9400c20 	ldr	w0, [x1, #12]
  4021ac:	5100ac42 	sub	w2, w2, #0x2b
  4021b0:	52801fa5 	mov	w5, #0xfd                  	// #253
  4021b4:	6a05005f 	tst	w2, w5
  4021b8:	11000402 	add	w2, w0, #0x1
  4021bc:	54000ca1 	b.ne	402350 <core_state_transition+0x2a0>  // b.any
  4021c0:	b9000c22 	str	w2, [x1, #12]
  4021c4:	39400482 	ldrb	w2, [x4, #1]
  4021c8:	34001382 	cbz	w2, 402438 <core_state_transition+0x388>
  4021cc:	7100b05f 	cmp	w2, #0x2c
  4021d0:	91000460 	add	x0, x3, #0x1
  4021d4:	540011c0 	b.eq	40240c <core_state_transition+0x35c>  // b.none
  4021d8:	aa0303e4 	mov	x4, x3
  4021dc:	aa0003e3 	mov	x3, x0
  4021e0:	b9401820 	ldr	w0, [x1, #24]
  4021e4:	5100c042 	sub	w2, w2, #0x30
  4021e8:	12001c42 	and	w2, w2, #0xff
  4021ec:	7100245f 	cmp	w2, #0x9
  4021f0:	11000402 	add	w2, w0, #0x1
  4021f4:	54000b69 	b.ls	402360 <core_state_transition+0x2b0>  // b.plast
  4021f8:	b9001822 	str	w2, [x1, #24]
  4021fc:	52800020 	mov	w0, #0x1                   	// #1
  402200:	f90000c3 	str	x3, [x6]
  402204:	d65f03c0 	ret
  402208:	b9400020 	ldr	w0, [x1]
  40220c:	5100c045 	sub	w5, w2, #0x30
  402210:	12001ca5 	and	w5, w5, #0xff
  402214:	710024bf 	cmp	w5, #0x9
  402218:	11000405 	add	w5, w0, #0x1
  40221c:	540005c8 	b.hi	4022d4 <core_state_transition+0x224>  // b.pmore
  402220:	b9000025 	str	w5, [x1]
  402224:	39400482 	ldrb	w2, [x4, #1]
  402228:	34000802 	cbz	w2, 402328 <core_state_transition+0x278>
  40222c:	7100b05f 	cmp	w2, #0x2c
  402230:	91000464 	add	x4, x3, #0x1
  402234:	54000f80 	b.eq	402424 <core_state_transition+0x374>  // b.none
  402238:	7100b85f 	cmp	w2, #0x2e
  40223c:	540001e0 	b.eq	402278 <core_state_transition+0x1c8>  // b.none
  402240:	5100c042 	sub	w2, w2, #0x30
  402244:	12001c42 	and	w2, w2, #0xff
  402248:	7100245f 	cmp	w2, #0x9
  40224c:	540009c8 	b.hi	402384 <core_state_transition+0x2d4>  // b.pmore
  402250:	39400462 	ldrb	w2, [x3, #1]
  402254:	34000e82 	cbz	w2, 402424 <core_state_transition+0x374>
  402258:	7100b05f 	cmp	w2, #0x2c
  40225c:	91000483 	add	x3, x4, #0x1
  402260:	54000640 	b.eq	402328 <core_state_transition+0x278>  // b.none
  402264:	aa0303e0 	mov	x0, x3
  402268:	7100b85f 	cmp	w2, #0x2e
  40226c:	aa0403e3 	mov	x3, x4
  402270:	aa0003e4 	mov	x4, x0
  402274:	54fffe61 	b.ne	402240 <core_state_transition+0x190>  // b.any
  402278:	b9401020 	ldr	w0, [x1, #16]
  40227c:	11000400 	add	w0, w0, #0x1
  402280:	b9001020 	str	w0, [x1, #16]
  402284:	528000a0 	mov	w0, #0x5                   	// #5
  402288:	39400462 	ldrb	w2, [x3, #1]
  40228c:	aa0403e3 	mov	x3, x4
  402290:	34fff622 	cbz	w2, 402154 <core_state_transition+0xa4>
  402294:	7100b05f 	cmp	w2, #0x2c
  402298:	91000483 	add	x3, x4, #0x1
  40229c:	54fff681 	b.ne	40216c <core_state_transition+0xbc>  // b.any
  4022a0:	528000a0 	mov	w0, #0x5                   	// #5
  4022a4:	17ffffac 	b	402154 <core_state_transition+0xa4>
  4022a8:	7100245f 	cmp	w2, #0x9
  4022ac:	54000788 	b.hi	40239c <core_state_transition+0x2ec>  // b.pmore
  4022b0:	39400482 	ldrb	w2, [x4, #1]
  4022b4:	91000460 	add	x0, x3, #0x1
  4022b8:	aa0303e4 	mov	x4, x3
  4022bc:	7100b05f 	cmp	w2, #0x2c
  4022c0:	34ffff02 	cbz	w2, 4022a0 <core_state_transition+0x1f0>
  4022c4:	aa0003e3 	mov	x3, x0
  4022c8:	54fff521 	b.ne	40216c <core_state_transition+0xbc>  // b.any
  4022cc:	528000a0 	mov	w0, #0x5                   	// #5
  4022d0:	17ffffa1 	b	402154 <core_state_transition+0xa4>
  4022d4:	5100ac40 	sub	w0, w2, #0x2b
  4022d8:	52801fa7 	mov	w7, #0xfd                  	// #253
  4022dc:	6a07001f 	tst	w0, w7
  4022e0:	54000681 	b.ne	4023b0 <core_state_transition+0x300>  // b.any
  4022e4:	b9000025 	str	w5, [x1]
  4022e8:	39400482 	ldrb	w2, [x4, #1]
  4022ec:	34000b02 	cbz	w2, 40244c <core_state_transition+0x39c>
  4022f0:	7100b05f 	cmp	w2, #0x2c
  4022f4:	91000460 	add	x0, x3, #0x1
  4022f8:	54000ae0 	b.eq	402454 <core_state_transition+0x3a4>  // b.none
  4022fc:	aa0303e4 	mov	x4, x3
  402300:	5100c045 	sub	w5, w2, #0x30
  402304:	aa0003e3 	mov	x3, x0
  402308:	b9400820 	ldr	w0, [x1, #8]
  40230c:	12001ca5 	and	w5, w5, #0xff
  402310:	710024bf 	cmp	w5, #0x9
  402314:	11000405 	add	w5, w0, #0x1
  402318:	54ffef68 	b.hi	402104 <core_state_transition+0x54>  // b.pmore
  40231c:	b9000825 	str	w5, [x1, #8]
  402320:	39400482 	ldrb	w2, [x4, #1]
  402324:	35fff842 	cbnz	w2, 40222c <core_state_transition+0x17c>
  402328:	52800080 	mov	w0, #0x4                   	// #4
  40232c:	f90000c3 	str	x3, [x6]
  402330:	d65f03c0 	ret
  402334:	39400482 	ldrb	w2, [x4, #1]
  402338:	aa0303e4 	mov	x4, x3
  40233c:	7100b05f 	cmp	w2, #0x2c
  402340:	34000782 	cbz	w2, 402430 <core_state_transition+0x380>
  402344:	aa0503e3 	mov	x3, x5
  402348:	54ffef21 	b.ne	40212c <core_state_transition+0x7c>  // b.any
  40234c:	17ffff82 	b	402154 <core_state_transition+0xa4>
  402350:	b9000c22 	str	w2, [x1, #12]
  402354:	52800020 	mov	w0, #0x1                   	// #1
  402358:	f90000c3 	str	x3, [x6]
  40235c:	d65f03c0 	ret
  402360:	b9001822 	str	w2, [x1, #24]
  402364:	39400482 	ldrb	w2, [x4, #1]
  402368:	34000642 	cbz	w2, 402430 <core_state_transition+0x380>
  40236c:	7100b05f 	cmp	w2, #0x2c
  402370:	91000460 	add	x0, x3, #0x1
  402374:	54000520 	b.eq	402418 <core_state_transition+0x368>  // b.none
  402378:	aa0303e4 	mov	x4, x3
  40237c:	aa0003e3 	mov	x3, x0
  402380:	17ffff6b 	b	40212c <core_state_transition+0x7c>
  402384:	b9401022 	ldr	w2, [x1, #16]
  402388:	52800020 	mov	w0, #0x1                   	// #1
  40238c:	aa0403e3 	mov	x3, x4
  402390:	0b000042 	add	w2, w2, w0
  402394:	b9001022 	str	w2, [x1, #16]
  402398:	17ffff6f 	b	402154 <core_state_transition+0xa4>
  40239c:	b9401422 	ldr	w2, [x1, #20]
  4023a0:	52800020 	mov	w0, #0x1                   	// #1
  4023a4:	0b000042 	add	w2, w2, w0
  4023a8:	b9001422 	str	w2, [x1, #20]
  4023ac:	17ffff6a 	b	402154 <core_state_transition+0xa4>
  4023b0:	7100b85f 	cmp	w2, #0x2e
  4023b4:	540001e0 	b.eq	4023f0 <core_state_transition+0x340>  // b.none
  4023b8:	b9400422 	ldr	w2, [x1, #4]
  4023bc:	52800020 	mov	w0, #0x1                   	// #1
  4023c0:	0b000042 	add	w2, w2, w0
  4023c4:	29000825 	stp	w5, w2, [x1]
  4023c8:	17ffff63 	b	402154 <core_state_transition+0xa4>
  4023cc:	b9000825 	str	w5, [x1, #8]
  4023d0:	39400482 	ldrb	w2, [x4, #1]
  4023d4:	34fff662 	cbz	w2, 4022a0 <core_state_transition+0x1f0>
  4023d8:	7100b05f 	cmp	w2, #0x2c
  4023dc:	91000460 	add	x0, x3, #0x1
  4023e0:	54000300 	b.eq	402440 <core_state_transition+0x390>  // b.none
  4023e4:	aa0303e4 	mov	x4, x3
  4023e8:	aa0003e3 	mov	x3, x0
  4023ec:	17ffff60 	b	40216c <core_state_transition+0xbc>
  4023f0:	b9000025 	str	w5, [x1]
  4023f4:	39400482 	ldrb	w2, [x4, #1]
  4023f8:	35ffff02 	cbnz	w2, 4023d8 <core_state_transition+0x328>
  4023fc:	528000a0 	mov	w0, #0x5                   	// #5
  402400:	17ffff55 	b	402154 <core_state_transition+0xa4>
  402404:	52800060 	mov	w0, #0x3                   	// #3
  402408:	17ffff53 	b	402154 <core_state_transition+0xa4>
  40240c:	aa0003e3 	mov	x3, x0
  402410:	528000c0 	mov	w0, #0x6                   	// #6
  402414:	17ffff50 	b	402154 <core_state_transition+0xa4>
  402418:	aa0003e3 	mov	x3, x0
  40241c:	528000e0 	mov	w0, #0x7                   	// #7
  402420:	17ffff4d 	b	402154 <core_state_transition+0xa4>
  402424:	aa0403e3 	mov	x3, x4
  402428:	52800080 	mov	w0, #0x4                   	// #4
  40242c:	17ffffc0 	b	40232c <core_state_transition+0x27c>
  402430:	528000e0 	mov	w0, #0x7                   	// #7
  402434:	17ffff48 	b	402154 <core_state_transition+0xa4>
  402438:	528000c0 	mov	w0, #0x6                   	// #6
  40243c:	17ffff46 	b	402154 <core_state_transition+0xa4>
  402440:	aa0003e3 	mov	x3, x0
  402444:	528000a0 	mov	w0, #0x5                   	// #5
  402448:	17ffff43 	b	402154 <core_state_transition+0xa4>
  40244c:	52800040 	mov	w0, #0x2                   	// #2
  402450:	17ffff41 	b	402154 <core_state_transition+0xa4>
  402454:	aa0003e3 	mov	x3, x0
  402458:	52800040 	mov	w0, #0x2                   	// #2
  40245c:	17ffff3e 	b	402154 <core_state_transition+0xa4>
  402460:	39400482 	ldrb	w2, [x4, #1]
  402464:	34ffe782 	cbz	w2, 402154 <core_state_transition+0xa4>
  402468:	7100041f 	cmp	w0, #0x1
  40246c:	54ffe740 	b.eq	402154 <core_state_transition+0xa4>  // b.none
  402470:	aa0303e4 	mov	x4, x3
  402474:	17ffff15 	b	4020c8 <core_state_transition+0x18>
  402478:	39400482 	ldrb	w2, [x4, #1]
  40247c:	34fffde2 	cbz	w2, 402438 <core_state_transition+0x388>
  402480:	aa0303e4 	mov	x4, x3
  402484:	528000c0 	mov	w0, #0x6                   	// #6
  402488:	17ffff10 	b	4020c8 <core_state_transition+0x18>
  40248c:	d503201f 	nop

0000000000402490 <core_bench_state>:
  402490:	a9b77bfd 	stp	x29, x30, [sp, #-144]!
  402494:	2a0003ee 	mov	w14, w0
  402498:	13003c4c 	sxth	w12, w2
  40249c:	910003fd 	mov	x29, sp
  4024a0:	a9025bf5 	stp	x21, x22, [sp, #32]
  4024a4:	b0000456 	adrp	x22, 48b000 <__FRAME_END__+0xf85c>
  4024a8:	13003c6a 	sxth	w10, w3
  4024ac:	f947a6c0 	ldr	x0, [x22, #3912]
  4024b0:	13003c8b 	sxth	w11, w4
  4024b4:	12003ca9 	and	w9, w5, #0xffff
  4024b8:	9101a3f5 	add	x21, sp, #0x68
  4024bc:	f9400002 	ldr	x2, [x0]
  4024c0:	f90047e2 	str	x2, [sp, #136]
  4024c4:	d2800002 	mov	x2, #0x0                   	// #0
  4024c8:	aa0103e8 	mov	x8, x1
  4024cc:	a90153f3 	stp	x19, x20, [sp, #16]
  4024d0:	910123f3 	add	x19, sp, #0x48
  4024d4:	d2800022 	mov	x2, #0x1                   	// #1
  4024d8:	f9001bf7 	str	x23, [sp, #48]
  4024dc:	f90023e1 	str	x1, [sp, #64]
  4024e0:	d37ef441 	lsl	x1, x2, #2
  4024e4:	91000442 	add	x2, x2, #0x1
  4024e8:	8b0102a0 	add	x0, x21, x1
  4024ec:	8b010261 	add	x1, x19, x1
  4024f0:	f100245f 	cmp	x2, #0x9
  4024f4:	b81fc01f 	stur	wzr, [x0, #-4]
  4024f8:	b81fc03f 	stur	wzr, [x1, #-4]
  4024fc:	54ffff21 	b.ne	4024e0 <core_bench_state+0x50>  // b.any
  402500:	39400101 	ldrb	w1, [x8]
  402504:	34000ac1 	cbz	w1, 40265c <core_bench_state+0x1cc>
  402508:	910103ed 	add	x13, sp, #0x40
  40250c:	d503201f 	nop
  402510:	aa1503e1 	mov	x1, x21
  402514:	aa0d03e0 	mov	x0, x13
  402518:	97fffee6 	bl	4020b0 <core_state_transition>
  40251c:	2a0003e0 	mov	w0, w0
  402520:	f94023e1 	ldr	x1, [sp, #64]
  402524:	39400022 	ldrb	w2, [x1]
  402528:	b8607a61 	ldr	w1, [x19, x0, lsl #2]
  40252c:	11000421 	add	w1, w1, #0x1
  402530:	b8207a61 	str	w1, [x19, x0, lsl #2]
  402534:	35fffee2 	cbnz	w2, 402510 <core_bench_state+0x80>
  402538:	f90023e8 	str	x8, [sp, #64]
  40253c:	8b2e410e 	add	x14, x8, w14, uxtw
  402540:	39400101 	ldrb	w1, [x8]
  402544:	eb0801df 	cmp	x14, x8
  402548:	54000949 	b.ls	402670 <core_bench_state+0x1e0>  // b.plast
  40254c:	93403d62 	sxth	x2, w11
  402550:	aa0803e0 	mov	x0, x8
  402554:	14000002 	b	40255c <core_bench_state+0xcc>
  402558:	38626821 	ldrb	w1, [x1, x2]
  40255c:	7100b03f 	cmp	w1, #0x2c
  402560:	54000060 	b.eq	40256c <core_bench_state+0xdc>  // b.none
  402564:	4a0c0021 	eor	w1, w1, w12
  402568:	39000001 	strb	w1, [x0]
  40256c:	f94023e1 	ldr	x1, [sp, #64]
  402570:	8b020020 	add	x0, x1, x2
  402574:	f90023e0 	str	x0, [sp, #64]
  402578:	eb0001df 	cmp	x14, x0
  40257c:	54fffee8 	b.hi	402558 <core_bench_state+0xc8>  // b.pmore
  402580:	39400100 	ldrb	w0, [x8]
  402584:	910103ed 	add	x13, sp, #0x40
  402588:	f90023e8 	str	x8, [sp, #64]
  40258c:	340001e0 	cbz	w0, 4025c8 <core_bench_state+0x138>
  402590:	aa1503e1 	mov	x1, x21
  402594:	aa0d03e0 	mov	x0, x13
  402598:	97fffec6 	bl	4020b0 <core_state_transition>
  40259c:	2a0003e0 	mov	w0, w0
  4025a0:	f94023e1 	ldr	x1, [sp, #64]
  4025a4:	39400022 	ldrb	w2, [x1]
  4025a8:	b8607a61 	ldr	w1, [x19, x0, lsl #2]
  4025ac:	11000421 	add	w1, w1, #0x1
  4025b0:	b8207a61 	str	w1, [x19, x0, lsl #2]
  4025b4:	35fffee2 	cbnz	w2, 402590 <core_bench_state+0x100>
  4025b8:	f90023e8 	str	x8, [sp, #64]
  4025bc:	93403d62 	sxth	x2, w11
  4025c0:	eb0801df 	cmp	x14, x8
  4025c4:	54000169 	b.ls	4025f0 <core_bench_state+0x160>  // b.plast
  4025c8:	39400100 	ldrb	w0, [x8]
  4025cc:	7100b01f 	cmp	w0, #0x2c
  4025d0:	54000060 	b.eq	4025dc <core_bench_state+0x14c>  // b.none
  4025d4:	4a0a0000 	eor	w0, w0, w10
  4025d8:	39000100 	strb	w0, [x8]
  4025dc:	f94023e8 	ldr	x8, [sp, #64]
  4025e0:	8b020108 	add	x8, x8, x2
  4025e4:	f90023e8 	str	x8, [sp, #64]
  4025e8:	eb0e011f 	cmp	x8, x14
  4025ec:	54fffee3 	b.cc	4025c8 <core_bench_state+0x138>  // b.lo, b.ul, b.last
  4025f0:	d2800037 	mov	x23, #0x1                   	// #1
  4025f4:	d503201f 	nop
  4025f8:	d37ef6f4 	lsl	x20, x23, #2
  4025fc:	2a0903e1 	mov	w1, w9
  402600:	8b140260 	add	x0, x19, x20
  402604:	8b1402b4 	add	x20, x21, x20
  402608:	910006f7 	add	x23, x23, #0x1
  40260c:	b85fc000 	ldur	w0, [x0, #-4]
  402610:	94000094 	bl	402860 <crcu32>
  402614:	2a0003e1 	mov	w1, w0
  402618:	b85fc280 	ldur	w0, [x20, #-4]
  40261c:	94000091 	bl	402860 <crcu32>
  402620:	12003c09 	and	w9, w0, #0xffff
  402624:	f10026ff 	cmp	x23, #0x9
  402628:	54fffe81 	b.ne	4025f8 <core_bench_state+0x168>  // b.any
  40262c:	f947a6d6 	ldr	x22, [x22, #3912]
  402630:	f94047e0 	ldr	x0, [sp, #136]
  402634:	f94002c1 	ldr	x1, [x22]
  402638:	eb010000 	subs	x0, x0, x1
  40263c:	d2800001 	mov	x1, #0x0                   	// #0
  402640:	540001c1 	b.ne	402678 <core_bench_state+0x1e8>  // b.any
  402644:	2a0903e0 	mov	w0, w9
  402648:	a94153f3 	ldp	x19, x20, [sp, #16]
  40264c:	a9425bf5 	ldp	x21, x22, [sp, #32]
  402650:	f9401bf7 	ldr	x23, [sp, #48]
  402654:	a8c97bfd 	ldp	x29, x30, [sp], #144
  402658:	d65f03c0 	ret
  40265c:	f90023e8 	str	x8, [sp, #64]
  402660:	8b2e410e 	add	x14, x8, w14, uxtw
  402664:	eb0e011f 	cmp	x8, x14
  402668:	54fff723 	b.cc	40254c <core_bench_state+0xbc>  // b.lo, b.ul, b.last
  40266c:	17ffffe1 	b	4025f0 <core_bench_state+0x160>
  402670:	35fff901 	cbnz	w1, 402590 <core_bench_state+0x100>
  402674:	17ffffdf 	b	4025f0 <core_bench_state+0x160>
  402678:	940067e2 	bl	41c600 <__stack_chk_fail>
  40267c:	d503201f 	nop

0000000000402680 <parseval>:
  402680:	39400004 	ldrb	w4, [x0]
  402684:	52800027 	mov	w7, #0x1                   	// #1
  402688:	7100b49f 	cmp	w4, #0x2d
  40268c:	54000081 	b.ne	40269c <parseval+0x1c>  // b.any
  402690:	39400404 	ldrb	w4, [x0, #1]
  402694:	91000400 	add	x0, x0, #0x1
  402698:	12800007 	mov	w7, #0xffffffff            	// #-1
  40269c:	7100c09f 	cmp	w4, #0x30
  4026a0:	54000300 	b.eq	402700 <parseval+0x80>  // b.none
  4026a4:	5100c085 	sub	w5, w4, #0x30
  4026a8:	12001ca1 	and	w1, w5, #0xff
  4026ac:	7100243f 	cmp	w1, #0x9
  4026b0:	54000668 	b.hi	40277c <parseval+0xfc>  // b.pmore
  4026b4:	39400403 	ldrb	w3, [x0, #1]
  4026b8:	52800001 	mov	w1, #0x0                   	// #0
  4026bc:	14000003 	b	4026c8 <parseval+0x48>
  4026c0:	5100c065 	sub	w5, w3, #0x30
  4026c4:	39400403 	ldrb	w3, [x0, #1]
  4026c8:	0b010821 	add	w1, w1, w1, lsl #2
  4026cc:	5100c062 	sub	w2, w3, #0x30
  4026d0:	12001c42 	and	w2, w2, #0xff
  4026d4:	91000400 	add	x0, x0, #0x1
  4026d8:	0b0104a1 	add	w1, w5, w1, lsl #1
  4026dc:	7100245f 	cmp	w2, #0x9
  4026e0:	54ffff09 	b.ls	4026c0 <parseval+0x40>  // b.plast
  4026e4:	71012c7f 	cmp	w3, #0x4b
  4026e8:	54000440 	b.eq	402770 <parseval+0xf0>  // b.none
  4026ec:	7101347f 	cmp	w3, #0x4d
  4026f0:	530c2c20 	lsl	w0, w1, #20
  4026f4:	1a810001 	csel	w1, w0, w1, eq  // eq = none
  4026f8:	1b077c20 	mul	w0, w1, w7
  4026fc:	d65f03c0 	ret
  402700:	39400403 	ldrb	w3, [x0, #1]
  402704:	52800005 	mov	w5, #0x0                   	// #0
  402708:	7101e07f 	cmp	w3, #0x78
  40270c:	54fffd61 	b.ne	4026b8 <parseval+0x38>  // b.any
  402710:	39400803 	ldrb	w3, [x0, #2]
  402714:	91000802 	add	x2, x0, #0x2
  402718:	5100c064 	sub	w4, w3, #0x30
  40271c:	51018460 	sub	w0, w3, #0x61
  402720:	12001c81 	and	w1, w4, #0xff
  402724:	12001c00 	and	w0, w0, #0xff
  402728:	7100243f 	cmp	w1, #0x9
  40272c:	52800001 	mov	w1, #0x0                   	// #0
  402730:	7a458800 	ccmp	w0, #0x5, #0x0, hi  // hi = pmore
  402734:	54fffd88 	b.hi	4026e4 <parseval+0x64>  // b.pmore
  402738:	51015c66 	sub	w6, w3, #0x57
  40273c:	38401c43 	ldrb	w3, [x2, #1]!
  402740:	7100249f 	cmp	w4, #0x9
  402744:	1a84c0c6 	csel	w6, w6, w4, gt
  402748:	5100c064 	sub	w4, w3, #0x30
  40274c:	12001c80 	and	w0, w4, #0xff
  402750:	51018465 	sub	w5, w3, #0x61
  402754:	7100241f 	cmp	w0, #0x9
  402758:	12001ca5 	and	w5, w5, #0xff
  40275c:	0b0110c1 	add	w1, w6, w1, lsl #4
  402760:	7a4588a0 	ccmp	w5, #0x5, #0x0, hi  // hi = pmore
  402764:	54fffea9 	b.ls	402738 <parseval+0xb8>  // b.plast
  402768:	71012c7f 	cmp	w3, #0x4b
  40276c:	54fffc01 	b.ne	4026ec <parseval+0x6c>  // b.any
  402770:	53165421 	lsl	w1, w1, #10
  402774:	1b077c20 	mul	w0, w1, w7
  402778:	d65f03c0 	ret
  40277c:	2a0403e3 	mov	w3, w4
  402780:	52800001 	mov	w1, #0x0                   	// #0
  402784:	17ffffd8 	b	4026e4 <parseval+0x64>

0000000000402788 <get_seed_args>:
  402788:	6b00003f 	cmp	w1, w0
  40278c:	5400006c 	b.gt	402798 <get_seed_args+0x10>
  402790:	52800000 	mov	w0, #0x0                   	// #0
  402794:	d65f03c0 	ret
  402798:	f860d840 	ldr	x0, [x2, w0, sxtw #3]
  40279c:	17ffffb9 	b	402680 <parseval>

00000000004027a0 <crcu8>:
  4027a0:	12001c03 	and	w3, w0, #0xff
  4027a4:	128bffc5 	mov	w5, #0xffffa001            	// #-24575
  4027a8:	12003c20 	and	w0, w1, #0xffff
  4027ac:	52800101 	mov	w1, #0x8                   	// #8
  4027b0:	4a030004 	eor	w4, w0, w3
  4027b4:	53017c00 	lsr	w0, w0, #1
  4027b8:	4a050002 	eor	w2, w0, w5
  4027bc:	51000421 	sub	w1, w1, #0x1
  4027c0:	f240009f 	tst	x4, #0x1
  4027c4:	12003c42 	and	w2, w2, #0xffff
  4027c8:	1a820000 	csel	w0, w0, w2, eq  // eq = none
  4027cc:	53017c63 	lsr	w3, w3, #1
  4027d0:	72001c21 	ands	w1, w1, #0xff
  4027d4:	54fffee1 	b.ne	4027b0 <crcu8+0x10>  // b.any
  4027d8:	d65f03c0 	ret
  4027dc:	d503201f 	nop

00000000004027e0 <crcu16>:
  4027e0:	12003c04 	and	w4, w0, #0xffff
  4027e4:	12003c21 	and	w1, w1, #0xffff
  4027e8:	12001c00 	and	w0, w0, #0xff
  4027ec:	52800102 	mov	w2, #0x8                   	// #8
  4027f0:	128bffc6 	mov	w6, #0xffffa001            	// #-24575
  4027f4:	d503201f 	nop
  4027f8:	4a000025 	eor	w5, w1, w0
  4027fc:	53017c21 	lsr	w1, w1, #1
  402800:	4a060023 	eor	w3, w1, w6
  402804:	51000442 	sub	w2, w2, #0x1
  402808:	f24000bf 	tst	x5, #0x1
  40280c:	12003c63 	and	w3, w3, #0xffff
  402810:	1a830021 	csel	w1, w1, w3, eq  // eq = none
  402814:	53017c00 	lsr	w0, w0, #1
  402818:	72001c42 	ands	w2, w2, #0xff
  40281c:	54fffee1 	b.ne	4027f8 <crcu16+0x18>  // b.any
  402820:	53087c83 	lsr	w3, w4, #8
  402824:	52800100 	mov	w0, #0x8                   	// #8
  402828:	128bffc5 	mov	w5, #0xffffa001            	// #-24575
  40282c:	d503201f 	nop
  402830:	4a030024 	eor	w4, w1, w3
  402834:	53017c21 	lsr	w1, w1, #1
  402838:	4a050022 	eor	w2, w1, w5
  40283c:	51000400 	sub	w0, w0, #0x1
  402840:	f240009f 	tst	x4, #0x1
  402844:	12003c42 	and	w2, w2, #0xffff
  402848:	1a820021 	csel	w1, w1, w2, eq  // eq = none
  40284c:	53017c63 	lsr	w3, w3, #1
  402850:	72001c00 	ands	w0, w0, #0xff
  402854:	54fffee1 	b.ne	402830 <crcu16+0x50>  // b.any
  402858:	2a0103e0 	mov	w0, w1
  40285c:	d65f03c0 	ret

0000000000402860 <crcu32>:
  402860:	2a0003e7 	mov	w7, w0
  402864:	a9bf7bfd 	stp	x29, x30, [sp, #-16]!
  402868:	910003fd 	mov	x29, sp
  40286c:	97ffffdd 	bl	4027e0 <crcu16>
  402870:	2a0003e1 	mov	w1, w0
  402874:	a8c17bfd 	ldp	x29, x30, [sp], #16
  402878:	53107ce0 	lsr	w0, w7, #16
  40287c:	17ffffd9 	b	4027e0 <crcu16>

0000000000402880 <crc16>:
  402880:	17ffffd8 	b	4027e0 <crcu16>
  402884:	d503201f 	nop

0000000000402888 <check_data_types>:
  402888:	52800000 	mov	w0, #0x0                   	// #0
  40288c:	d65f03c0 	ret

0000000000402890 <portable_malloc>:
  402890:	140049a8 	b	414f30 <__libc_malloc>
  402894:	d503201f 	nop

0000000000402898 <portable_free>:
  402898:	14004b1e 	b	415510 <__free>
  40289c:	d503201f 	nop

00000000004028a0 <start_time>:
  4028a0:	f0000441 	adrp	x1, 48d000 <_dl_main_map+0xa0>
  4028a4:	52800000 	mov	w0, #0x0                   	// #0
  4028a8:	91278021 	add	x1, x1, #0x9e0
  4028ac:	14005d55 	b	419e00 <__clock_gettime>

00000000004028b0 <stop_time>:
  4028b0:	f0000441 	adrp	x1, 48d000 <_dl_main_map+0xa0>
  4028b4:	91278021 	add	x1, x1, #0x9e0
  4028b8:	91004021 	add	x1, x1, #0x10
  4028bc:	52800000 	mov	w0, #0x0                   	// #0
  4028c0:	14005d50 	b	419e00 <__clock_gettime>
  4028c4:	d503201f 	nop

00000000004028c8 <get_time>:
  4028c8:	f0000440 	adrp	x0, 48d000 <_dl_main_map+0xa0>
  4028cc:	91278004 	add	x4, x0, #0x9e0
  4028d0:	d2869b62 	mov	x2, #0x34db                	// #13531
  4028d4:	f944f003 	ldr	x3, [x0, #2528]
  4028d8:	f2baf6c2 	movk	x2, #0xd7b6, lsl #16
  4028dc:	a9408085 	ldp	x5, x0, [x4, #8]
  4028e0:	f2dbd042 	movk	x2, #0xde82, lsl #32
  4028e4:	f9400c81 	ldr	x1, [x4, #24]
  4028e8:	f2e86362 	movk	x2, #0x431b, lsl #48
  4028ec:	cb050021 	sub	x1, x1, x5
  4028f0:	cb030003 	sub	x3, x0, x3
  4028f4:	d37be860 	lsl	x0, x3, #5
  4028f8:	9b427c22 	smulh	x2, x1, x2
  4028fc:	cb030000 	sub	x0, x0, x3
  402900:	8b000860 	add	x0, x3, x0, lsl #2
  402904:	9352fc42 	asr	x2, x2, #18
  402908:	cb81fc41 	sub	x1, x2, x1, asr #63
  40290c:	8b000c20 	add	x0, x1, x0, lsl #3
  402910:	d65f03c0 	ret
  402914:	d503201f 	nop

0000000000402918 <time_in_secs>:
  402918:	9e620001 	scvtf	d1, x0
  40291c:	d2c80001 	mov	x1, #0x400000000000        	// #70368744177664
  402920:	f2e811e1 	movk	x1, #0x408f, lsl #48
  402924:	9e670020 	fmov	d0, x1
  402928:	1e601820 	fdiv	d0, d1, d0
  40292c:	d65f03c0 	ret

0000000000402930 <portable_init>:
  402930:	52800021 	mov	w1, #0x1                   	// #1
  402934:	39000001 	strb	w1, [x0]
  402938:	d65f03c0 	ret
  40293c:	d503201f 	nop

0000000000402940 <portable_fini>:
  402940:	3900001f 	strb	wzr, [x0]
  402944:	d65f03c0 	ret

0000000000402948 <__libc_start_main>:
  402948:	a9a87bfd 	stp	x29, x30, [sp, #-384]!
  40294c:	d0000287 	adrp	x7, 454000 <free_modules_db+0x50>
  402950:	910003fd 	mov	x29, sp
  402954:	f94790e7 	ldr	x7, [x7, #3872]
  402958:	a90153f3 	stp	x19, x20, [sp, #16]
  40295c:	aa0303f3 	mov	x19, x3
  402960:	a9025bf5 	stp	x21, x22, [sp, #32]
  402964:	aa0403f4 	mov	x20, x4
  402968:	aa0503f5 	mov	x21, x5
  40296c:	a90363f7 	stp	x23, x24, [sp, #48]
  402970:	a9046bf9 	stp	x25, x26, [sp, #64]
  402974:	f9002bfb 	str	x27, [sp, #80]
  402978:	b9006fe1 	str	w1, [sp, #108]
  40297c:	52800001 	mov	w1, #0x0                   	// #0
  402980:	a90703e2 	stp	x2, x0, [sp, #112]
  402984:	b4000087 	cbz	x7, 402994 <__libc_start_main+0x4c>
  402988:	b94000e0 	ldr	w0, [x7]
  40298c:	7100001f 	cmp	w0, #0x0
  402990:	1a9f17e1 	cset	w1, eq  // eq = none
  402994:	f9403be5 	ldr	x5, [sp, #112]
  402998:	90000463 	adrp	x3, 48e000 <initial+0x90>
  40299c:	b9406fe0 	ldr	w0, [sp, #108]
  4029a0:	f0000444 	adrp	x4, 48d000 <_dl_main_map+0xa0>
  4029a4:	b0000442 	adrp	x2, 48b000 <__FRAME_END__+0xf85c>
  4029a8:	b9057881 	str	w1, [x4, #1400]
  4029ac:	8b20cca0 	add	x0, x5, w0, sxtw #3
  4029b0:	f9077446 	str	x6, [x2, #3816]
  4029b4:	91002000 	add	x0, x0, #0x8
  4029b8:	f9022060 	str	x0, [x3, #1088]
  4029bc:	d503201f 	nop
  4029c0:	f8408401 	ldr	x1, [x0], #8
  4029c4:	b5ffffe1 	cbnz	x1, 4029c0 <__libc_start_main+0x78>
  4029c8:	940068c4 	bl	41ccd8 <_dl_aux_init>
  4029cc:	90000461 	adrp	x1, 48e000 <initial+0x90>
  4029d0:	d0000280 	adrp	x0, 454000 <free_modules_db+0x50>
  4029d4:	f9473822 	ldr	x2, [x1, #3696]
  4029d8:	f9479400 	ldr	x0, [x0, #3880]
  4029dc:	f100005f 	cmp	x2, #0x0
  4029e0:	fa400804 	ccmp	x0, #0x0, #0x4, eq  // eq = none
  4029e4:	540007e1 	b.ne	402ae0 <__libc_start_main+0x198>  // b.any
  4029e8:	94006c2c 	bl	41da98 <__libc_init_secure>
  4029ec:	90000460 	adrp	x0, 48e000 <initial+0x90>
  4029f0:	f9422000 	ldr	x0, [x0, #1088]
  4029f4:	94006777 	bl	41c7d0 <__tunables_init>
  4029f8:	910223e1 	add	x1, sp, #0x88
  4029fc:	d2800002 	mov	x2, #0x0                   	// #0
  402a00:	52800060 	mov	w0, #0x3                   	// #3
  402a04:	94006897 	bl	41cc60 <__tunable_get_val>
  402a08:	f94047f6 	ldr	x22, [sp, #136]
  402a0c:	b4000196 	cbz	x22, 402a3c <__libc_start_main+0xf4>
  402a10:	d0000298 	adrp	x24, 454000 <free_modules_db+0x50>
  402a14:	913d2318 	add	x24, x24, #0xf48
  402a18:	d2800017 	mov	x23, #0x0                   	// #0
  402a1c:	d37ceee1 	lsl	x1, x23, #4
  402a20:	aa1603e0 	mov	x0, x22
  402a24:	f8786821 	ldr	x1, [x1, x24]
  402a28:	94004fd6 	bl	416980 <strcmp>
  402a2c:	34000fc0 	cbz	w0, 402c24 <__libc_start_main+0x2dc>
  402a30:	910006f7 	add	x23, x23, #0x1
  402a34:	f10026ff 	cmp	x23, #0x9
  402a38:	54ffff21 	b.ne	402a1c <__libc_start_main+0xd4>  // b.any
  402a3c:	90000460 	adrp	x0, 48e000 <initial+0x90>
  402a40:	f9423001 	ldr	x1, [x0, #1120]
  402a44:	92750020 	and	x0, x1, #0x800
  402a48:	36580041 	tbz	w1, #11, 402a50 <__libc_start_main+0x108>
  402a4c:	d5380000 	mrs	x0, midr_el1
  402a50:	90000461 	adrp	x1, 48e000 <initial+0x90>
  402a54:	9111a022 	add	x2, x1, #0x468
  402a58:	f9023420 	str	x0, [x1, #1128]
  402a5c:	d53b00e0 	mrs	x0, dczid_el0
  402a60:	372000a0 	tbnz	w0, #4, 402a74 <__libc_start_main+0x12c>
  402a64:	12000c00 	and	w0, w0, #0xf
  402a68:	52800081 	mov	w1, #0x4                   	// #4
  402a6c:	1ac02020 	lsl	w0, w1, w0
  402a70:	b9000840 	str	w0, [x2, #8]
  402a74:	d0000280 	adrp	x0, 454000 <free_modules_db+0x50>
  402a78:	d000029b 	adrp	x27, 454000 <free_modules_db+0x50>
  402a7c:	d2800318 	mov	x24, #0x18                  	// #24
  402a80:	9000047a 	adrp	x26, 48e000 <initial+0x90>
  402a84:	f9478c16 	ldr	x22, [x0, #3864]
  402a88:	90000479 	adrp	x25, 48e000 <initial+0x90>
  402a8c:	1400000b 	b	402ab8 <__libc_start_main+0x170>
  402a90:	f9400ac2 	ldr	x2, [x22, #16]
  402a94:	910062d6 	add	x22, x22, #0x18
  402a98:	f9423340 	ldr	x0, [x26, #1120]
  402a9c:	a90903f8 	stp	x24, x0, [sp, #144]
  402aa0:	f9422b21 	ldr	x1, [x25, #1104]
  402aa4:	f90053e1 	str	x1, [sp, #160]
  402aa8:	b2420000 	orr	x0, x0, #0x4000000000000000
  402aac:	910243e1 	add	x1, sp, #0x90
  402ab0:	d63f0040 	blr	x2
  402ab4:	f90002e0 	str	x0, [x23]
  402ab8:	f9479b60 	ldr	x0, [x27, #3888]
  402abc:	eb0002df 	cmp	x22, x0
  402ac0:	54000342 	b.cs	402b28 <__libc_start_main+0x1e0>  // b.hs, b.nlast
  402ac4:	b9400ac0 	ldr	w0, [x22, #8]
  402ac8:	f94002d7 	ldr	x23, [x22]
  402acc:	f110201f 	cmp	x0, #0x408
  402ad0:	54fffe00 	b.eq	402a90 <__libc_start_main+0x148>  // b.none
  402ad4:	d0000280 	adrp	x0, 454000 <free_modules_db+0x50>
  402ad8:	9138a000 	add	x0, x0, #0xe28
  402adc:	9400240f 	bl	40bb18 <__libc_fatal>
  402ae0:	79406c02 	ldrh	w2, [x0, #54]
  402ae4:	7100e05f 	cmp	w2, #0x38
  402ae8:	54000120 	b.eq	402b0c <__libc_start_main+0x1c4>  // b.none
  402aec:	d0000283 	adrp	x3, 454000 <free_modules_db+0x50>
  402af0:	d0000281 	adrp	x1, 454000 <free_modules_db+0x50>
  402af4:	d0000280 	adrp	x0, 454000 <free_modules_db+0x50>
  402af8:	913a6063 	add	x3, x3, #0xe98
  402afc:	91378021 	add	x1, x1, #0xde0
  402b00:	9137e000 	add	x0, x0, #0xdf8
  402b04:	52801682 	mov	w2, #0xb4                  	// #180
  402b08:	940001e2 	bl	403290 <__assert_fail>
  402b0c:	f9401002 	ldr	x2, [x0, #32]
  402b10:	90000463 	adrp	x3, 48e000 <initial+0x90>
  402b14:	79407004 	ldrh	w4, [x0, #56]
  402b18:	f9075464 	str	x4, [x3, #3752]
  402b1c:	8b000040 	add	x0, x2, x0
  402b20:	f9073820 	str	x0, [x1, #3696]
  402b24:	17ffffb1 	b	4029e8 <__libc_start_main+0xa0>
  402b28:	940000a8 	bl	402dc8 <__libc_setup_tls>
  402b2c:	b0000440 	adrp	x0, 48b000 <__FRAME_END__+0xf85c>
  402b30:	f0000441 	adrp	x1, 48d000 <_dl_main_map+0xa0>
  402b34:	b0000442 	adrp	x2, 48b000 <__FRAME_END__+0xf85c>
  402b38:	f9472400 	ldr	x0, [x0, #3656]
  402b3c:	b9457821 	ldr	w1, [x1, #1400]
  402b40:	f9400000 	ldr	x0, [x0]
  402b44:	9278dc00 	and	x0, x0, #0xffffffffffffff00
  402b48:	f904d040 	str	x0, [x2, #2464]
  402b4c:	34000761 	cbz	w1, 402c38 <__libc_start_main+0x2f0>
  402b50:	d0000280 	adrp	x0, 454000 <free_modules_db+0x50>
  402b54:	f9479c00 	ldr	x0, [x0, #3896]
  402b58:	b4000040 	cbz	x0, 402b60 <__libc_start_main+0x218>
  402b5c:	d503201f 	nop
  402b60:	b0000441 	adrp	x1, 48b000 <__FRAME_END__+0xf85c>
  402b64:	b0000440 	adrp	x0, 48b000 <__FRAME_END__+0xf85c>
  402b68:	f9472421 	ldr	x1, [x1, #3656]
  402b6c:	f9400421 	ldr	x1, [x1, #8]
  402b70:	f904d401 	str	x1, [x0, #2472]
  402b74:	b40000b5 	cbz	x21, 402b88 <__libc_start_main+0x240>
  402b78:	aa1503e0 	mov	x0, x21
  402b7c:	d2800002 	mov	x2, #0x0                   	// #0
  402b80:	d2800001 	mov	x1, #0x0                   	// #0
  402b84:	94001619 	bl	4083e8 <__cxa_atexit>
  402b88:	90000462 	adrp	x2, 48e000 <initial+0x90>
  402b8c:	b9406fe0 	ldr	w0, [sp, #108]
  402b90:	f9403be1 	ldr	x1, [sp, #112]
  402b94:	f9422042 	ldr	x2, [x2, #1088]
  402b98:	94006c38 	bl	41dc78 <__libc_init_first>
  402b9c:	b40000b4 	cbz	x20, 402bb0 <__libc_start_main+0x268>
  402ba0:	aa1403e0 	mov	x0, x20
  402ba4:	d2800002 	mov	x2, #0x0                   	// #0
  402ba8:	d2800001 	mov	x1, #0x0                   	// #0
  402bac:	9400160f 	bl	4083e8 <__cxa_atexit>
  402bb0:	b0000440 	adrp	x0, 48b000 <__FRAME_END__+0xf85c>
  402bb4:	b94ef000 	ldr	w0, [x0, #3824]
  402bb8:	350007a0 	cbnz	w0, 402cac <__libc_start_main+0x364>
  402bbc:	b40000d3 	cbz	x19, 402bd4 <__libc_start_main+0x28c>
  402bc0:	90000462 	adrp	x2, 48e000 <initial+0x90>
  402bc4:	b9406fe0 	ldr	w0, [sp, #108]
  402bc8:	f9403be1 	ldr	x1, [sp, #112]
  402bcc:	f9422042 	ldr	x2, [x2, #1088]
  402bd0:	d63f0260 	blr	x19
  402bd4:	d2800001 	mov	x1, #0x0                   	// #0
  402bd8:	d2800000 	mov	x0, #0x0                   	// #0
  402bdc:	9400669d 	bl	41c650 <_dl_debug_initialize>
  402be0:	9102a3e0 	add	x0, sp, #0xa8
  402be4:	9400126b 	bl	407590 <_setjmp>
  402be8:	35000440 	cbnz	w0, 402c70 <__libc_start_main+0x328>
  402bec:	d53bd040 	mrs	x0, tpidr_el0
  402bf0:	90000461 	adrp	x1, 48e000 <initial+0x90>
  402bf4:	d11c0000 	sub	x0, x0, #0x700
  402bf8:	9102a3e3 	add	x3, sp, #0xa8
  402bfc:	f9422022 	ldr	x2, [x1, #1088]
  402c00:	f9408004 	ldr	x4, [x0, #256]
  402c04:	f9008003 	str	x3, [x0, #256]
  402c08:	f9407c03 	ldr	x3, [x0, #248]
  402c0c:	a9160fe4 	stp	x4, x3, [sp, #352]
  402c10:	b9406fe0 	ldr	w0, [sp, #108]
  402c14:	f9403be1 	ldr	x1, [sp, #112]
  402c18:	f9403fe3 	ldr	x3, [sp, #120]
  402c1c:	d63f0060 	blr	x3
  402c20:	94001566 	bl	4081b8 <exit>
  402c24:	8b37d318 	add	x24, x24, w23, sxtw #4
  402c28:	f9400700 	ldr	x0, [x24, #8]
  402c2c:	b100041f 	cmn	x0, #0x1
  402c30:	54fff101 	b.ne	402a50 <__libc_start_main+0x108>  // b.any
  402c34:	17ffff82 	b	402a3c <__libc_start_main+0xf4>
  402c38:	94006bc4 	bl	41db48 <_dl_discover_osversion>
  402c3c:	37f80420 	tbnz	w0, #31, 402cc0 <__libc_start_main+0x378>
  402c40:	90000461 	adrp	x1, 48e000 <initial+0x90>
  402c44:	b94ec821 	ldr	w1, [x1, #3784]
  402c48:	35000361 	cbnz	w1, 402cb4 <__libc_start_main+0x36c>
  402c4c:	90000461 	adrp	x1, 48e000 <initial+0x90>
  402c50:	b90ec820 	str	w0, [x1, #3784]
  402c54:	5280dfe1 	mov	w1, #0x6ff                 	// #1791
  402c58:	72a00061 	movk	w1, #0x3, lsl #16
  402c5c:	6b01001f 	cmp	w0, w1
  402c60:	54fff78c 	b.gt	402b50 <__libc_start_main+0x208>
  402c64:	d0000280 	adrp	x0, 454000 <free_modules_db+0x50>
  402c68:	91396000 	add	x0, x0, #0xe58
  402c6c:	940023ab 	bl	40bb18 <__libc_fatal>
  402c70:	d503201f 	nop
  402c74:	d0000280 	adrp	x0, 454000 <free_modules_db+0x50>
  402c78:	f947a000 	ldr	x0, [x0, #3904]
  402c7c:	885ffc01 	ldaxr	w1, [x0]
  402c80:	51000422 	sub	w2, w1, #0x1
  402c84:	88037c02 	stxr	w3, w2, [x0]
  402c88:	35ffffa3 	cbnz	w3, 402c7c <__libc_start_main+0x334>
  402c8c:	7100043f 	cmp	w1, #0x1
  402c90:	540000a0 	b.eq	402ca4 <__libc_start_main+0x35c>  // b.none
  402c94:	d2800ba8 	mov	x8, #0x5d                  	// #93
  402c98:	d2800000 	mov	x0, #0x0                   	// #0
  402c9c:	d4000001 	svc	#0x0
  402ca0:	17fffffe 	b	402c98 <__libc_start_main+0x350>
  402ca4:	52800000 	mov	w0, #0x0                   	// #0
  402ca8:	94001544 	bl	4081b8 <exit>
  402cac:	9400003b 	bl	402d98 <__libc_check_standard_fds>
  402cb0:	17ffffc3 	b	402bbc <__libc_start_main+0x274>
  402cb4:	6b00003f 	cmp	w1, w0
  402cb8:	54fffce9 	b.ls	402c54 <__libc_start_main+0x30c>  // b.plast
  402cbc:	17ffffe4 	b	402c4c <__libc_start_main+0x304>
  402cc0:	d0000280 	adrp	x0, 454000 <free_modules_db+0x50>
  402cc4:	9139c000 	add	x0, x0, #0xe70
  402cc8:	94002394 	bl	40bb18 <__libc_fatal>
  402ccc:	d503201f 	nop

0000000000402cd0 <check_one_fd>:
  402cd0:	a9b57bfd 	stp	x29, x30, [sp, #-176]!
  402cd4:	910003fd 	mov	x29, sp
  402cd8:	a90153f3 	stp	x19, x20, [sp, #16]
  402cdc:	2a0103f4 	mov	w20, w1
  402ce0:	2a0003f3 	mov	w19, w0
  402ce4:	52800021 	mov	w1, #0x1                   	// #1
  402ce8:	94006034 	bl	41adb8 <__fcntl64_nocancel>
  402cec:	3100041f 	cmn	w0, #0x1
  402cf0:	54000080 	b.eq	402d00 <check_one_fd+0x30>  // b.none
  402cf4:	a94153f3 	ldp	x19, x20, [sp, #16]
  402cf8:	a8cb7bfd 	ldp	x29, x30, [sp], #176
  402cfc:	d65f03c0 	ret
  402d00:	b0000440 	adrp	x0, 48b000 <__FRAME_END__+0xf85c>
  402d04:	f947c400 	ldr	x0, [x0, #3976]
  402d08:	d53bd041 	mrs	x1, tpidr_el0
  402d0c:	b8606820 	ldr	w0, [x1, x0]
  402d10:	7100241f 	cmp	w0, #0x9
  402d14:	54ffff01 	b.ne	402cf4 <check_one_fd+0x24>  // b.any
  402d18:	f90013f5 	str	x21, [sp, #32]
  402d1c:	7140229f 	cmp	w20, #0x8, lsl #12
  402d20:	54000301 	b.ne	402d80 <check_one_fd+0xb0>  // b.any
  402d24:	d0000280 	adrp	x0, 454000 <free_modules_db+0x50>
  402d28:	913fa000 	add	x0, x0, #0xfe8
  402d2c:	d2802075 	mov	x21, #0x103                 	// #259
  402d30:	2a1403e1 	mov	w1, w20
  402d34:	52800002 	mov	w2, #0x0                   	// #0
  402d38:	9400603a 	bl	41ae20 <__open64_nocancel>
  402d3c:	6b00027f 	cmp	w19, w0
  402d40:	540001a1 	b.ne	402d74 <check_one_fd+0xa4>  // b.any
  402d44:	2a1303e1 	mov	w1, w19
  402d48:	9100c3e2 	add	x2, sp, #0x30
  402d4c:	52800000 	mov	w0, #0x0                   	// #0
  402d50:	94005d72 	bl	41a318 <__fxstat>
  402d54:	35000100 	cbnz	w0, 402d74 <check_one_fd+0xa4>
  402d58:	b94043e0 	ldr	w0, [sp, #64]
  402d5c:	12140c00 	and	w0, w0, #0xf000
  402d60:	7140081f 	cmp	w0, #0x2, lsl #12
  402d64:	54000081 	b.ne	402d74 <check_one_fd+0xa4>  // b.any
  402d68:	f9402be0 	ldr	x0, [sp, #80]
  402d6c:	eb15001f 	cmp	x0, x21
  402d70:	54000100 	b.eq	402d90 <check_one_fd+0xc0>  // b.none
  402d74:	d4207d00 	brk	#0x3e8
  402d78:	d4207d00 	brk	#0x3e8
  402d7c:	17fffffe 	b	402d74 <check_one_fd+0xa4>
  402d80:	d0000280 	adrp	x0, 454000 <free_modules_db+0x50>
  402d84:	d28020f5 	mov	x21, #0x107                 	// #263
  402d88:	913f6000 	add	x0, x0, #0xfd8
  402d8c:	17ffffe9 	b	402d30 <check_one_fd+0x60>
  402d90:	f94013f5 	ldr	x21, [sp, #32]
  402d94:	17ffffd8 	b	402cf4 <check_one_fd+0x24>

0000000000402d98 <__libc_check_standard_fds>:
  402d98:	a9bf7bfd 	stp	x29, x30, [sp, #-16]!
  402d9c:	52900021 	mov	w1, #0x8001                	// #32769
  402da0:	52800000 	mov	w0, #0x0                   	// #0
  402da4:	910003fd 	mov	x29, sp
  402da8:	97ffffca 	bl	402cd0 <check_one_fd>
  402dac:	52900001 	mov	w1, #0x8000                	// #32768
  402db0:	52800020 	mov	w0, #0x1                   	// #1
  402db4:	97ffffc7 	bl	402cd0 <check_one_fd>
  402db8:	a8c17bfd 	ldp	x29, x30, [sp], #16
  402dbc:	52900001 	mov	w1, #0x8000                	// #32768
  402dc0:	52800040 	mov	w0, #0x2                   	// #2
  402dc4:	17ffffc3 	b	402cd0 <check_one_fd>

0000000000402dc8 <__libc_setup_tls>:
  402dc8:	a9b87bfd 	stp	x29, x30, [sp, #-128]!
  402dcc:	90000461 	adrp	x1, 48e000 <initial+0x90>
  402dd0:	f0000440 	adrp	x0, 48d000 <_dl_main_map+0xa0>
  402dd4:	910003fd 	mov	x29, sp
  402dd8:	a90153f3 	stp	x19, x20, [sp, #16]
  402ddc:	f9473833 	ldr	x19, [x1, #3696]
  402de0:	a9025bf5 	stp	x21, x22, [sp, #32]
  402de4:	a90363f7 	stp	x23, x24, [sp, #48]
  402de8:	a9046bf9 	stp	x25, x26, [sp, #64]
  402dec:	a90573fb 	stp	x27, x28, [sp, #80]
  402df0:	f9425817 	ldr	x23, [x0, #1200]
  402df4:	b4000df3 	cbz	x19, 402fb0 <__libc_setup_tls+0x1e8>
  402df8:	90000460 	adrp	x0, 48e000 <initial+0x90>
  402dfc:	f9475400 	ldr	x0, [x0, #3752]
  402e00:	d37df001 	lsl	x1, x0, #3
  402e04:	cb000021 	sub	x1, x1, x0
  402e08:	8b010e61 	add	x1, x19, x1, lsl #3
  402e0c:	eb01027f 	cmp	x19, x1
  402e10:	540000a3 	b.cc	402e24 <__libc_setup_tls+0x5c>  // b.lo, b.ul, b.last
  402e14:	14000071 	b	402fd8 <__libc_setup_tls+0x210>
  402e18:	9100e273 	add	x19, x19, #0x38
  402e1c:	eb01027f 	cmp	x19, x1
  402e20:	54000b22 	b.cs	402f84 <__libc_setup_tls+0x1bc>  // b.hs, b.nlast
  402e24:	b9400260 	ldr	w0, [x19]
  402e28:	71001c1f 	cmp	w0, #0x7
  402e2c:	54ffff61 	b.ne	402e18 <__libc_setup_tls+0x50>  // b.any
  402e30:	f9401a78 	ldr	x24, [x19, #48]
  402e34:	d2800215 	mov	x21, #0x10                  	// #16
  402e38:	f94002e0 	ldr	x0, [x23]
  402e3c:	eb15031f 	cmp	x24, x21
  402e40:	f9400a63 	ldr	x3, [x19, #16]
  402e44:	9a952319 	csel	x25, x24, x21, cs  // cs = hs, nlast
  402e48:	f100031f 	cmp	x24, #0x0
  402e4c:	d2800021 	mov	x1, #0x1                   	// #1
  402e50:	d1000724 	sub	x4, x25, #0x1
  402e54:	cb1903e2 	neg	x2, x25
  402e58:	9a81131a 	csel	x26, x24, x1, ne  // ne = any
  402e5c:	8b030000 	add	x0, x0, x3
  402e60:	a942527c 	ldp	x28, x20, [x19, #32]
  402e64:	b4000c58 	cbz	x24, 402fec <__libc_setup_tls+0x224>
  402e68:	91003f15 	add	x21, x24, #0xf
  402e6c:	aa0003f3 	mov	x19, x0
  402e70:	9ada0ab5 	udiv	x21, x21, x26
  402e74:	9b1a7eb5 	mul	x21, x21, x26
  402e78:	aa1503e5 	mov	x5, x21
  402e7c:	d000045b 	adrp	x27, 48c000 <_GLOBAL_OFFSET_TABLE_+0xc8>
  402e80:	8b190281 	add	x1, x20, x25
  402e84:	a9068be4 	stp	x4, x2, [sp, #104]
  402e88:	f9403760 	ldr	x0, [x27, #104]
  402e8c:	f9003fe5 	str	x5, [sp, #120]
  402e90:	911c0000 	add	x0, x0, #0x700
  402e94:	8b010000 	add	x0, x0, x1
  402e98:	8b150000 	add	x0, x0, x21
  402e9c:	9400606d 	bl	41b050 <__sbrk>
  402ea0:	a9468be4 	ldp	x4, x2, [sp, #104]
  402ea4:	90000461 	adrp	x1, 48e000 <initial+0x90>
  402ea8:	911c0016 	add	x22, x0, #0x700
  402eac:	9126c023 	add	x3, x1, #0x9b0
  402eb0:	f9403fe5 	ldr	x5, [sp, #120]
  402eb4:	f9023ee5 	str	x5, [x23, #1144]
  402eb8:	8b0402d6 	add	x22, x22, x4
  402ebc:	8a0202d6 	and	x22, x22, x2
  402ec0:	d28007c2 	mov	x2, #0x3e                  	// #62
  402ec4:	8b1502c0 	add	x0, x22, x21
  402ec8:	a9027c60 	stp	x0, xzr, [x3, #32]
  402ecc:	f904d822 	str	x2, [x1, #2480]
  402ed0:	aa1c03e2 	mov	x2, x28
  402ed4:	aa1303e1 	mov	x1, x19
  402ed8:	97fff4f6 	bl	4002b0 <.plt+0x10>
  402edc:	90000460 	adrp	x0, 48e000 <initial+0x90>
  402ee0:	91270000 	add	x0, x0, #0x9c0
  402ee4:	f90002c0 	str	x0, [x22]
  402ee8:	d51bd056 	msr	tpidr_el0, x22
  402eec:	f0000443 	adrp	x3, 48d000 <_dl_main_map+0xa0>
  402ef0:	91280062 	add	x2, x3, #0xa00
  402ef4:	90000467 	adrp	x7, 48e000 <initial+0x90>
  402ef8:	8b180280 	add	x0, x20, x24
  402efc:	f100031f 	cmp	x24, #0x0
  402f00:	d1000400 	sub	x0, x0, #0x1
  402f04:	f906d8e2 	str	x2, [x7, #3504]
  402f08:	90000466 	adrp	x6, 48e000 <initial+0x90>
  402f0c:	f9001457 	str	x23, [x2, #40]
  402f10:	911142e2 	add	x2, x23, #0x450
  402f14:	90000461 	adrp	x1, 48e000 <initial+0x90>
  402f18:	90000465 	adrp	x5, 48e000 <initial+0x90>
  402f1c:	90000464 	adrp	x4, 48e000 <initial+0x90>
  402f20:	a9016054 	stp	x20, x24, [x2, #16]
  402f24:	9a941014 	csel	x20, x0, x20, ne  // ne = any
  402f28:	f9403760 	ldr	x0, [x27, #104]
  402f2c:	a9007053 	stp	x19, x28, [x2]
  402f30:	9ada0a94 	udiv	x20, x20, x26
  402f34:	91003c00 	add	x0, x0, #0xf
  402f38:	f904d039 	str	x25, [x1, #2464]
  402f3c:	d2800021 	mov	x1, #0x1                   	// #1
  402f40:	f904d4a1 	str	x1, [x5, #2472]
  402f44:	f906e481 	str	x1, [x4, #3528]
  402f48:	9b1a5694 	madd	x20, x20, x26, x21
  402f4c:	f90242e1 	str	x1, [x23, #1152]
  402f50:	f904ccd4 	str	x20, [x6, #2456]
  402f54:	d2800806 	mov	x6, #0x40                  	// #64
  402f58:	8b140014 	add	x20, x0, x20
  402f5c:	f9050066 	str	x6, [x3, #2560]
  402f60:	927cee94 	and	x20, x20, #0xfffffffffffffff0
  402f64:	f9003774 	str	x20, [x27, #104]
  402f68:	a94153f3 	ldp	x19, x20, [sp, #16]
  402f6c:	a9425bf5 	ldp	x21, x22, [sp, #32]
  402f70:	a94363f7 	ldp	x23, x24, [sp, #48]
  402f74:	a9446bf9 	ldp	x25, x26, [sp, #64]
  402f78:	a94573fb 	ldp	x27, x28, [sp, #80]
  402f7c:	a8c87bfd 	ldp	x29, x30, [sp], #128
  402f80:	d65f03c0 	ret
  402f84:	d2800215 	mov	x21, #0x10                  	// #16
  402f88:	aa1503e5 	mov	x5, x21
  402f8c:	aa1503f9 	mov	x25, x21
  402f90:	928001e2 	mov	x2, #0xfffffffffffffff0    	// #-16
  402f94:	d28001e4 	mov	x4, #0xf                   	// #15
  402f98:	d280003a 	mov	x26, #0x1                   	// #1
  402f9c:	d2800018 	mov	x24, #0x0                   	// #0
  402fa0:	d2800013 	mov	x19, #0x0                   	// #0
  402fa4:	d280001c 	mov	x28, #0x0                   	// #0
  402fa8:	d2800014 	mov	x20, #0x0                   	// #0
  402fac:	17ffffb4 	b	402e7c <__libc_setup_tls+0xb4>
  402fb0:	d2800215 	mov	x21, #0x10                  	// #16
  402fb4:	928001e2 	mov	x2, #0xfffffffffffffff0    	// #-16
  402fb8:	aa1503e5 	mov	x5, x21
  402fbc:	aa1503f9 	mov	x25, x21
  402fc0:	d28001e4 	mov	x4, #0xf                   	// #15
  402fc4:	d280003a 	mov	x26, #0x1                   	// #1
  402fc8:	d2800018 	mov	x24, #0x0                   	// #0
  402fcc:	d280001c 	mov	x28, #0x0                   	// #0
  402fd0:	d2800014 	mov	x20, #0x0                   	// #0
  402fd4:	17ffffaa 	b	402e7c <__libc_setup_tls+0xb4>
  402fd8:	d2800215 	mov	x21, #0x10                  	// #16
  402fdc:	928001e2 	mov	x2, #0xfffffffffffffff0    	// #-16
  402fe0:	aa1503e5 	mov	x5, x21
  402fe4:	aa1503f9 	mov	x25, x21
  402fe8:	17ffffeb 	b	402f94 <__libc_setup_tls+0x1cc>
  402fec:	aa0003f3 	mov	x19, x0
  402ff0:	aa0103fa 	mov	x26, x1
  402ff4:	aa1503e5 	mov	x5, x21
  402ff8:	aa1503f9 	mov	x25, x21
  402ffc:	17ffffa0 	b	402e7c <__libc_setup_tls+0xb4>

0000000000403000 <__tls_get_addr>:
  403000:	d53bd041 	mrs	x1, tpidr_el0
  403004:	f9400400 	ldr	x0, [x0, #8]
  403008:	f9400021 	ldr	x1, [x1]
  40300c:	f9400821 	ldr	x1, [x1, #16]
  403010:	8b000020 	add	x0, x1, x0
  403014:	d65f03c0 	ret

0000000000403018 <__libc_csu_init>:
  403018:	a9bc7bfd 	stp	x29, x30, [sp, #-64]!
  40301c:	910003fd 	mov	x29, sp
  403020:	a90363f7 	stp	x23, x24, [sp, #48]
  403024:	90000457 	adrp	x23, 48b000 <__FRAME_END__+0xf85c>
  403028:	90000458 	adrp	x24, 48b000 <__FRAME_END__+0xf85c>
  40302c:	912422f7 	add	x23, x23, #0x908
  403030:	91242318 	add	x24, x24, #0x908
  403034:	cb1802f7 	sub	x23, x23, x24
  403038:	a90153f3 	stp	x19, x20, [sp, #16]
  40303c:	2a0003f4 	mov	w20, w0
  403040:	a9025bf5 	stp	x21, x22, [sp, #32]
  403044:	eb970fff 	cmp	xzr, x23, asr #3
  403048:	aa0103f5 	mov	x21, x1
  40304c:	aa0203f6 	mov	x22, x2
  403050:	54000180 	b.eq	403080 <__libc_csu_init+0x68>  // b.none
  403054:	9343fef7 	asr	x23, x23, #3
  403058:	d2800013 	mov	x19, #0x0                   	// #0
  40305c:	d503201f 	nop
  403060:	f8737b03 	ldr	x3, [x24, x19, lsl #3]
  403064:	aa1603e2 	mov	x2, x22
  403068:	91000673 	add	x19, x19, #0x1
  40306c:	aa1503e1 	mov	x1, x21
  403070:	2a1403e0 	mov	w0, w20
  403074:	d63f0060 	blr	x3
  403078:	eb1302ff 	cmp	x23, x19
  40307c:	54ffff21 	b.ne	403060 <__libc_csu_init+0x48>  // b.any
  403080:	90000457 	adrp	x23, 48b000 <__FRAME_END__+0xf85c>
  403084:	90000458 	adrp	x24, 48b000 <__FRAME_END__+0xf85c>
  403088:	912442f7 	add	x23, x23, #0x910
  40308c:	91242318 	add	x24, x24, #0x908
  403090:	cb1802f7 	sub	x23, x23, x24
  403094:	97fff47b 	bl	400280 <_init>
  403098:	eb970fff 	cmp	xzr, x23, asr #3
  40309c:	9343fef7 	asr	x23, x23, #3
  4030a0:	54000140 	b.eq	4030c8 <__libc_csu_init+0xb0>  // b.none
  4030a4:	d2800013 	mov	x19, #0x0                   	// #0
  4030a8:	f8737b03 	ldr	x3, [x24, x19, lsl #3]
  4030ac:	aa1603e2 	mov	x2, x22
  4030b0:	91000673 	add	x19, x19, #0x1
  4030b4:	aa1503e1 	mov	x1, x21
  4030b8:	2a1403e0 	mov	w0, w20
  4030bc:	d63f0060 	blr	x3
  4030c0:	eb1302ff 	cmp	x23, x19
  4030c4:	54ffff21 	b.ne	4030a8 <__libc_csu_init+0x90>  // b.any
  4030c8:	a94153f3 	ldp	x19, x20, [sp, #16]
  4030cc:	a9425bf5 	ldp	x21, x22, [sp, #32]
  4030d0:	a94363f7 	ldp	x23, x24, [sp, #48]
  4030d4:	a8c47bfd 	ldp	x29, x30, [sp], #64
  4030d8:	d65f03c0 	ret
  4030dc:	d503201f 	nop

00000000004030e0 <__libc_csu_fini>:
  4030e0:	a9be7bfd 	stp	x29, x30, [sp, #-32]!
  4030e4:	90000440 	adrp	x0, 48b000 <__FRAME_END__+0xf85c>
  4030e8:	91248000 	add	x0, x0, #0x920
  4030ec:	910003fd 	mov	x29, sp
  4030f0:	a90153f3 	stp	x19, x20, [sp, #16]
  4030f4:	90000454 	adrp	x20, 48b000 <__FRAME_END__+0xf85c>
  4030f8:	91244294 	add	x20, x20, #0x910
  4030fc:	cb140000 	sub	x0, x0, x20
  403100:	9343fc00 	asr	x0, x0, #3
  403104:	b4000100 	cbz	x0, 403124 <__libc_csu_fini+0x44>
  403108:	d1000413 	sub	x19, x0, #0x1
  40310c:	d503201f 	nop
  403110:	f8737a80 	ldr	x0, [x20, x19, lsl #3]
  403114:	d1000673 	sub	x19, x19, #0x1
  403118:	d63f0000 	blr	x0
  40311c:	b100067f 	cmn	x19, #0x1
  403120:	54ffff81 	b.ne	403110 <__libc_csu_fini+0x30>  // b.any
  403124:	a94153f3 	ldp	x19, x20, [sp, #16]
  403128:	a8c27bfd 	ldp	x29, x30, [sp], #32
  40312c:	140145ae 	b	4547e4 <_fini>

0000000000403130 <__assert_fail_base>:
  403130:	d101c3ff 	sub	sp, sp, #0x70
  403134:	d0000286 	adrp	x6, 455000 <cpu_list+0xb8>
  403138:	90000445 	adrp	x5, 48b000 <__FRAME_END__+0xf85c>
  40313c:	912680a5 	add	x5, x5, #0x9a0
  403140:	a9017bfd 	stp	x29, x30, [sp, #16]
  403144:	910043fd 	add	x29, sp, #0x10
  403148:	f94024c6 	ldr	x6, [x6, #72]
  40314c:	f94000a7 	ldr	x7, [x5]
  403150:	f90037e7 	str	x7, [sp, #104]
  403154:	d2800007 	mov	x7, #0x0                   	// #0
  403158:	a90253f3 	stp	x19, x20, [sp, #32]
  40315c:	aa0103f4 	mov	x20, x1
  403160:	aa0403f3 	mov	x19, x4
  403164:	a9035bf5 	stp	x21, x22, [sp, #48]
  403168:	aa0003f5 	mov	x21, x0
  40316c:	aa0203f6 	mov	x22, x2
  403170:	f90023f7 	str	x23, [sp, #64]
  403174:	2a0303f7 	mov	w23, w3
  403178:	b4000086 	cbz	x6, 403188 <__assert_fail_base+0x58>
  40317c:	d2800001 	mov	x1, #0x0                   	// #0
  403180:	52800020 	mov	w0, #0x1                   	// #1
  403184:	d503201f 	nop
  403188:	b0000440 	adrp	x0, 48c000 <_GLOBAL_OFFSET_TABLE_+0xc8>
  40318c:	90000326 	adrp	x6, 467000 <_nl_C_name>
  403190:	b0000288 	adrp	x8, 454000 <free_modules_db+0x50>
  403194:	910cc0c6 	add	x6, x6, #0x330
  403198:	f947a402 	ldr	x2, [x0, #3912]
  40319c:	913fe108 	add	x8, x8, #0xff8
  4031a0:	910173e0 	add	x0, sp, #0x5c
  4031a4:	2a1703e5 	mov	w5, w23
  4031a8:	aa1603e4 	mov	x4, x22
  4031ac:	aa1503e1 	mov	x1, x21
  4031b0:	39400043 	ldrb	w3, [x2]
  4031b4:	a90003f4 	stp	x20, x0, [sp]
  4031b8:	910183e0 	add	x0, sp, #0x60
  4031bc:	7100007f 	cmp	w3, #0x0
  4031c0:	9a861103 	csel	x3, x8, x6, ne  // ne = any
  4031c4:	f100027f 	cmp	x19, #0x0
  4031c8:	9a861266 	csel	x6, x19, x6, ne  // ne = any
  4031cc:	9a861107 	csel	x7, x8, x6, ne  // ne = any
  4031d0:	9400162e 	bl	408a88 <___asprintf>
  4031d4:	37f80520 	tbnz	w0, #31, 403278 <__assert_fail_base+0x148>
  4031d8:	f94033e2 	ldr	x2, [sp, #96]
  4031dc:	b0000341 	adrp	x1, 46c000 <__PRETTY_FUNCTION__.16206+0xc28>
  4031e0:	d2800000 	mov	x0, #0x0                   	// #0
  4031e4:	91188021 	add	x1, x1, #0x620
  4031e8:	94001710 	bl	408e28 <__fxprintf>
  4031ec:	b0000440 	adrp	x0, 48c000 <_GLOBAL_OFFSET_TABLE_+0xc8>
  4031f0:	f942f400 	ldr	x0, [x0, #1512]
  4031f4:	9400183b 	bl	4092e0 <_IO_fflush>
  4031f8:	b0000440 	adrp	x0, 48c000 <_GLOBAL_OFFSET_TABLE_+0xc8>
  4031fc:	b9405fe1 	ldr	w1, [sp, #92]
  403200:	d2800005 	mov	x5, #0x0                   	// #0
  403204:	12800004 	mov	w4, #0xffffffff            	// #-1
  403208:	f947ac00 	ldr	x0, [x0, #3928]
  40320c:	52800443 	mov	w3, #0x22                  	// #34
  403210:	52800062 	mov	w2, #0x3                   	// #3
  403214:	0b000021 	add	w1, w1, w0
  403218:	4b0003e0 	neg	w0, w0
  40321c:	0a000021 	and	w1, w1, w0
  403220:	d2800000 	mov	x0, #0x0                   	// #0
  403224:	b9005fe1 	str	w1, [sp, #92]
  403228:	93407c21 	sxtw	x1, w1
  40322c:	94005fdd 	bl	41b1a0 <__mmap64>
  403230:	aa0003f3 	mov	x19, x0
  403234:	b100041f 	cmn	x0, #0x1
  403238:	540001a0 	b.eq	40326c <__assert_fail_base+0x13c>  // b.none
  40323c:	b9405fe2 	ldr	w2, [sp, #92]
  403240:	f94033e1 	ldr	x1, [sp, #96]
  403244:	b8004402 	str	w2, [x0], #4
  403248:	94004e0e 	bl	416a80 <strcpy>
  40324c:	d0000441 	adrp	x1, 48d000 <_dl_main_map+0xa0>
  403250:	913d4021 	add	x1, x1, #0xf50
  403254:	c85ffc20 	ldaxr	x0, [x1]
  403258:	c8027c33 	stxr	w2, x19, [x1]
  40325c:	35ffffc2 	cbnz	w2, 403254 <__assert_fail_base+0x124>
  403260:	b4000060 	cbz	x0, 40326c <__assert_fail_base+0x13c>
  403264:	b9400001 	ldr	w1, [x0]
  403268:	94005fe6 	bl	41b200 <__munmap>
  40326c:	f94033e0 	ldr	x0, [sp, #96]
  403270:	940048a8 	bl	415510 <__free>
  403274:	97fff433 	bl	400340 <abort>
  403278:	d0000281 	adrp	x1, 455000 <cpu_list+0xb8>
  40327c:	9100c021 	add	x1, x1, #0x30
  403280:	d2800242 	mov	x2, #0x12                  	// #18
  403284:	52800040 	mov	w0, #0x2                   	// #2
  403288:	94005cbc 	bl	41a578 <__libc_write>
  40328c:	97fff42d 	bl	400340 <abort>

0000000000403290 <__assert_fail>:
  403290:	a9bd7bfd 	stp	x29, x30, [sp, #-48]!
  403294:	910003fd 	mov	x29, sp
  403298:	a90153f3 	stp	x19, x20, [sp, #16]
  40329c:	aa0003f3 	mov	x19, x0
  4032a0:	aa0103f4 	mov	x20, x1
  4032a4:	f0000300 	adrp	x0, 466000 <translit_from_idx+0xa00>
  4032a8:	d0000281 	adrp	x1, 455000 <cpu_list+0xb8>
  4032ac:	913fa000 	add	x0, x0, #0xfe8
  4032b0:	91000021 	add	x1, x1, #0x0
  4032b4:	a9025bf5 	stp	x21, x22, [sp, #32]
  4032b8:	aa0303f6 	mov	x22, x3
  4032bc:	2a0203f5 	mov	w21, w2
  4032c0:	528000a2 	mov	w2, #0x5                   	// #5
  4032c4:	94000007 	bl	4032e0 <__dcgettext>
  4032c8:	aa1603e4 	mov	x4, x22
  4032cc:	2a1503e3 	mov	w3, w21
  4032d0:	aa1403e2 	mov	x2, x20
  4032d4:	aa1303e1 	mov	x1, x19
  4032d8:	97ffff96 	bl	403130 <__assert_fail_base>
  4032dc:	d503201f 	nop

00000000004032e0 <__dcgettext>:
  4032e0:	2a0203e5 	mov	w5, w2
  4032e4:	d2800004 	mov	x4, #0x0                   	// #0
  4032e8:	52800003 	mov	w3, #0x0                   	// #0
  4032ec:	d2800002 	mov	x2, #0x0                   	// #0
  4032f0:	1400034e 	b	404028 <__dcigettext>
  4032f4:	d503201f 	nop

00000000004032f8 <plural_eval>:
  4032f8:	a9bd7bfd 	stp	x29, x30, [sp, #-48]!
  4032fc:	910003fd 	mov	x29, sp
  403300:	a90153f3 	stp	x19, x20, [sp, #16]
  403304:	aa0003f3 	mov	x19, x0
  403308:	aa0103f4 	mov	x20, x1
  40330c:	f90013f5 	str	x21, [sp, #32]
  403310:	b9400260 	ldr	w0, [x19]
  403314:	7100081f 	cmp	w0, #0x2
  403318:	54000380 	b.eq	403388 <plural_eval+0x90>  // b.none
  40331c:	540001cc 	b.gt	403354 <plural_eval+0x5c>
  403320:	340006e0 	cbz	w0, 4033fc <plural_eval+0x104>
  403324:	7100041f 	cmp	w0, #0x1
  403328:	54000741 	b.ne	403410 <plural_eval+0x118>  // b.any
  40332c:	f9400660 	ldr	x0, [x19, #8]
  403330:	aa1403e1 	mov	x1, x20
  403334:	97fffff1 	bl	4032f8 <plural_eval>
  403338:	f100001f 	cmp	x0, #0x0
  40333c:	9a9f17f5 	cset	x21, eq  // eq = none
  403340:	aa1503e0 	mov	x0, x21
  403344:	a94153f3 	ldp	x19, x20, [sp, #16]
  403348:	f94013f5 	ldr	x21, [sp, #32]
  40334c:	a8c37bfd 	ldp	x29, x30, [sp], #48
  403350:	d65f03c0 	ret
  403354:	aa1403e1 	mov	x1, x20
  403358:	71000c1f 	cmp	w0, #0x3
  40335c:	540005a1 	b.ne	403410 <plural_eval+0x118>  // b.any
  403360:	f9400660 	ldr	x0, [x19, #8]
  403364:	97ffffe5 	bl	4032f8 <plural_eval>
  403368:	f100001f 	cmp	x0, #0x0
  40336c:	1a9f17e0 	cset	w0, eq  // eq = none
  403370:	11000400 	add	w0, w0, #0x1
  403374:	8b20ce73 	add	x19, x19, w0, sxtw #3
  403378:	f9400673 	ldr	x19, [x19, #8]
  40337c:	b9400260 	ldr	w0, [x19]
  403380:	7100081f 	cmp	w0, #0x2
  403384:	54fffcc1 	b.ne	40331c <plural_eval+0x24>  // b.any
  403388:	f9400660 	ldr	x0, [x19, #8]
  40338c:	aa1403e1 	mov	x1, x20
  403390:	97ffffda 	bl	4032f8 <plural_eval>
  403394:	aa0003f5 	mov	x21, x0
  403398:	b9400661 	ldr	w1, [x19, #4]
  40339c:	71003c3f 	cmp	w1, #0xf
  4033a0:	54000480 	b.eq	403430 <plural_eval+0x138>  // b.none
  4033a4:	7100383f 	cmp	w1, #0xe
  4033a8:	540007a0 	b.eq	40349c <plural_eval+0x1a4>  // b.none
  4033ac:	f9400a60 	ldr	x0, [x19, #16]
  4033b0:	aa1403e1 	mov	x1, x20
  4033b4:	97ffffd1 	bl	4032f8 <plural_eval>
  4033b8:	b9400661 	ldr	w1, [x19, #4]
  4033bc:	aa0003f3 	mov	x19, x0
  4033c0:	7100203f 	cmp	w1, #0x8
  4033c4:	54000900 	b.eq	4034e4 <plural_eval+0x1ec>  // b.none
  4033c8:	54000488 	b.hi	403458 <plural_eval+0x160>  // b.pmore
  4033cc:	7100143f 	cmp	w1, #0x5
  4033d0:	54000820 	b.eq	4034d4 <plural_eval+0x1dc>  // b.none
  4033d4:	54000349 	b.ls	40343c <plural_eval+0x144>  // b.plast
  4033d8:	cb0002a0 	sub	x0, x21, x0
  4033dc:	7100183f 	cmp	w1, #0x6
  4033e0:	8b1302b5 	add	x21, x21, x19
  4033e4:	9a8002b5 	csel	x21, x21, x0, eq  // eq = none
  4033e8:	aa1503e0 	mov	x0, x21
  4033ec:	a94153f3 	ldp	x19, x20, [sp, #16]
  4033f0:	f94013f5 	ldr	x21, [sp, #32]
  4033f4:	a8c37bfd 	ldp	x29, x30, [sp], #48
  4033f8:	d65f03c0 	ret
  4033fc:	b9400660 	ldr	w0, [x19, #4]
  403400:	aa1403f5 	mov	x21, x20
  403404:	34fff9e0 	cbz	w0, 403340 <plural_eval+0x48>
  403408:	7100041f 	cmp	w0, #0x1
  40340c:	540000e0 	b.eq	403428 <plural_eval+0x130>  // b.none
  403410:	d2800015 	mov	x21, #0x0                   	// #0
  403414:	aa1503e0 	mov	x0, x21
  403418:	a94153f3 	ldp	x19, x20, [sp, #16]
  40341c:	f94013f5 	ldr	x21, [sp, #32]
  403420:	a8c37bfd 	ldp	x29, x30, [sp], #48
  403424:	d65f03c0 	ret
  403428:	f9400675 	ldr	x21, [x19, #8]
  40342c:	17ffffc5 	b	403340 <plural_eval+0x48>
  403430:	b4000380 	cbz	x0, 4034a0 <plural_eval+0x1a8>
  403434:	d2800035 	mov	x21, #0x1                   	// #1
  403438:	17ffffc2 	b	403340 <plural_eval+0x48>
  40343c:	71000c3f 	cmp	w1, #0x3
  403440:	54000580 	b.eq	4034f0 <plural_eval+0x1f8>  // b.none
  403444:	7100103f 	cmp	w1, #0x4
  403448:	54fffe41 	b.ne	403410 <plural_eval+0x118>  // b.any
  40344c:	b4000360 	cbz	x0, 4034b8 <plural_eval+0x1c0>
  403450:	9ad30ab5 	udiv	x21, x21, x19
  403454:	17ffffbb 	b	403340 <plural_eval+0x48>
  403458:	71002c3f 	cmp	w1, #0xb
  40345c:	54000360 	b.eq	4034c8 <plural_eval+0x1d0>  // b.none
  403460:	54000109 	b.ls	403480 <plural_eval+0x188>  // b.plast
  403464:	7100303f 	cmp	w1, #0xc
  403468:	54000480 	b.eq	4034f8 <plural_eval+0x200>  // b.none
  40346c:	7100343f 	cmp	w1, #0xd
  403470:	54fffd01 	b.ne	403410 <plural_eval+0x118>  // b.any
  403474:	eb0002bf 	cmp	x21, x0
  403478:	9a9f07f5 	cset	x21, ne  // ne = any
  40347c:	17ffffb1 	b	403340 <plural_eval+0x48>
  403480:	7100243f 	cmp	w1, #0x9
  403484:	54000400 	b.eq	403504 <plural_eval+0x20c>  // b.none
  403488:	7100283f 	cmp	w1, #0xa
  40348c:	54fffc21 	b.ne	403410 <plural_eval+0x118>  // b.any
  403490:	eb0002bf 	cmp	x21, x0
  403494:	9a9f87f5 	cset	x21, ls  // ls = plast
  403498:	17ffffaa 	b	403340 <plural_eval+0x48>
  40349c:	b4fff520 	cbz	x0, 403340 <plural_eval+0x48>
  4034a0:	f9400a60 	ldr	x0, [x19, #16]
  4034a4:	aa1403e1 	mov	x1, x20
  4034a8:	97ffff94 	bl	4032f8 <plural_eval>
  4034ac:	f100001f 	cmp	x0, #0x0
  4034b0:	9a9f07f5 	cset	x21, ne  // ne = any
  4034b4:	17ffffa3 	b	403340 <plural_eval+0x48>
  4034b8:	52800100 	mov	w0, #0x8                   	// #8
  4034bc:	94001063 	bl	407648 <raise>
  4034c0:	9ad30ab5 	udiv	x21, x21, x19
  4034c4:	17ffff9f 	b	403340 <plural_eval+0x48>
  4034c8:	eb0002bf 	cmp	x21, x0
  4034cc:	9a9f37f5 	cset	x21, cs  // cs = hs, nlast
  4034d0:	17ffff9c 	b	403340 <plural_eval+0x48>
  4034d4:	b40001e0 	cbz	x0, 403510 <plural_eval+0x218>
  4034d8:	9ad30aa0 	udiv	x0, x21, x19
  4034dc:	9b13d415 	msub	x21, x0, x19, x21
  4034e0:	17ffff98 	b	403340 <plural_eval+0x48>
  4034e4:	eb0002bf 	cmp	x21, x0
  4034e8:	9a9f27f5 	cset	x21, cc  // cc = lo, ul, last
  4034ec:	17ffff95 	b	403340 <plural_eval+0x48>
  4034f0:	9b007eb5 	mul	x21, x21, x0
  4034f4:	17ffff93 	b	403340 <plural_eval+0x48>
  4034f8:	eb0002bf 	cmp	x21, x0
  4034fc:	9a9f17f5 	cset	x21, eq  // eq = none
  403500:	17ffff90 	b	403340 <plural_eval+0x48>
  403504:	eb0002bf 	cmp	x21, x0
  403508:	9a9f97f5 	cset	x21, hi  // hi = pmore
  40350c:	17ffff8d 	b	403340 <plural_eval+0x48>
  403510:	52800100 	mov	w0, #0x8                   	// #8
  403514:	9400104d 	bl	407648 <raise>
  403518:	17fffff0 	b	4034d8 <plural_eval+0x1e0>
  40351c:	d503201f 	nop

0000000000403520 <transcmp>:
  403520:	a9be7bfd 	stp	x29, x30, [sp, #-32]!
  403524:	910003fd 	mov	x29, sp
  403528:	a90153f3 	stp	x19, x20, [sp, #16]
  40352c:	aa0003f4 	mov	x20, x0
  403530:	aa0103f3 	mov	x19, x1
  403534:	f9401000 	ldr	x0, [x0, #32]
  403538:	b40002e0 	cbz	x0, 403594 <transcmp+0x74>
  40353c:	9100e280 	add	x0, x20, #0x38
  403540:	f9401261 	ldr	x1, [x19, #32]
  403544:	b4000241 	cbz	x1, 40358c <transcmp+0x6c>
  403548:	9100e261 	add	x1, x19, #0x38
  40354c:	94004d0d 	bl	416980 <strcmp>
  403550:	35000180 	cbnz	w0, 403580 <transcmp+0x60>
  403554:	f9400261 	ldr	x1, [x19]
  403558:	f9400280 	ldr	x0, [x20]
  40355c:	94004d09 	bl	416980 <strcmp>
  403560:	35000100 	cbnz	w0, 403580 <transcmp+0x60>
  403564:	f9400a61 	ldr	x1, [x19, #16]
  403568:	f9400a80 	ldr	x0, [x20, #16]
  40356c:	94004d05 	bl	416980 <strcmp>
  403570:	35000080 	cbnz	w0, 403580 <transcmp+0x60>
  403574:	b9400a61 	ldr	w1, [x19, #8]
  403578:	b9400a80 	ldr	w0, [x20, #8]
  40357c:	4b010000 	sub	w0, w0, w1
  403580:	a94153f3 	ldp	x19, x20, [sp, #16]
  403584:	a8c27bfd 	ldp	x29, x30, [sp], #32
  403588:	d65f03c0 	ret
  40358c:	f9401e61 	ldr	x1, [x19, #56]
  403590:	17ffffef 	b	40354c <transcmp+0x2c>
  403594:	f9401e80 	ldr	x0, [x20, #56]
  403598:	17ffffea 	b	403540 <transcmp+0x20>
  40359c:	d503201f 	nop

00000000004035a0 <plural_lookup.isra.0>:
  4035a0:	a9bd7bfd 	stp	x29, x30, [sp, #-48]!
  4035a4:	910003fd 	mov	x29, sp
  4035a8:	a90153f3 	stp	x19, x20, [sp, #16]
  4035ac:	aa0003f3 	mov	x19, x0
  4035b0:	aa0303f4 	mov	x20, x3
  4035b4:	f9405c00 	ldr	x0, [x0, #184]
  4035b8:	f90013f5 	str	x21, [sp, #32]
  4035bc:	aa0203f5 	mov	x21, x2
  4035c0:	97ffff4e 	bl	4032f8 <plural_eval>
  4035c4:	f9406261 	ldr	x1, [x19, #192]
  4035c8:	eb01001f 	cmp	x0, x1
  4035cc:	540001a2 	b.cs	403600 <plural_lookup.isra.0+0x60>  // b.hs, b.nlast
  4035d0:	aa0003f3 	mov	x19, x0
  4035d4:	8b1402b4 	add	x20, x21, x20
  4035d8:	aa1503e0 	mov	x0, x21
  4035dc:	d503201f 	nop
  4035e0:	d1000673 	sub	x19, x19, #0x1
  4035e4:	52800001 	mov	w1, #0x0                   	// #0
  4035e8:	b100067f 	cmn	x19, #0x1
  4035ec:	54000140 	b.eq	403614 <plural_lookup.isra.0+0x74>  // b.none
  4035f0:	940051e4 	bl	417d80 <__rawmemchr>
  4035f4:	91000400 	add	x0, x0, #0x1
  4035f8:	eb14001f 	cmp	x0, x20
  4035fc:	54ffff23 	b.cc	4035e0 <plural_lookup.isra.0+0x40>  // b.lo, b.ul, b.last
  403600:	aa1503e0 	mov	x0, x21
  403604:	a94153f3 	ldp	x19, x20, [sp, #16]
  403608:	f94013f5 	ldr	x21, [sp, #32]
  40360c:	a8c37bfd 	ldp	x29, x30, [sp], #48
  403610:	d65f03c0 	ret
  403614:	aa0003f5 	mov	x21, x0
  403618:	17fffffa 	b	403600 <plural_lookup.isra.0+0x60>
  40361c:	d503201f 	nop

0000000000403620 <_nl_find_msg>:
  403620:	a9b47bfd 	stp	x29, x30, [sp, #-192]!
  403624:	910003fd 	mov	x29, sp
  403628:	a9025bf5 	stp	x21, x22, [sp, #32]
  40362c:	90000455 	adrp	x21, 48b000 <__FRAME_END__+0xf85c>
  403630:	912682a5 	add	x5, x21, #0x9a0
  403634:	f94000a7 	ldr	x7, [x5]
  403638:	f9005fa7 	str	x7, [x29, #184]
  40363c:	d2800007 	mov	x7, #0x0                   	// #0
  403640:	a90153f3 	stp	x19, x20, [sp, #16]
  403644:	a90363f7 	stp	x23, x24, [sp, #48]
  403648:	aa0203f8 	mov	x24, x2
  40364c:	a9046bf9 	stp	x25, x26, [sp, #64]
  403650:	a90573fb 	stp	x27, x28, [sp, #80]
  403654:	d10043ff 	sub	sp, sp, #0x10
  403658:	a90693a1 	stp	x1, x4, [x29, #104]
  40365c:	b9007ba3 	str	w3, [x29, #120]
  403660:	a90803a5 	stp	x5, x0, [x29, #128]
  403664:	b9400805 	ldr	w5, [x0, #8]
  403668:	710000bf 	cmp	w5, #0x0
  40366c:	540010cd 	b.le	403884 <_nl_find_msg+0x264>
  403670:	f94047a0 	ldr	x0, [x29, #136]
  403674:	f9400817 	ldr	x23, [x0, #16]
  403678:	b4000d77 	cbz	x23, 403824 <_nl_find_msg+0x204>
  40367c:	f94032e0 	ldr	x0, [x23, #96]
  403680:	b9402af3 	ldr	w19, [x23, #40]
  403684:	b40009e0 	cbz	x0, 4037c0 <_nl_find_msg+0x1a0>
  403688:	aa1803e0 	mov	x0, x24
  40368c:	97fff31d 	bl	400300 <.plt+0x60>
  403690:	aa0003fa 	mov	x26, x0
  403694:	aa1803e0 	mov	x0, x24
  403698:	94000fa8 	bl	407538 <__hash_string>
  40369c:	b9406af4 	ldr	w20, [x23, #104]
  4036a0:	b9405ae3 	ldr	w3, [x23, #88]
  4036a4:	92407f42 	and	x2, x26, #0xffffffff
  4036a8:	f9004ba2 	str	x2, [x29, #144]
  4036ac:	51000861 	sub	w1, w3, #0x2
  4036b0:	b9009bba 	str	w26, [x29, #152]
  4036b4:	f94032f5 	ldr	x21, [x23, #96]
  4036b8:	1ac10804 	udiv	w4, w0, w1
  4036bc:	1ac30802 	udiv	w2, w0, w3
  4036c0:	1b018084 	msub	w4, w4, w1, w0
  4036c4:	11000499 	add	w25, w4, #0x1
  4036c8:	1b03805a 	msub	w26, w2, w3, w0
  4036cc:	4b19007b 	sub	w27, w3, w25
  4036d0:	4b030336 	sub	w22, w25, w3
  4036d4:	14000016 	b	40372c <_nl_find_msg+0x10c>
  4036d8:	b9401aea 	ldr	w10, [x23, #24]
  4036dc:	d37d7f80 	ubfiz	x0, x28, #3, #32
  4036e0:	f9401ae1 	ldr	x1, [x23, #48]
  4036e4:	8b00002b 	add	x11, x1, x0
  4036e8:	b8606820 	ldr	w0, [x1, x0]
  4036ec:	34000c0a 	cbz	w10, 40386c <_nl_find_msg+0x24c>
  4036f0:	b9409ba1 	ldr	w1, [x29, #152]
  4036f4:	5ac00800 	rev	w0, w0
  4036f8:	6b00003f 	cmp	w1, w0
  4036fc:	54000108 	b.hi	40371c <_nl_find_msg+0xfc>  // b.pmore
  403700:	b9400560 	ldr	w0, [x11, #4]
  403704:	f94002e1 	ldr	x1, [x23]
  403708:	5ac00800 	rev	w0, w0
  40370c:	8b000021 	add	x1, x1, x0
  403710:	aa1803e0 	mov	x0, x24
  403714:	94004c9b 	bl	416980 <strcmp>
  403718:	34000320 	cbz	w0, 40377c <_nl_find_msg+0x15c>
  40371c:	6b1a037f 	cmp	w27, w26
  403720:	0b160340 	add	w0, w26, w22
  403724:	0b190342 	add	w2, w26, w25
  403728:	1a80805a 	csel	w26, w2, w0, hi  // hi = pmore
  40372c:	b87a5aa1 	ldr	w1, [x21, w26, uxtw #2]
  403730:	7100029f 	cmp	w20, #0x0
  403734:	5ac00820 	rev	w0, w1
  403738:	1a811001 	csel	w1, w0, w1, ne  // ne = any
  40373c:	34000741 	cbz	w1, 403824 <_nl_find_msg+0x204>
  403740:	5100043c 	sub	w28, w1, #0x1
  403744:	6b1c027f 	cmp	w19, w28
  403748:	54fffc88 	b.hi	4036d8 <_nl_find_msg+0xb8>  // b.pmore
  40374c:	4b130380 	sub	w0, w28, w19
  403750:	f94026e1 	ldr	x1, [x23, #72]
  403754:	d37cec00 	lsl	x0, x0, #4
  403758:	8b000026 	add	x6, x1, x0
  40375c:	f8606820 	ldr	x0, [x1, x0]
  403760:	f9404ba1 	ldr	x1, [x29, #144]
  403764:	eb01001f 	cmp	x0, x1
  403768:	54fffda9 	b.ls	40371c <_nl_find_msg+0xfc>  // b.plast
  40376c:	f94004c1 	ldr	x1, [x6, #8]
  403770:	aa1803e0 	mov	x0, x24
  403774:	94004c83 	bl	416980 <strcmp>
  403778:	35fffd20 	cbnz	w0, 40371c <_nl_find_msg+0xfc>
  40377c:	aa1c03f6 	mov	x22, x28
  403780:	2a1303fa 	mov	w26, w19
  403784:	eb1a02df 	cmp	x22, x26
  403788:	54000823 	b.cc	40388c <_nl_find_msg+0x26c>  // b.lo, b.ul, b.last
  40378c:	cb1a02da 	sub	x26, x22, x26
  403790:	f9402ae0 	ldr	x0, [x23, #80]
  403794:	d37cef5a 	lsl	x26, x26, #4
  403798:	8b1a0001 	add	x1, x0, x26
  40379c:	f87a6800 	ldr	x0, [x0, x26]
  4037a0:	f9004fa0 	str	x0, [x29, #152]
  4037a4:	f9400438 	ldr	x24, [x1, #8]
  4037a8:	b9407ba0 	ldr	w0, [x29, #120]
  4037ac:	350008c0 	cbnz	w0, 4038c4 <_nl_find_msg+0x2a4>
  4037b0:	f9403ba0 	ldr	x0, [x29, #112]
  4037b4:	f9404fa1 	ldr	x1, [x29, #152]
  4037b8:	f9000001 	str	x1, [x0]
  4037bc:	1400001b 	b	403828 <_nl_find_msg+0x208>
  4037c0:	2a1303fa 	mov	w26, w19
  4037c4:	d280001b 	mov	x27, #0x0                   	// #0
  4037c8:	aa1a03fc 	mov	x28, x26
  4037cc:	d503201f 	nop
  4037d0:	eb1b039f 	cmp	x28, x27
  4037d4:	54000289 	b.ls	403824 <_nl_find_msg+0x204>  // b.plast
  4037d8:	8b1b0386 	add	x6, x28, x27
  4037dc:	b9401ae0 	ldr	w0, [x23, #24]
  4037e0:	f9401ae2 	ldr	x2, [x23, #48]
  4037e4:	d341fcd6 	lsr	x22, x6, #1
  4037e8:	7100001f 	cmp	w0, #0x0
  4037ec:	aa1803e0 	mov	x0, x24
  4037f0:	f94002e1 	ldr	x1, [x23]
  4037f4:	8b160c42 	add	x2, x2, x22, lsl #3
  4037f8:	b9400442 	ldr	w2, [x2, #4]
  4037fc:	5ac00843 	rev	w3, w2
  403800:	1a830042 	csel	w2, w2, w3, eq  // eq = none
  403804:	8b020021 	add	x1, x1, x2
  403808:	94004c5e 	bl	416980 <strcmp>
  40380c:	7100001f 	cmp	w0, #0x0
  403810:	540002ab 	b.lt	403864 <_nl_find_msg+0x244>  // b.tstop
  403814:	54fffb80 	b.eq	403784 <_nl_find_msg+0x164>  // b.none
  403818:	910006db 	add	x27, x22, #0x1
  40381c:	eb1b039f 	cmp	x28, x27
  403820:	54fffdc8 	b.hi	4037d8 <_nl_find_msg+0x1b8>  // b.pmore
  403824:	d2800018 	mov	x24, #0x0                   	// #0
  403828:	f94043a0 	ldr	x0, [x29, #128]
  40382c:	f9405fa1 	ldr	x1, [x29, #184]
  403830:	f9400002 	ldr	x2, [x0]
  403834:	eb020021 	subs	x1, x1, x2
  403838:	d2800002 	mov	x2, #0x0                   	// #0
  40383c:	54003e21 	b.ne	404000 <_nl_find_msg+0x9e0>  // b.any
  403840:	910003bf 	mov	sp, x29
  403844:	aa1803e0 	mov	x0, x24
  403848:	a94153f3 	ldp	x19, x20, [sp, #16]
  40384c:	a9425bf5 	ldp	x21, x22, [sp, #32]
  403850:	a94363f7 	ldp	x23, x24, [sp, #48]
  403854:	a9446bf9 	ldp	x25, x26, [sp, #64]
  403858:	a94573fb 	ldp	x27, x28, [sp, #80]
  40385c:	a8cc7bfd 	ldp	x29, x30, [sp], #192
  403860:	d65f03c0 	ret
  403864:	aa1603fc 	mov	x28, x22
  403868:	17ffffda 	b	4037d0 <_nl_find_msg+0x1b0>
  40386c:	b9409ba1 	ldr	w1, [x29, #152]
  403870:	6b01001f 	cmp	w0, w1
  403874:	54fff543 	b.cc	40371c <_nl_find_msg+0xfc>  // b.lo, b.ul, b.last
  403878:	b9400560 	ldr	w0, [x11, #4]
  40387c:	f94002e1 	ldr	x1, [x23]
  403880:	17ffffa3 	b	40370c <_nl_find_msg+0xec>
  403884:	9400045f 	bl	404a00 <_nl_load_domain>
  403888:	17ffff7a 	b	403670 <_nl_find_msg+0x50>
  40388c:	f9401ee1 	ldr	x1, [x23, #56]
  403890:	d37df2c0 	lsl	x0, x22, #3
  403894:	b9401ae2 	ldr	w2, [x23, #24]
  403898:	8b000023 	add	x3, x1, x0
  40389c:	b860683b 	ldr	w27, [x1, x0]
  4038a0:	f94002f8 	ldr	x24, [x23]
  4038a4:	b9400460 	ldr	w0, [x3, #4]
  4038a8:	34000782 	cbz	w2, 403998 <_nl_find_msg+0x378>
  4038ac:	5ac00800 	rev	w0, w0
  4038b0:	5ac00b7b 	rev	w27, w27
  4038b4:	8b000318 	add	x24, x24, x0
  4038b8:	11000760 	add	w0, w27, #0x1
  4038bc:	f9004fa0 	str	x0, [x29, #152]
  4038c0:	17ffffba 	b	4037a8 <_nl_find_msg+0x188>
  4038c4:	f94037a0 	ldr	x0, [x29, #104]
  4038c8:	b40004e0 	cbz	x0, 403964 <_nl_find_msg+0x344>
  4038cc:	f9400819 	ldr	x25, [x0, #16]
  4038d0:	b40004b9 	cbz	x25, 403964 <_nl_find_msg+0x344>
  4038d4:	d0000280 	adrp	x0, 455000 <cpu_list+0xb8>
  4038d8:	f9406000 	ldr	x0, [x0, #192]
  4038dc:	b4000060 	cbz	x0, 4038e8 <_nl_find_msg+0x2c8>
  4038e0:	910202e0 	add	x0, x23, #0x80
  4038e4:	d503201f 	nop
  4038e8:	f9403efb 	ldr	x27, [x23, #120]
  4038ec:	8b1b077c 	add	x28, x27, x27, lsl #1
  4038f0:	d37df39c 	lsl	x28, x28, #3
  4038f4:	d100639c 	sub	x28, x28, #0x18
  4038f8:	b400059b 	cbz	x27, 4039a8 <_nl_find_msg+0x388>
  4038fc:	f9403ae0 	ldr	x0, [x23, #112]
  403900:	d100077b 	sub	x27, x27, #0x1
  403904:	aa1903e1 	mov	x1, x25
  403908:	8b1c001a 	add	x26, x0, x28
  40390c:	f87c6800 	ldr	x0, [x0, x28]
  403910:	d100639c 	sub	x28, x28, #0x18
  403914:	94004c1b 	bl	416980 <strcmp>
  403918:	35ffff00 	cbnz	w0, 4038f8 <_nl_find_msg+0x2d8>
  40391c:	d0000280 	adrp	x0, 455000 <cpu_list+0xb8>
  403920:	f9406800 	ldr	x0, [x0, #208]
  403924:	b4000060 	cbz	x0, 403930 <_nl_find_msg+0x310>
  403928:	910202e0 	add	x0, x23, #0x80
  40392c:	d503201f 	nop
  403930:	f9400740 	ldr	x0, [x26, #8]
  403934:	b100041f 	cmn	x0, #0x1
  403938:	54fff3c0 	b.eq	4037b0 <_nl_find_msg+0x190>  // b.none
  40393c:	f9400b40 	ldr	x0, [x26, #16]
  403940:	b4002640 	cbz	x0, 403e08 <_nl_find_msg+0x7e8>
  403944:	b100041f 	cmn	x0, #0x1
  403948:	540025c0 	b.eq	403e00 <_nl_find_msg+0x7e0>  // b.none
  40394c:	f8767800 	ldr	x0, [x0, x22, lsl #3]
  403950:	b4000960 	cbz	x0, 403a7c <_nl_find_msg+0x45c>
  403954:	aa0003f8 	mov	x24, x0
  403958:	f8408700 	ldr	x0, [x24], #8
  40395c:	f9004fa0 	str	x0, [x29, #152]
  403960:	17ffff94 	b	4037b0 <_nl_find_msg+0x190>
  403964:	d000045c 	adrp	x28, 48d000 <_dl_main_map+0xa0>
  403968:	9138439c 	add	x28, x28, #0xe10
  40396c:	b9401380 	ldr	w0, [x28, #16]
  403970:	34000580 	cbz	w0, 403a20 <_nl_find_msg+0x400>
  403974:	f9400f99 	ldr	x25, [x28, #24]
  403978:	b5fffaf9 	cbnz	x25, 4038d4 <_nl_find_msg+0x2b4>
  40397c:	90000440 	adrp	x0, 48b000 <__FRAME_END__+0xf85c>
  403980:	f947c000 	ldr	x0, [x0, #3968]
  403984:	d53bd041 	mrs	x1, tpidr_el0
  403988:	f8606820 	ldr	x0, [x1, x0]
  40398c:	f9400000 	ldr	x0, [x0]
  403990:	f9405819 	ldr	x25, [x0, #176]
  403994:	17ffffd0 	b	4038d4 <_nl_find_msg+0x2b4>
  403998:	8b204318 	add	x24, x24, w0, uxtw
  40399c:	11000760 	add	w0, w27, #0x1
  4039a0:	f9004fa0 	str	x0, [x29, #152]
  4039a4:	17ffff81 	b	4037a8 <_nl_find_msg+0x188>
  4039a8:	d0000280 	adrp	x0, 455000 <cpu_list+0xb8>
  4039ac:	f9406800 	ldr	x0, [x0, #208]
  4039b0:	aa0003fb 	mov	x27, x0
  4039b4:	b4000060 	cbz	x0, 4039c0 <_nl_find_msg+0x3a0>
  4039b8:	910202e0 	add	x0, x23, #0x80
  4039bc:	d503201f 	nop
  4039c0:	d0000280 	adrp	x0, 455000 <cpu_list+0xb8>
  4039c4:	f9406400 	ldr	x0, [x0, #200]
  4039c8:	b4000060 	cbz	x0, 4039d4 <_nl_find_msg+0x3b4>
  4039cc:	910202e0 	add	x0, x23, #0x80
  4039d0:	d503201f 	nop
  4039d4:	a94772e1 	ldp	x1, x28, [x23, #112]
  4039d8:	8b1c0780 	add	x0, x28, x28, lsl #1
  4039dc:	aa0103f5 	mov	x21, x1
  4039e0:	d37df014 	lsl	x20, x0, #3
  4039e4:	d1006282 	sub	x2, x20, #0x18
  4039e8:	8b020022 	add	x2, x1, x2
  4039ec:	d503201f 	nop
  4039f0:	b4000c1c 	cbz	x28, 403b70 <_nl_find_msg+0x550>
  4039f4:	aa0203fa 	mov	x26, x2
  4039f8:	aa1903e1 	mov	x1, x25
  4039fc:	f85e8440 	ldr	x0, [x2], #-24
  403a00:	f9003fa2 	str	x2, [x29, #120]
  403a04:	f9004ba2 	str	x2, [x29, #144]
  403a08:	d100079c 	sub	x28, x28, #0x1
  403a0c:	94004bdd 	bl	416980 <strcmp>
  403a10:	f9404ba2 	ldr	x2, [x29, #144]
  403a14:	35fffee0 	cbnz	w0, 4039f0 <_nl_find_msg+0x3d0>
  403a18:	b5fff89b 	cbnz	x27, 403928 <_nl_find_msg+0x308>
  403a1c:	17ffffc5 	b	403930 <_nl_find_msg+0x310>
  403a20:	d0000280 	adrp	x0, 455000 <cpu_list+0xb8>
  403a24:	91014000 	add	x0, x0, #0x50
  403a28:	9400110e 	bl	407e60 <getenv>
  403a2c:	aa0003fa 	mov	x26, x0
  403a30:	b4000060 	cbz	x0, 403a3c <_nl_find_msg+0x41c>
  403a34:	39400001 	ldrb	w1, [x0]
  403a38:	350000c1 	cbnz	w1, 403a50 <_nl_find_msg+0x430>
  403a3c:	f9400f99 	ldr	x25, [x28, #24]
  403a40:	52800020 	mov	w0, #0x1                   	// #1
  403a44:	b9001380 	str	w0, [x28, #16]
  403a48:	b5fff479 	cbnz	x25, 4038d4 <_nl_find_msg+0x2b4>
  403a4c:	17ffffcc 	b	40397c <_nl_find_msg+0x35c>
  403a50:	97fff22c 	bl	400300 <.plt+0x60>
  403a54:	9100041b 	add	x27, x0, #0x1
  403a58:	aa1b03e0 	mov	x0, x27
  403a5c:	94004535 	bl	414f30 <__libc_malloc>
  403a60:	aa0003f9 	mov	x25, x0
  403a64:	b4000080 	cbz	x0, 403a74 <_nl_find_msg+0x454>
  403a68:	aa1b03e2 	mov	x2, x27
  403a6c:	aa1a03e1 	mov	x1, x26
  403a70:	97fff210 	bl	4002b0 <.plt+0x10>
  403a74:	f9000f99 	str	x25, [x28, #24]
  403a78:	17fffff2 	b	403a40 <_nl_find_msg+0x420>
  403a7c:	d000045c 	adrp	x28, 48d000 <_dl_main_map+0xa0>
  403a80:	9138439c 	add	x28, x28, #0xe10
  403a84:	91008380 	add	x0, x28, #0x20
  403a88:	52800021 	mov	w1, #0x1                   	// #1
  403a8c:	885ffc02 	ldaxr	w2, [x0]
  403a90:	35000062 	cbnz	w2, 403a9c <_nl_find_msg+0x47c>
  403a94:	88037c01 	stxr	w3, w1, [x0]
  403a98:	35ffffa3 	cbnz	w3, 403a8c <_nl_find_msg+0x46c>
  403a9c:	7100005f 	cmp	w2, #0x0
  403aa0:	540024a1 	b.ne	403f34 <_nl_find_msg+0x914>  // b.any
  403aa4:	a9428780 	ldp	x0, x1, [x28, #40]
  403aa8:	52800017 	mov	w23, #0x0                   	// #0
  403aac:	d281fe14 	mov	x20, #0xff0                 	// #4080
  403ab0:	91002000 	add	x0, x0, #0x8
  403ab4:	a90a03b8 	stp	x24, x0, [x29, #160]
  403ab8:	f1001c3f 	cmp	x1, #0x7
  403abc:	54000209 	b.ls	403afc <_nl_find_msg+0x4dc>  // b.plast
  403ac0:	d1002024 	sub	x4, x1, #0x8
  403ac4:	9102c3a5 	add	x5, x29, #0xb0
  403ac8:	a9498ba1 	ldp	x1, x2, [x29, #152]
  403acc:	9102a3a3 	add	x3, x29, #0xa8
  403ad0:	f9400740 	ldr	x0, [x26, #8]
  403ad4:	f94057a7 	ldr	x7, [x29, #168]
  403ad8:	8b010042 	add	x2, x2, x1
  403adc:	910283a1 	add	x1, x29, #0xa0
  403ae0:	8b0400e4 	add	x4, x7, x4
  403ae4:	940069ff 	bl	41e2e0 <__gconv>
  403ae8:	721d781f 	tst	w0, #0xfffffffb
  403aec:	54001e60 	b.eq	403eb8 <_nl_find_msg+0x898>  // b.none
  403af0:	7100141f 	cmp	w0, #0x5
  403af4:	54001d21 	b.ne	403e98 <_nl_find_msg+0x878>  // b.any
  403af8:	f90053b8 	str	x24, [x29, #160]
  403afc:	34000277 	cbz	w23, 403b48 <_nl_find_msg+0x528>
  403b00:	110006f7 	add	w23, w23, #0x1
  403b04:	f9400799 	ldr	x25, [x28, #8]
  403b08:	53185ee1 	lsl	w1, w23, #8
  403b0c:	4b170021 	sub	w1, w1, w23
  403b10:	aa1903e0 	mov	x0, x25
  403b14:	531c6c21 	lsl	w1, w1, #4
  403b18:	93407c33 	sxtw	x19, w1
  403b1c:	f9001b93 	str	x19, [x28, #48]
  403b20:	aa1303e1 	mov	x1, x19
  403b24:	94004707 	bl	415740 <__libc_realloc>
  403b28:	b4001480 	cbz	x0, 403db8 <_nl_find_msg+0x798>
  403b2c:	d1002261 	sub	x1, x19, #0x8
  403b30:	f9000780 	str	x0, [x28, #8]
  403b34:	91002002 	add	x2, x0, #0x8
  403b38:	91004000 	add	x0, x0, #0x10
  403b3c:	a9028782 	stp	x2, x1, [x28, #40]
  403b40:	f90057a0 	str	x0, [x29, #168]
  403b44:	17ffffdd 	b	403ab8 <_nl_find_msg+0x498>
  403b48:	d281fe00 	mov	x0, #0xff0                 	// #4080
  403b4c:	f9001b94 	str	x20, [x28, #48]
  403b50:	940044f8 	bl	414f30 <__libc_malloc>
  403b54:	b40013a0 	cbz	x0, 403dc8 <_nl_find_msg+0x7a8>
  403b58:	f9400782 	ldr	x2, [x28, #8]
  403b5c:	d281fd01 	mov	x1, #0xfe8                 	// #4072
  403b60:	52800037 	mov	w23, #0x1                   	// #1
  403b64:	f9000002 	str	x2, [x0]
  403b68:	f9000780 	str	x0, [x28, #8]
  403b6c:	17fffff2 	b	403b34 <_nl_find_msg+0x514>
  403b70:	91006281 	add	x1, x20, #0x18
  403b74:	aa1503e0 	mov	x0, x21
  403b78:	b40017f5 	cbz	x21, 403e74 <_nl_find_msg+0x854>
  403b7c:	940046f1 	bl	415740 <__libc_realloc>
  403b80:	aa0003e1 	mov	x1, x0
  403b84:	b4001801 	cbz	x1, 403e84 <_nl_find_msg+0x864>
  403b88:	f9003ae1 	str	x1, [x23, #112]
  403b8c:	aa1903e0 	mov	x0, x25
  403b90:	f9004ba1 	str	x1, [x29, #144]
  403b94:	94004c75 	bl	416d68 <__strdup>
  403b98:	aa0003f9 	mov	x25, x0
  403b9c:	b4001740 	cbz	x0, 403e84 <_nl_find_msg+0x864>
  403ba0:	a94887a0 	ldp	x0, x1, [x29, #136]
  403ba4:	92800003 	mov	x3, #0xffffffffffffffff    	// #-1
  403ba8:	9102c3a4 	add	x4, x29, #0xb0
  403bac:	90000322 	adrp	x2, 467000 <_nl_C_name>
  403bb0:	910cc042 	add	x2, x2, #0x330
  403bb4:	8b14003a 	add	x26, x1, x20
  403bb8:	f8346839 	str	x25, [x1, x20]
  403bbc:	f94037a1 	ldr	x1, [x29, #104]
  403bc0:	f9000743 	str	x3, [x26, #8]
  403bc4:	52800003 	mov	w3, #0x0                   	// #0
  403bc8:	97fffe96 	bl	403620 <_nl_find_msg>
  403bcc:	aa0003e1 	mov	x1, x0
  403bd0:	b100041f 	cmn	x0, #0x1
  403bd4:	54001d80 	b.eq	403f84 <_nl_find_msg+0x964>  // b.none
  403bd8:	b4000e40 	cbz	x0, 403da0 <_nl_find_msg+0x780>
  403bdc:	d0000281 	adrp	x1, 455000 <cpu_list+0xb8>
  403be0:	91018021 	add	x1, x1, #0x60
  403be4:	94004e21 	bl	417468 <strstr>
  403be8:	b4000dc0 	cbz	x0, 403da0 <_nl_find_msg+0x780>
  403bec:	91002015 	add	x21, x0, #0x8
  403bf0:	d0000281 	adrp	x1, 455000 <cpu_list+0xb8>
  403bf4:	aa1503e0 	mov	x0, x21
  403bf8:	9101c021 	add	x1, x1, #0x70
  403bfc:	94004c03 	bl	416c08 <strcspn>
  403c00:	aa0003e2 	mov	x2, x0
  403c04:	91004000 	add	x0, x0, #0x10
  403c08:	9270bc01 	and	x1, x0, #0xffffffffffff0000
  403c0c:	927cec00 	and	x0, x0, #0xfffffffffffffff0
  403c10:	cb2163e1 	sub	x1, sp, x1
  403c14:	eb2163ff 	cmp	sp, x1
  403c18:	540000a0 	b.eq	403c2c <_nl_find_msg+0x60c>  // b.none
  403c1c:	d14043ff 	sub	sp, sp, #0x10, lsl #12
  403c20:	eb2163ff 	cmp	sp, x1
  403c24:	f90203ff 	str	xzr, [sp, #1024]
  403c28:	54ffffa1 	b.ne	403c1c <_nl_find_msg+0x5fc>  // b.any
  403c2c:	92403c00 	and	x0, x0, #0xffff
  403c30:	cb2063ff 	sub	sp, sp, x0
  403c34:	f110001f 	cmp	x0, #0x400
  403c38:	f90003ff 	str	xzr, [sp]
  403c3c:	54000043 	b.cc	403c44 <_nl_find_msg+0x624>  // b.lo, b.ul, b.last
  403c40:	f90203ff 	str	xzr, [sp, #1024]
  403c44:	910043f4 	add	x20, sp, #0x10
  403c48:	aa1503e1 	mov	x1, x21
  403c4c:	aa1403e0 	mov	x0, x20
  403c50:	94004f82 	bl	417a58 <__mempcpy>
  403c54:	39400322 	ldrb	w2, [x25]
  403c58:	3900001f 	strb	wzr, [x0]
  403c5c:	34001a62 	cbz	w2, 403fa8 <_nl_find_msg+0x988>
  403c60:	aa1903e0 	mov	x0, x25
  403c64:	2a0203e1 	mov	w1, w2
  403c68:	d2800003 	mov	x3, #0x0                   	// #0
  403c6c:	7100bc3f 	cmp	w1, #0x2f
  403c70:	38401c01 	ldrb	w1, [x0, #1]!
  403c74:	9a831463 	cinc	x3, x3, eq  // eq = none
  403c78:	35ffffa1 	cbnz	w1, 403c6c <_nl_find_msg+0x64c>
  403c7c:	cb190000 	sub	x0, x0, x25
  403c80:	91006800 	add	x0, x0, #0x1a
  403c84:	9270bc01 	and	x1, x0, #0xffffffffffff0000
  403c88:	927cec00 	and	x0, x0, #0xfffffffffffffff0
  403c8c:	cb2163e1 	sub	x1, sp, x1
  403c90:	eb2163ff 	cmp	sp, x1
  403c94:	540000a0 	b.eq	403ca8 <_nl_find_msg+0x688>  // b.none
  403c98:	d14043ff 	sub	sp, sp, #0x10, lsl #12
  403c9c:	eb2163ff 	cmp	sp, x1
  403ca0:	f90203ff 	str	xzr, [sp, #1024]
  403ca4:	54ffffa1 	b.ne	403c98 <_nl_find_msg+0x678>  // b.any
  403ca8:	92403c00 	and	x0, x0, #0xffff
  403cac:	cb2063ff 	sub	sp, sp, x0
  403cb0:	f110001f 	cmp	x0, #0x400
  403cb4:	f90003ff 	str	xzr, [sp]
  403cb8:	54000043 	b.cc	403cc0 <_nl_find_msg+0x6a0>  // b.lo, b.ul, b.last
  403cbc:	f90203ff 	str	xzr, [sp, #1024]
  403cc0:	90000328 	adrp	x8, 467000 <_nl_C_name>
  403cc4:	910043e0 	add	x0, sp, #0x10
  403cc8:	aa0003e1 	mov	x1, x0
  403ccc:	aa1903e4 	mov	x4, x25
  403cd0:	f9404109 	ldr	x9, [x8, #128]
  403cd4:	2a0203e8 	mov	w8, w2
  403cd8:	38401c82 	ldrb	w2, [x4, #1]!
  403cdc:	aa0103ea 	mov	x10, x1
  403ce0:	b8687928 	ldr	w8, [x9, x8, lsl #2]
  403ce4:	38001428 	strb	w8, [x1], #1
  403ce8:	35ffff62 	cbnz	w2, 403cd4 <_nl_find_msg+0x6b4>
  403cec:	f100047f 	cmp	x3, #0x1
  403cf0:	54001309 	b.ls	403f50 <_nl_find_msg+0x930>  // b.plast
  403cf4:	39400283 	ldrb	w3, [x20]
  403cf8:	3900003f 	strb	wzr, [x1]
  403cfc:	34001743 	cbz	w3, 403fe4 <_nl_find_msg+0x9c4>
  403d00:	aa1403e1 	mov	x1, x20
  403d04:	2a0303e2 	mov	w2, w3
  403d08:	7100bc5f 	cmp	w2, #0x2f
  403d0c:	38401c22 	ldrb	w2, [x1, #1]!
  403d10:	9a9c179c 	cinc	x28, x28, eq  // eq = none
  403d14:	35ffffa2 	cbnz	w2, 403d08 <_nl_find_msg+0x6e8>
  403d18:	cb140021 	sub	x1, x1, x20
  403d1c:	91004821 	add	x1, x1, #0x12
  403d20:	9270bc22 	and	x2, x1, #0xffffffffffff0000
  403d24:	927cec21 	and	x1, x1, #0xfffffffffffffff0
  403d28:	cb2263e2 	sub	x2, sp, x2
  403d2c:	eb2263ff 	cmp	sp, x2
  403d30:	540000a0 	b.eq	403d44 <_nl_find_msg+0x724>  // b.none
  403d34:	d14043ff 	sub	sp, sp, #0x10, lsl #12
  403d38:	eb2263ff 	cmp	sp, x2
  403d3c:	f90203ff 	str	xzr, [sp, #1024]
  403d40:	54ffffa1 	b.ne	403d34 <_nl_find_msg+0x714>  // b.any
  403d44:	92403c21 	and	x1, x1, #0xffff
  403d48:	cb2163ff 	sub	sp, sp, x1
  403d4c:	f110003f 	cmp	x1, #0x400
  403d50:	f90003ff 	str	xzr, [sp]
  403d54:	54000043 	b.cc	403d5c <_nl_find_msg+0x73c>  // b.lo, b.ul, b.last
  403d58:	f90203ff 	str	xzr, [sp, #1024]
  403d5c:	90000324 	adrp	x4, 467000 <_nl_C_name>
  403d60:	910043e1 	add	x1, sp, #0x10
  403d64:	aa0103e2 	mov	x2, x1
  403d68:	f9404088 	ldr	x8, [x4, #128]
  403d6c:	2a0303e4 	mov	w4, w3
  403d70:	38401e83 	ldrb	w3, [x20, #1]!
  403d74:	aa0203e9 	mov	x9, x2
  403d78:	b8647904 	ldr	w4, [x8, x4, lsl #2]
  403d7c:	38001444 	strb	w4, [x2], #1
  403d80:	35ffff63 	cbnz	w3, 403d6c <_nl_find_msg+0x74c>
  403d84:	f100079f 	cmp	x28, #0x1
  403d88:	54000da9 	b.ls	403f3c <_nl_find_msg+0x91c>  // b.plast
  403d8c:	3900005f 	strb	wzr, [x2]
  403d90:	52800023 	mov	w3, #0x1                   	// #1
  403d94:	91002342 	add	x2, x26, #0x8
  403d98:	940067e8 	bl	41dd38 <__gconv_open>
  403d9c:	35000e40 	cbnz	w0, 403f64 <_nl_find_msg+0x944>
  403da0:	f9403ee0 	ldr	x0, [x23, #120]
  403da4:	f9000b5f 	str	xzr, [x26, #16]
  403da8:	91000400 	add	x0, x0, #0x1
  403dac:	f9003ee0 	str	x0, [x23, #120]
  403db0:	b5ffdbdb 	cbnz	x27, 403928 <_nl_find_msg+0x308>
  403db4:	17fffedf 	b	403930 <_nl_find_msg+0x310>
  403db8:	f9400321 	ldr	x1, [x25]
  403dbc:	aa1903e0 	mov	x0, x25
  403dc0:	f9000781 	str	x1, [x28, #8]
  403dc4:	940045d3 	bl	415510 <__free>
  403dc8:	91008380 	add	x0, x28, #0x20
  403dcc:	a902ff9f 	stp	xzr, xzr, [x28, #40]
  403dd0:	885f7c01 	ldxr	w1, [x0]
  403dd4:	8802fc1f 	stlxr	w2, wzr, [x0]
  403dd8:	35ffffc2 	cbnz	w2, 403dd0 <_nl_find_msg+0x7b0>
  403ddc:	7100043f 	cmp	w1, #0x1
  403de0:	92800018 	mov	x24, #0xffffffffffffffff    	// #-1
  403de4:	54ffd22d 	b.le	403828 <_nl_find_msg+0x208>
  403de8:	d2801021 	mov	x1, #0x81                  	// #129
  403dec:	d2800022 	mov	x2, #0x1                   	// #1
  403df0:	d2800003 	mov	x3, #0x0                   	// #0
  403df4:	d2800c48 	mov	x8, #0x62                  	// #98
  403df8:	d4000001 	svc	#0x0
  403dfc:	17fffe8b 	b	403828 <_nl_find_msg+0x208>
  403e00:	92800018 	mov	x24, #0xffffffffffffffff    	// #-1
  403e04:	17fffe89 	b	403828 <_nl_find_msg+0x208>
  403e08:	d000045c 	adrp	x28, 48d000 <_dl_main_map+0xa0>
  403e0c:	9138439c 	add	x28, x28, #0xe10
  403e10:	91008380 	add	x0, x28, #0x20
  403e14:	52800021 	mov	w1, #0x1                   	// #1
  403e18:	885ffc02 	ldaxr	w2, [x0]
  403e1c:	35000062 	cbnz	w2, 403e28 <_nl_find_msg+0x808>
  403e20:	88037c01 	stxr	w3, w1, [x0]
  403e24:	35ffffa3 	cbnz	w3, 403e18 <_nl_find_msg+0x7f8>
  403e28:	7100005f 	cmp	w2, #0x0
  403e2c:	54000b01 	b.ne	403f8c <_nl_find_msg+0x96c>  // b.any
  403e30:	f9400b40 	ldr	x0, [x26, #16]
  403e34:	b40006e0 	cbz	x0, 403f10 <_nl_find_msg+0x8f0>
  403e38:	91008380 	add	x0, x28, #0x20
  403e3c:	885f7c01 	ldxr	w1, [x0]
  403e40:	8802fc1f 	stlxr	w2, wzr, [x0]
  403e44:	35ffffc2 	cbnz	w2, 403e3c <_nl_find_msg+0x81c>
  403e48:	7100043f 	cmp	w1, #0x1
  403e4c:	5400006c 	b.gt	403e58 <_nl_find_msg+0x838>
  403e50:	f9400b40 	ldr	x0, [x26, #16]
  403e54:	17fffebc 	b	403944 <_nl_find_msg+0x324>
  403e58:	d2801021 	mov	x1, #0x81                  	// #129
  403e5c:	d2800022 	mov	x2, #0x1                   	// #1
  403e60:	d2800003 	mov	x3, #0x0                   	// #0
  403e64:	d2800c48 	mov	x8, #0x62                  	// #98
  403e68:	d4000001 	svc	#0x0
  403e6c:	f9400b40 	ldr	x0, [x26, #16]
  403e70:	17fffeb5 	b	403944 <_nl_find_msg+0x324>
  403e74:	aa0103e0 	mov	x0, x1
  403e78:	9400442e 	bl	414f30 <__libc_malloc>
  403e7c:	aa0003e1 	mov	x1, x0
  403e80:	17ffff41 	b	403b84 <_nl_find_msg+0x564>
  403e84:	b4fffbfb 	cbz	x27, 403e00 <_nl_find_msg+0x7e0>
  403e88:	910202e0 	add	x0, x23, #0x80
  403e8c:	92800018 	mov	x24, #0xffffffffffffffff    	// #-1
  403e90:	d503201f 	nop
  403e94:	17fffe65 	b	403828 <_nl_find_msg+0x208>
  403e98:	91008380 	add	x0, x28, #0x20
  403e9c:	885f7c01 	ldxr	w1, [x0]
  403ea0:	8802fc1f 	stlxr	w2, wzr, [x0]
  403ea4:	35ffffc2 	cbnz	w2, 403e9c <_nl_find_msg+0x87c>
  403ea8:	7100043f 	cmp	w1, #0x1
  403eac:	d2800018 	mov	x24, #0x0                   	// #0
  403eb0:	54ffcbcd 	b.le	403828 <_nl_find_msg+0x208>
  403eb4:	17ffffcd 	b	403de8 <_nl_find_msg+0x7c8>
  403eb8:	a9428784 	ldp	x4, x1, [x28, #40]
  403ebc:	91008380 	add	x0, x28, #0x20
  403ec0:	f94057a2 	ldr	x2, [x29, #168]
  403ec4:	d37df2c5 	lsl	x5, x22, #3
  403ec8:	f9400b47 	ldr	x7, [x26, #16]
  403ecc:	cb040043 	sub	x3, x2, x4
  403ed0:	cb030021 	sub	x1, x1, x3
  403ed4:	d1002063 	sub	x3, x3, #0x8
  403ed8:	92400828 	and	x8, x1, #0x7
  403edc:	f9000083 	str	x3, [x4]
  403ee0:	8b080042 	add	x2, x2, x8
  403ee4:	927df021 	and	x1, x1, #0xfffffffffffffff8
  403ee8:	f83678e4 	str	x4, [x7, x22, lsl #3]
  403eec:	a9028782 	stp	x2, x1, [x28, #40]
  403ef0:	885f7c01 	ldxr	w1, [x0]
  403ef4:	8802fc1f 	stlxr	w2, wzr, [x0]
  403ef8:	35ffffc2 	cbnz	w2, 403ef0 <_nl_find_msg+0x8d0>
  403efc:	7100043f 	cmp	w1, #0x1
  403f00:	5400082c 	b.gt	404004 <_nl_find_msg+0x9e4>
  403f04:	f9400b40 	ldr	x0, [x26, #16]
  403f08:	f8656800 	ldr	x0, [x0, x5]
  403f0c:	17fffe92 	b	403954 <_nl_find_msg+0x334>
  403f10:	b94042e0 	ldr	w0, [x23, #64]
  403f14:	d2800101 	mov	x1, #0x8                   	// #8
  403f18:	0b000260 	add	w0, w19, w0
  403f1c:	94004729 	bl	415bc0 <__calloc>
  403f20:	f9000b40 	str	x0, [x26, #16]
  403f24:	b5ffdc00 	cbnz	x0, 403aa4 <_nl_find_msg+0x484>
  403f28:	92800000 	mov	x0, #0xffffffffffffffff    	// #-1
  403f2c:	f9000b40 	str	x0, [x26, #16]
  403f30:	17ffffc2 	b	403e38 <_nl_find_msg+0x818>
  403f34:	94003297 	bl	410990 <__lll_lock_wait_private>
  403f38:	17fffedb 	b	403aa4 <_nl_find_msg+0x484>
  403f3c:	528005e3 	mov	w3, #0x2f                  	// #47
  403f40:	39000043 	strb	w3, [x2]
  403f44:	b400029c 	cbz	x28, 403f94 <_nl_find_msg+0x974>
  403f48:	91000922 	add	x2, x9, #0x2
  403f4c:	17ffff90 	b	403d8c <_nl_find_msg+0x76c>
  403f50:	528005e2 	mov	w2, #0x2f                  	// #47
  403f54:	39000022 	strb	w2, [x1]
  403f58:	b4000343 	cbz	x3, 403fc0 <_nl_find_msg+0x9a0>
  403f5c:	91000941 	add	x1, x10, #0x2
  403f60:	17ffff65 	b	403cf4 <_nl_find_msg+0x6d4>
  403f64:	3100041f 	cmn	w0, #0x1
  403f68:	540005a0 	b.eq	40401c <_nl_find_msg+0x9fc>  // b.none
  403f6c:	b400007b 	cbz	x27, 403f78 <_nl_find_msg+0x958>
  403f70:	910202e0 	add	x0, x23, #0x80
  403f74:	d503201f 	nop
  403f78:	aa1903e0 	mov	x0, x25
  403f7c:	94004565 	bl	415510 <__free>
  403f80:	d2800001 	mov	x1, #0x0                   	// #0
  403f84:	aa0103f8 	mov	x24, x1
  403f88:	17fffe28 	b	403828 <_nl_find_msg+0x208>
  403f8c:	94003281 	bl	410990 <__lll_lock_wait_private>
  403f90:	17ffffa8 	b	403e30 <_nl_find_msg+0x810>
  403f94:	aa0203e3 	mov	x3, x2
  403f98:	528005e4 	mov	w4, #0x2f                  	// #47
  403f9c:	91000862 	add	x2, x3, #0x2
  403fa0:	39000464 	strb	w4, [x3, #1]
  403fa4:	17ffff7a 	b	403d8c <_nl_find_msg+0x76c>
  403fa8:	d10043ff 	sub	sp, sp, #0x10
  403fac:	f90007ff 	str	xzr, [sp, #8]
  403fb0:	910043e1 	add	x1, sp, #0x10
  403fb4:	528005e2 	mov	w2, #0x2f                  	// #47
  403fb8:	aa0103e0 	mov	x0, x1
  403fbc:	39000022 	strb	w2, [x1]
  403fc0:	d28a4a82 	mov	x2, #0x5254                	// #21076
  403fc4:	528005e3 	mov	w3, #0x2f                  	// #47
  403fc8:	f2a9c822 	movk	x2, #0x4e41, lsl #16
  403fcc:	91002821 	add	x1, x1, #0xa
  403fd0:	f2c98a62 	movk	x2, #0x4c53, lsl #32
  403fd4:	381f7023 	sturb	w3, [x1, #-9]
  403fd8:	f2ea8922 	movk	x2, #0x5449, lsl #48
  403fdc:	f81f8022 	stur	x2, [x1, #-8]
  403fe0:	17ffff45 	b	403cf4 <_nl_find_msg+0x6d4>
  403fe4:	d10043ff 	sub	sp, sp, #0x10
  403fe8:	f90007ff 	str	xzr, [sp, #8]
  403fec:	910043e1 	add	x1, sp, #0x10
  403ff0:	528005e2 	mov	w2, #0x2f                  	// #47
  403ff4:	aa0103e3 	mov	x3, x1
  403ff8:	39000022 	strb	w2, [x1]
  403ffc:	17ffffe7 	b	403f98 <_nl_find_msg+0x978>
  404000:	94006180 	bl	41c600 <__stack_chk_fail>
  404004:	d2801021 	mov	x1, #0x81                  	// #129
  404008:	d2800022 	mov	x2, #0x1                   	// #1
  40400c:	d2800003 	mov	x3, #0x0                   	// #0
  404010:	d2800c48 	mov	x8, #0x62                  	// #98
  404014:	d4000001 	svc	#0x0
  404018:	17ffffbb 	b	403f04 <_nl_find_msg+0x8e4>
  40401c:	92800000 	mov	x0, #0xffffffffffffffff    	// #-1
  404020:	f9000740 	str	x0, [x26, #8]
  404024:	17ffff5f 	b	403da0 <_nl_find_msg+0x780>

0000000000404028 <__dcigettext>:
  404028:	a9ac7bfd 	stp	x29, x30, [sp, #-320]!
  40402c:	910003fd 	mov	x29, sp
  404030:	a90363f7 	stp	x23, x24, [sp, #48]
  404034:	f0000437 	adrp	x23, 48b000 <__FRAME_END__+0xf85c>
  404038:	912682e6 	add	x6, x23, #0x9a0
  40403c:	f94000c7 	ldr	x7, [x6]
  404040:	f9009fa7 	str	x7, [x29, #312]
  404044:	d2800007 	mov	x7, #0x0                   	// #0
  404048:	a90153f3 	stp	x19, x20, [sp, #16]
  40404c:	a9025bf5 	stp	x21, x22, [sp, #32]
  404050:	a9046bf9 	stp	x25, x26, [sp, #64]
  404054:	a90573fb 	stp	x27, x28, [sp, #80]
  404058:	d10043ff 	sub	sp, sp, #0x10
  40405c:	a90b13a2 	stp	x2, x4, [x29, #176]
  404060:	b900cfa3 	str	w3, [x29, #204]
  404064:	f9006ba6 	str	x6, [x29, #208]
  404068:	f90077bf 	str	xzr, [x29, #232]
  40406c:	b4002a41 	cbz	x1, 4045b4 <__dcigettext+0x58c>
  404070:	710030bf 	cmp	w5, #0xc
  404074:	aa0103f5 	mov	x21, x1
  404078:	2a0503f6 	mov	w22, w5
  40407c:	7a4698a4 	ccmp	w5, #0x6, #0x4, ls  // ls = plast
  404080:	540024a0 	b.eq	404514 <__dcigettext+0x4ec>  // b.none
  404084:	f0000421 	adrp	x1, 48b000 <__FRAME_END__+0xf85c>
  404088:	f947c421 	ldr	x1, [x1, #3976]
  40408c:	d53bd042 	mrs	x2, tpidr_el0
  404090:	aa0003f4 	mov	x20, x0
  404094:	b0000280 	adrp	x0, 455000 <cpu_list+0xb8>
  404098:	a90987a2 	stp	x2, x1, [x29, #152]
  40409c:	b0000459 	adrp	x25, 48d000 <_dl_main_map+0xa0>
  4040a0:	f9406013 	ldr	x19, [x0, #192]
  4040a4:	b8616840 	ldr	w0, [x2, x1]
  4040a8:	b900cba0 	str	w0, [x29, #200]
  4040ac:	b4001bb3 	cbz	x19, 404420 <__dcigettext+0x3f8>
  4040b0:	d0000440 	adrp	x0, 48e000 <initial+0x90>
  4040b4:	9112c000 	add	x0, x0, #0x4b0
  4040b8:	d503201f 	nop
  4040bc:	b4001b33 	cbz	x19, 404420 <__dcigettext+0x3f8>
  4040c0:	91384320 	add	x0, x25, #0xe10
  4040c4:	f90063a0 	str	x0, [x29, #192]
  4040c8:	9100e000 	add	x0, x0, #0x38
  4040cc:	d503201f 	nop
  4040d0:	90000441 	adrp	x1, 48c000 <_GLOBAL_OFFSET_TABLE_+0xc8>
  4040d4:	f100029f 	cmp	x20, #0x0
  4040d8:	2a1603e0 	mov	w0, w22
  4040dc:	b90103b6 	str	w22, [x29, #256]
  4040e0:	f9403821 	ldr	x1, [x1, #112]
  4040e4:	f9008fbf 	str	xzr, [x29, #280]
  4040e8:	f9009bb5 	str	x21, [x29, #304]
  4040ec:	9a940034 	csel	x20, x1, x20, eq  // eq = none
  4040f0:	f9007fb4 	str	x20, [x29, #248]
  4040f4:	94009215 	bl	428948 <__current_locale_name>
  4040f8:	f90047a0 	str	x0, [x29, #136]
  4040fc:	f90087a0 	str	x0, [x29, #264]
  404100:	b4000093 	cbz	x19, 404110 <__dcigettext+0xe8>
  404104:	f94063a0 	ldr	x0, [x29, #192]
  404108:	9101c000 	add	x0, x0, #0x70
  40410c:	d503201f 	nop
  404110:	f94063b3 	ldr	x19, [x29, #192]
  404114:	f0ffffe0 	adrp	x0, 403000 <__tls_get_addr>
  404118:	91148000 	add	x0, x0, #0x520
  40411c:	f90043a0 	str	x0, [x29, #128]
  404120:	aa0003e2 	mov	x2, x0
  404124:	aa1303e1 	mov	x1, x19
  404128:	9103e3a0 	add	x0, x29, #0xf8
  40412c:	94005d8b 	bl	41b758 <__tfind>
  404130:	b0000281 	adrp	x1, 455000 <cpu_list+0xb8>
  404134:	f90057a0 	str	x0, [x29, #168]
  404138:	f9406820 	ldr	x0, [x1, #208]
  40413c:	f9006fa0 	str	x0, [x29, #216]
  404140:	b4000060 	cbz	x0, 40414c <__dcigettext+0x124>
  404144:	9101c260 	add	x0, x19, #0x70
  404148:	d503201f 	nop
  40414c:	f94057a0 	ldr	x0, [x29, #168]
  404150:	b40000e0 	cbz	x0, 40416c <__dcigettext+0x144>
  404154:	f9400000 	ldr	x0, [x0]
  404158:	d0000441 	adrp	x1, 48e000 <initial+0x90>
  40415c:	b94dd821 	ldr	w1, [x1, #3544]
  404160:	b9401802 	ldr	w2, [x0, #24]
  404164:	6b01005f 	cmp	w2, w1
  404168:	54002000 	b.eq	404568 <__dcigettext+0x540>  // b.none
  40416c:	d0000440 	adrp	x0, 48e000 <initial+0x90>
  404170:	f946e813 	ldr	x19, [x0, #3536]
  404174:	b50000b3 	cbnz	x19, 404188 <__dcigettext+0x160>
  404178:	140000f5 	b	40454c <__dcigettext+0x524>
  40417c:	54001eeb 	b.lt	404558 <__dcigettext+0x530>  // b.tstop
  404180:	f9400273 	ldr	x19, [x19]
  404184:	b4001e53 	cbz	x19, 40454c <__dcigettext+0x524>
  404188:	91006261 	add	x1, x19, #0x18
  40418c:	aa1403e0 	mov	x0, x20
  404190:	940049fc 	bl	416980 <strcmp>
  404194:	7100001f 	cmp	w0, #0x0
  404198:	35ffff20 	cbnz	w0, 40417c <__dcigettext+0x154>
  40419c:	f9400678 	ldr	x24, [x19, #8]
  4041a0:	39400300 	ldrb	w0, [x24]
  4041a4:	7100bc1f 	cmp	w0, #0x2f
  4041a8:	54000240 	b.eq	4041f0 <__dcigettext+0x1c8>  // b.none
  4041ac:	d2800001 	mov	x1, #0x0                   	// #0
  4041b0:	d2800000 	mov	x0, #0x0                   	// #0
  4041b4:	94005933 	bl	41a680 <__getcwd>
  4041b8:	aa0003fa 	mov	x26, x0
  4041bc:	b4001660 	cbz	x0, 404488 <__dcigettext+0x460>
  4041c0:	aa1803e3 	mov	x3, x24
  4041c4:	aa0003e2 	mov	x2, x0
  4041c8:	b0000281 	adrp	x1, 455000 <cpu_list+0xb8>
  4041cc:	9101e021 	add	x1, x1, #0x78
  4041d0:	9103a3a0 	add	x0, x29, #0xe8
  4041d4:	9400122d 	bl	408a88 <___asprintf>
  4041d8:	2a0003f8 	mov	w24, w0
  4041dc:	aa1a03e0 	mov	x0, x26
  4041e0:	940044cc 	bl	415510 <__free>
  4041e4:	37f81538 	tbnz	w24, #31, 404488 <__dcigettext+0x460>
  4041e8:	f94077b8 	ldr	x24, [x29, #232]
  4041ec:	d503201f 	nop
  4041f0:	900002a2 	adrp	x2, 458000 <map+0x178>
  4041f4:	911b4042 	add	x2, x2, #0x6d0
  4041f8:	900002bb 	adrp	x27, 458000 <map+0x178>
  4041fc:	91190361 	add	x1, x27, #0x640
  404200:	2a1603e0 	mov	w0, w22
  404204:	3876c85b 	ldrb	w27, [x2, w22, sxtw]
  404208:	8b01037b 	add	x27, x27, x1
  40420c:	940091cf 	bl	428948 <__current_locale_name>
  404210:	aa0003f7 	mov	x23, x0
  404214:	39400000 	ldrb	w0, [x0]
  404218:	71010c1f 	cmp	w0, #0x43
  40421c:	54001881 	b.ne	40452c <__dcigettext+0x504>  // b.any
  404220:	394006e0 	ldrb	w0, [x23, #1]
  404224:	35001840 	cbnz	w0, 40452c <__dcigettext+0x504>
  404228:	aa1403e0 	mov	x0, x20
  40422c:	97fff035 	bl	400300 <.plt+0x60>
  404230:	aa0003e1 	mov	x1, x0
  404234:	aa1b03e0 	mov	x0, x27
  404238:	aa0103f9 	mov	x25, x1
  40423c:	f9003fa1 	str	x1, [x29, #120]
  404240:	97fff030 	bl	400300 <.plt+0x60>
  404244:	8b190000 	add	x0, x0, x25
  404248:	91005000 	add	x0, x0, #0x14
  40424c:	9100eb22 	add	x2, x25, #0x3a
  404250:	9270bc01 	and	x1, x0, #0xffffffffffff0000
  404254:	f9003ba2 	str	x2, [x29, #112]
  404258:	cb2163e1 	sub	x1, sp, x1
  40425c:	927cec00 	and	x0, x0, #0xfffffffffffffff0
  404260:	eb2163ff 	cmp	sp, x1
  404264:	540000a0 	b.eq	404278 <__dcigettext+0x250>  // b.none
  404268:	d14043ff 	sub	sp, sp, #0x10, lsl #12
  40426c:	eb2163ff 	cmp	sp, x1
  404270:	f90203ff 	str	xzr, [sp, #1024]
  404274:	54ffffa1 	b.ne	404268 <__dcigettext+0x240>  // b.any
  404278:	92403c00 	and	x0, x0, #0xffff
  40427c:	cb2063ff 	sub	sp, sp, x0
  404280:	f110001f 	cmp	x0, #0x400
  404284:	f90003ff 	str	xzr, [sp]
  404288:	54000043 	b.cc	404290 <__dcigettext+0x268>  // b.lo, b.ul, b.last
  40428c:	f90203ff 	str	xzr, [sp, #1024]
  404290:	910043fa 	add	x26, sp, #0x10
  404294:	aa1b03e1 	mov	x1, x27
  404298:	aa1a03e0 	mov	x0, x26
  40429c:	94004df9 	bl	417a80 <__stpcpy>
  4042a0:	f9403fa2 	ldr	x2, [x29, #120]
  4042a4:	528005e3 	mov	w3, #0x2f                  	// #47
  4042a8:	78001403 	strh	w3, [x0], #1
  4042ac:	aa1403e1 	mov	x1, x20
  4042b0:	94004dea 	bl	417a58 <__mempcpy>
  4042b4:	aa0003e1 	mov	x1, x0
  4042b8:	528da5c2 	mov	w2, #0x6d2e                	// #27950
  4042bc:	aa1703e0 	mov	x0, x23
  4042c0:	72a00de2 	movk	w2, #0x6f, lsl #16
  4042c4:	b9000022 	str	w2, [x1]
  4042c8:	97fff00e 	bl	400300 <.plt+0x60>
  4042cc:	91004000 	add	x0, x0, #0x10
  4042d0:	9270bc01 	and	x1, x0, #0xffffffffffff0000
  4042d4:	927cec00 	and	x0, x0, #0xfffffffffffffff0
  4042d8:	cb2163e1 	sub	x1, sp, x1
  4042dc:	eb2163ff 	cmp	sp, x1
  4042e0:	540000a0 	b.eq	4042f4 <__dcigettext+0x2cc>  // b.none
  4042e4:	d14043ff 	sub	sp, sp, #0x10, lsl #12
  4042e8:	eb2163ff 	cmp	sp, x1
  4042ec:	f90203ff 	str	xzr, [sp, #1024]
  4042f0:	54ffffa1 	b.ne	4042e4 <__dcigettext+0x2bc>  // b.any
  4042f4:	92403c00 	and	x0, x0, #0xffff
  4042f8:	cb2063ff 	sub	sp, sp, x0
  4042fc:	f110001f 	cmp	x0, #0x400
  404300:	f90003ff 	str	xzr, [sp]
  404304:	54000043 	b.cc	40430c <__dcigettext+0x2e4>  // b.lo, b.ul, b.last
  404308:	f90203ff 	str	xzr, [sp, #1024]
  40430c:	b000029b 	adrp	x27, 455000 <cpu_list+0xb8>
  404310:	910043f9 	add	x25, sp, #0x10
  404314:	9102437b 	add	x27, x27, #0x90
  404318:	f0000420 	adrp	x0, 48b000 <__FRAME_END__+0xf85c>
  40431c:	913bc000 	add	x0, x0, #0xef0
  404320:	f9004ba0 	str	x0, [x29, #144]
  404324:	d503201f 	nop
  404328:	394002e0 	ldrb	w0, [x23]
  40432c:	7100e81f 	cmp	w0, #0x3a
  404330:	54001460 	b.eq	4045bc <__dcigettext+0x594>  // b.none
  404334:	35001480 	cbnz	w0, 4045c4 <__dcigettext+0x59c>
  404338:	52800860 	mov	w0, #0x43                  	// #67
  40433c:	79000320 	strh	w0, [x25]
  404340:	39400320 	ldrb	w0, [x25]
  404344:	71010c1f 	cmp	w0, #0x43
  404348:	54000061 	b.ne	404354 <__dcigettext+0x32c>  // b.any
  40434c:	39400720 	ldrb	w0, [x25, #1]
  404350:	340009c0 	cbz	w0, 404488 <__dcigettext+0x460>
  404354:	aa1b03e1 	mov	x1, x27
  404358:	aa1903e0 	mov	x0, x25
  40435c:	94004989 	bl	416980 <strcmp>
  404360:	34000940 	cbz	w0, 404488 <__dcigettext+0x460>
  404364:	aa1303e3 	mov	x3, x19
  404368:	aa1a03e2 	mov	x2, x26
  40436c:	aa1903e1 	mov	x1, x25
  404370:	aa1803e0 	mov	x0, x24
  404374:	940000ff 	bl	404770 <_nl_find_domain>
  404378:	aa0003fc 	mov	x28, x0
  40437c:	b4fffd60 	cbz	x0, 404328 <__dcigettext+0x300>
  404380:	9103c3a4 	add	x4, x29, #0xf0
  404384:	aa1503e2 	mov	x2, x21
  404388:	aa1303e1 	mov	x1, x19
  40438c:	52800023 	mov	w3, #0x1                   	// #1
  404390:	97fffca4 	bl	403620 <_nl_find_msg>
  404394:	aa0003e4 	mov	x4, x0
  404398:	b40004a0 	cbz	x0, 40442c <__dcigettext+0x404>
  40439c:	b100041f 	cmn	x0, #0x1
  4043a0:	54000740 	b.eq	404488 <__dcigettext+0x460>  // b.none
  4043a4:	f94077a0 	ldr	x0, [x29, #232]
  4043a8:	f9005ba4 	str	x4, [x29, #176]
  4043ac:	94004459 	bl	415510 <__free>
  4043b0:	a94a93a0 	ldp	x0, x4, [x29, #168]
  4043b4:	b4001560 	cbz	x0, 404660 <__dcigettext+0x638>
  4043b8:	f94057a0 	ldr	x0, [x29, #168]
  4043bc:	d0000442 	adrp	x2, 48e000 <initial+0x90>
  4043c0:	f9407ba1 	ldr	x1, [x29, #240]
  4043c4:	f9400000 	ldr	x0, [x0]
  4043c8:	b94dd842 	ldr	w2, [x2, #3544]
  4043cc:	b9001802 	str	w2, [x0, #24]
  4043d0:	a902101c 	stp	x28, x4, [x0, #32]
  4043d4:	f9001801 	str	x1, [x0, #48]
  4043d8:	a94987a0 	ldp	x0, x1, [x29, #152]
  4043dc:	b940cba2 	ldr	w2, [x29, #200]
  4043e0:	b8216802 	str	w2, [x0, x1]
  4043e4:	b940cfa0 	ldr	w0, [x29, #204]
  4043e8:	350012e0 	cbnz	w0, 404644 <__dcigettext+0x61c>
  4043ec:	f9406fb3 	ldr	x19, [x29, #216]
  4043f0:	b4000753 	cbz	x19, 4044d8 <__dcigettext+0x4b0>
  4043f4:	f94063a0 	ldr	x0, [x29, #192]
  4043f8:	f9006fa4 	str	x4, [x29, #216]
  4043fc:	9100e000 	add	x0, x0, #0x38
  404400:	d503201f 	nop
  404404:	f9406fa4 	ldr	x4, [x29, #216]
  404408:	b4000693 	cbz	x19, 4044d8 <__dcigettext+0x4b0>
  40440c:	d0000440 	adrp	x0, 48e000 <initial+0x90>
  404410:	9112c000 	add	x0, x0, #0x4b0
  404414:	d503201f 	nop
  404418:	f9406fa4 	ldr	x4, [x29, #216]
  40441c:	1400002f 	b	4044d8 <__dcigettext+0x4b0>
  404420:	91384320 	add	x0, x25, #0xe10
  404424:	f90063a0 	str	x0, [x29, #192]
  404428:	17ffff2a 	b	4040d0 <__dcigettext+0xa8>
  40442c:	f9401380 	ldr	x0, [x28, #32]
  404430:	b4fff7c0 	cbz	x0, 404328 <__dcigettext+0x300>
  404434:	91008381 	add	x1, x28, #0x20
  404438:	d2800006 	mov	x6, #0x0                   	// #0
  40443c:	a9065fb8 	stp	x24, x23, [x29, #96]
  404440:	aa1503f8 	mov	x24, x21
  404444:	aa0603f7 	mov	x23, x6
  404448:	aa1303f5 	mov	x21, x19
  40444c:	aa0103f3 	mov	x19, x1
  404450:	14000005 	b	404464 <__dcigettext+0x43c>
  404454:	b5000d60 	cbnz	x0, 404600 <__dcigettext+0x5d8>
  404458:	910006f7 	add	x23, x23, #0x1
  40445c:	f8777a60 	ldr	x0, [x19, x23, lsl #3]
  404460:	b4000da0 	cbz	x0, 404614 <__dcigettext+0x5ec>
  404464:	aa1503e1 	mov	x1, x21
  404468:	9103c3a4 	add	x4, x29, #0xf0
  40446c:	aa1803e2 	mov	x2, x24
  404470:	52800023 	mov	w3, #0x1                   	// #1
  404474:	97fffc6b 	bl	403620 <_nl_find_msg>
  404478:	b100041f 	cmn	x0, #0x1
  40447c:	2a1703e1 	mov	w1, w23
  404480:	54fffea1 	b.ne	404454 <__dcigettext+0x42c>  // b.any
  404484:	aa1803f5 	mov	x21, x24
  404488:	f94077a0 	ldr	x0, [x29, #232]
  40448c:	94004421 	bl	415510 <__free>
  404490:	f9406fb3 	ldr	x19, [x29, #216]
  404494:	b4000113 	cbz	x19, 4044b4 <__dcigettext+0x48c>
  404498:	f94063a0 	ldr	x0, [x29, #192]
  40449c:	9100e000 	add	x0, x0, #0x38
  4044a0:	d503201f 	nop
  4044a4:	b4000093 	cbz	x19, 4044b4 <__dcigettext+0x48c>
  4044a8:	d0000440 	adrp	x0, 48e000 <initial+0x90>
  4044ac:	9112c000 	add	x0, x0, #0x4b0
  4044b0:	d503201f 	nop
  4044b4:	a94987a0 	ldp	x0, x1, [x29, #152]
  4044b8:	b940cba2 	ldr	w2, [x29, #200]
  4044bc:	b8216802 	str	w2, [x0, x1]
  4044c0:	b940cfa0 	ldr	w0, [x29, #204]
  4044c4:	7100001f 	cmp	w0, #0x0
  4044c8:	f9405fa0 	ldr	x0, [x29, #184]
  4044cc:	fa411804 	ccmp	x0, #0x1, #0x4, ne  // ne = any
  4044d0:	540002a1 	b.ne	404524 <__dcigettext+0x4fc>  // b.any
  4044d4:	aa1503e4 	mov	x4, x21
  4044d8:	f9406ba0 	ldr	x0, [x29, #208]
  4044dc:	f9409fa1 	ldr	x1, [x29, #312]
  4044e0:	f9400002 	ldr	x2, [x0]
  4044e4:	eb020021 	subs	x1, x1, x2
  4044e8:	d2800002 	mov	x2, #0x0                   	// #0
  4044ec:	540013e1 	b.ne	404768 <__dcigettext+0x740>  // b.any
  4044f0:	910003bf 	mov	sp, x29
  4044f4:	aa0403e0 	mov	x0, x4
  4044f8:	a94153f3 	ldp	x19, x20, [sp, #16]
  4044fc:	a9425bf5 	ldp	x21, x22, [sp, #32]
  404500:	a94363f7 	ldp	x23, x24, [sp, #48]
  404504:	a9446bf9 	ldp	x25, x26, [sp, #64]
  404508:	a94573fb 	ldp	x27, x28, [sp, #80]
  40450c:	a8d47bfd 	ldp	x29, x30, [sp], #320
  404510:	d65f03c0 	ret
  404514:	2a0303e0 	mov	w0, w3
  404518:	7100001f 	cmp	w0, #0x0
  40451c:	fa411884 	ccmp	x4, #0x1, #0x4, ne  // ne = any
  404520:	54fffda0 	b.eq	4044d4 <__dcigettext+0x4ac>  // b.none
  404524:	f9405ba4 	ldr	x4, [x29, #176]
  404528:	17ffffec 	b	4044d8 <__dcigettext+0x4b0>
  40452c:	b0000280 	adrp	x0, 455000 <cpu_list+0xb8>
  404530:	91020000 	add	x0, x0, #0x80
  404534:	94000e4b 	bl	407e60 <getenv>
  404538:	b4ffe780 	cbz	x0, 404228 <__dcigettext+0x200>
  40453c:	39400001 	ldrb	w1, [x0]
  404540:	7100003f 	cmp	w1, #0x0
  404544:	9a8002f7 	csel	x23, x23, x0, eq  // eq = none
  404548:	17ffff38 	b	404228 <__dcigettext+0x200>
  40454c:	b0000298 	adrp	x24, 455000 <cpu_list+0xb8>
  404550:	91026318 	add	x24, x24, #0x98
  404554:	17ffff27 	b	4041f0 <__dcigettext+0x1c8>
  404558:	b0000298 	adrp	x24, 455000 <cpu_list+0xb8>
  40455c:	d2800013 	mov	x19, #0x0                   	// #0
  404560:	91026318 	add	x24, x24, #0x98
  404564:	17ffff23 	b	4041f0 <__dcigettext+0x1c8>
  404568:	b940cfa1 	ldr	w1, [x29, #204]
  40456c:	f9401404 	ldr	x4, [x0, #40]
  404570:	350005a1 	cbnz	w1, 404624 <__dcigettext+0x5fc>
  404574:	f9406fb3 	ldr	x19, [x29, #216]
  404578:	b4000173 	cbz	x19, 4045a4 <__dcigettext+0x57c>
  40457c:	f94063a0 	ldr	x0, [x29, #192]
  404580:	f9006fa4 	str	x4, [x29, #216]
  404584:	9100e000 	add	x0, x0, #0x38
  404588:	d503201f 	nop
  40458c:	f9406fa4 	ldr	x4, [x29, #216]
  404590:	b40000b3 	cbz	x19, 4045a4 <__dcigettext+0x57c>
  404594:	d0000440 	adrp	x0, 48e000 <initial+0x90>
  404598:	9112c000 	add	x0, x0, #0x4b0
  40459c:	d503201f 	nop
  4045a0:	f9406fa4 	ldr	x4, [x29, #216]
  4045a4:	a94987a0 	ldp	x0, x1, [x29, #152]
  4045a8:	b940cba2 	ldr	w2, [x29, #200]
  4045ac:	b8216802 	str	w2, [x0, x1]
  4045b0:	17ffffca 	b	4044d8 <__dcigettext+0x4b0>
  4045b4:	d2800004 	mov	x4, #0x0                   	// #0
  4045b8:	17ffffc8 	b	4044d8 <__dcigettext+0x4b0>
  4045bc:	910006f7 	add	x23, x23, #0x1
  4045c0:	17ffff5a 	b	404328 <__dcigettext+0x300>
  4045c4:	aa1903e1 	mov	x1, x25
  4045c8:	38001420 	strb	w0, [x1], #1
  4045cc:	38401ee0 	ldrb	w0, [x23, #1]!
  4045d0:	7100e81f 	cmp	w0, #0x3a
  4045d4:	7a401804 	ccmp	w0, #0x0, #0x4, ne  // ne = any
  4045d8:	54ffff81 	b.ne	4045c8 <__dcigettext+0x5a0>  // b.any
  4045dc:	f9404ba0 	ldr	x0, [x29, #144]
  4045e0:	3900003f 	strb	wzr, [x1]
  4045e4:	b9400000 	ldr	w0, [x0]
  4045e8:	34ffeac0 	cbz	w0, 404340 <__dcigettext+0x318>
  4045ec:	aa1903e0 	mov	x0, x25
  4045f0:	528005e1 	mov	w1, #0x2f                  	// #47
  4045f4:	940048a7 	bl	416890 <strchr>
  4045f8:	b5ffe980 	cbnz	x0, 404328 <__dcigettext+0x300>
  4045fc:	17ffff51 	b	404340 <__dcigettext+0x318>
  404600:	8b21cf81 	add	x1, x28, w1, sxtw #3
  404604:	aa0003e4 	mov	x4, x0
  404608:	aa1803f5 	mov	x21, x24
  40460c:	f940103c 	ldr	x28, [x1, #32]
  404610:	17ffff65 	b	4043a4 <__dcigettext+0x37c>
  404614:	aa1503f3 	mov	x19, x21
  404618:	aa1803f5 	mov	x21, x24
  40461c:	a9465fb8 	ldp	x24, x23, [x29, #96]
  404620:	17ffff42 	b	404328 <__dcigettext+0x300>
  404624:	f9401005 	ldr	x5, [x0, #32]
  404628:	aa0403e2 	mov	x2, x4
  40462c:	f9401803 	ldr	x3, [x0, #48]
  404630:	f94008a0 	ldr	x0, [x5, #16]
  404634:	f9405fa1 	ldr	x1, [x29, #184]
  404638:	97fffbda 	bl	4035a0 <plural_lookup.isra.0>
  40463c:	aa0003e4 	mov	x4, x0
  404640:	17ffffcd 	b	404574 <__dcigettext+0x54c>
  404644:	f9400b80 	ldr	x0, [x28, #16]
  404648:	aa0403e2 	mov	x2, x4
  40464c:	f9405fa1 	ldr	x1, [x29, #184]
  404650:	f9407ba3 	ldr	x3, [x29, #240]
  404654:	97fffbd3 	bl	4035a0 <plural_lookup.isra.0>
  404658:	aa0003e4 	mov	x4, x0
  40465c:	17ffff64 	b	4043ec <__dcigettext+0x3c4>
  404660:	aa1503e0 	mov	x0, x21
  404664:	97ffef27 	bl	400300 <.plt+0x60>
  404668:	f94047b7 	ldr	x23, [x29, #136]
  40466c:	91000413 	add	x19, x0, #0x1
  404670:	aa1703e0 	mov	x0, x23
  404674:	97ffef23 	bl	400300 <.plt+0x60>
  404678:	f9403ba1 	ldr	x1, [x29, #112]
  40467c:	8b130000 	add	x0, x0, x19
  404680:	8b010000 	add	x0, x0, x1
  404684:	9400422b 	bl	414f30 <__libc_malloc>
  404688:	aa0003f8 	mov	x24, x0
  40468c:	f9405ba4 	ldr	x4, [x29, #176]
  404690:	b4ffea40 	cbz	x0, 4043d8 <__dcigettext+0x3b0>
  404694:	f9403fa0 	ldr	x0, [x29, #120]
  404698:	aa1303e2 	mov	x2, x19
  40469c:	aa1503e1 	mov	x1, x21
  4046a0:	91000413 	add	x19, x0, #0x1
  4046a4:	9100e300 	add	x0, x24, #0x38
  4046a8:	94004cec 	bl	417a58 <__mempcpy>
  4046ac:	aa0003f5 	mov	x21, x0
  4046b0:	aa1303e2 	mov	x2, x19
  4046b4:	aa1403e1 	mov	x1, x20
  4046b8:	8b130013 	add	x19, x0, x19
  4046bc:	97ffeefd 	bl	4002b0 <.plt+0x10>
  4046c0:	aa1703e1 	mov	x1, x23
  4046c4:	aa1303e0 	mov	x0, x19
  4046c8:	940048ee 	bl	416a80 <strcpy>
  4046cc:	f9000315 	str	x21, [x24]
  4046d0:	b0000280 	adrp	x0, 455000 <cpu_list+0xb8>
  4046d4:	d0000441 	adrp	x1, 48e000 <initial+0x90>
  4046d8:	f9405ba4 	ldr	x4, [x29, #176]
  4046dc:	b9000b16 	str	w22, [x24, #8]
  4046e0:	f9406400 	ldr	x0, [x0, #200]
  4046e4:	f9000b13 	str	x19, [x24, #16]
  4046e8:	b94dd822 	ldr	w2, [x1, #3544]
  4046ec:	f9407ba1 	ldr	x1, [x29, #240]
  4046f0:	b9001b02 	str	w2, [x24, #24]
  4046f4:	a902131c 	stp	x28, x4, [x24, #32]
  4046f8:	f9001b01 	str	x1, [x24, #48]
  4046fc:	b40000a0 	cbz	x0, 404710 <__dcigettext+0x6e8>
  404700:	f94063a0 	ldr	x0, [x29, #192]
  404704:	9101c000 	add	x0, x0, #0x70
  404708:	d503201f 	nop
  40470c:	f9405ba4 	ldr	x4, [x29, #176]
  404710:	aa1803e0 	mov	x0, x24
  404714:	f94043a2 	ldr	x2, [x29, #128]
  404718:	f9005ba4 	str	x4, [x29, #176]
  40471c:	f94063b4 	ldr	x20, [x29, #192]
  404720:	aa1403e1 	mov	x1, x20
  404724:	94005ba9 	bl	41b5c8 <__tsearch>
  404728:	aa0003f3 	mov	x19, x0
  40472c:	f9406fa0 	ldr	x0, [x29, #216]
  404730:	f9405ba4 	ldr	x4, [x29, #176]
  404734:	b4000080 	cbz	x0, 404744 <__dcigettext+0x71c>
  404738:	9101c280 	add	x0, x20, #0x70
  40473c:	d503201f 	nop
  404740:	f9405ba4 	ldr	x4, [x29, #176]
  404744:	b4000093 	cbz	x19, 404754 <__dcigettext+0x72c>
  404748:	f9400260 	ldr	x0, [x19]
  40474c:	eb18001f 	cmp	x0, x24
  404750:	54ffe440 	b.eq	4043d8 <__dcigettext+0x3b0>  // b.none
  404754:	aa1803e0 	mov	x0, x24
  404758:	f9005ba4 	str	x4, [x29, #176]
  40475c:	9400436d 	bl	415510 <__free>
  404760:	f9405ba4 	ldr	x4, [x29, #176]
  404764:	17ffff1d 	b	4043d8 <__dcigettext+0x3b0>
  404768:	94005fa6 	bl	41c600 <__stack_chk_fail>
  40476c:	d503201f 	nop

0000000000404770 <_nl_find_domain>:
  404770:	d102c3ff 	sub	sp, sp, #0xb0
  404774:	b0000284 	adrp	x4, 455000 <cpu_list+0xb8>
  404778:	a9027bfd 	stp	x29, x30, [sp, #32]
  40477c:	910083fd 	add	x29, sp, #0x20
  404780:	f9406c84 	ldr	x4, [x4, #216]
  404784:	a9045bf5 	stp	x21, x22, [sp, #64]
  404788:	f0000435 	adrp	x21, 48b000 <__FRAME_END__+0xf85c>
  40478c:	912682b5 	add	x21, x21, #0x9a0
  404790:	a90353f3 	stp	x19, x20, [sp, #48]
  404794:	f94002a5 	ldr	x5, [x21]
  404798:	f90057e5 	str	x5, [sp, #168]
  40479c:	d2800005 	mov	x5, #0x0                   	// #0
  4047a0:	a90563f7 	stp	x23, x24, [sp, #80]
  4047a4:	aa0303f6 	mov	x22, x3
  4047a8:	b0000457 	adrp	x23, 48d000 <_dl_main_map+0xa0>
  4047ac:	a9066bf9 	stp	x25, x26, [sp, #96]
  4047b0:	aa0003f8 	mov	x24, x0
  4047b4:	aa0103f9 	mov	x25, x1
  4047b8:	aa0203fa 	mov	x26, x2
  4047bc:	913ae2f7 	add	x23, x23, #0xeb8
  4047c0:	b4000064 	cbz	x4, 4047cc <_nl_find_domain+0x5c>
  4047c4:	aa1703e0 	mov	x0, x23
  4047c8:	d503201f 	nop
  4047cc:	aa1803e0 	mov	x0, x24
  4047d0:	97ffeecc 	bl	400300 <.plt+0x60>
  4047d4:	a9006bff 	stp	xzr, x26, [sp]
  4047d8:	91000402 	add	x2, x0, #0x1
  4047dc:	52800003 	mov	w3, #0x0                   	// #0
  4047e0:	b90013ff 	str	wzr, [sp, #16]
  4047e4:	aa1903e4 	mov	x4, x25
  4047e8:	aa1803e1 	mov	x1, x24
  4047ec:	9100e2e0 	add	x0, x23, #0x38
  4047f0:	d2800007 	mov	x7, #0x0                   	// #0
  4047f4:	d2800006 	mov	x6, #0x0                   	// #0
  4047f8:	d2800005 	mov	x5, #0x0                   	// #0
  4047fc:	940006af 	bl	4062b8 <_nl_make_l10nflist>
  404800:	b0000283 	adrp	x3, 455000 <cpu_list+0xb8>
  404804:	aa0003f3 	mov	x19, x0
  404808:	f9407074 	ldr	x20, [x3, #224]
  40480c:	b4000074 	cbz	x20, 404818 <_nl_find_domain+0xa8>
  404810:	aa1703e0 	mov	x0, x23
  404814:	d503201f 	nop
  404818:	b40004d3 	cbz	x19, 4048b0 <_nl_find_domain+0x140>
  40481c:	b9400a60 	ldr	w0, [x19, #8]
  404820:	7100001f 	cmp	w0, #0x0
  404824:	540003ed 	b.le	4048a0 <_nl_find_domain+0x130>
  404828:	f9400a60 	ldr	x0, [x19, #16]
  40482c:	b40001c0 	cbz	x0, 404864 <_nl_find_domain+0xf4>
  404830:	f94057e0 	ldr	x0, [sp, #168]
  404834:	f94002a1 	ldr	x1, [x21]
  404838:	eb010000 	subs	x0, x0, x1
  40483c:	d2800001 	mov	x1, #0x0                   	// #0
  404840:	54000da1 	b.ne	4049f4 <_nl_find_domain+0x284>  // b.any
  404844:	aa1303e0 	mov	x0, x19
  404848:	a9427bfd 	ldp	x29, x30, [sp, #32]
  40484c:	a94353f3 	ldp	x19, x20, [sp, #48]
  404850:	a9445bf5 	ldp	x21, x22, [sp, #64]
  404854:	a94563f7 	ldp	x23, x24, [sp, #80]
  404858:	a9466bf9 	ldp	x25, x26, [sp, #96]
  40485c:	9102c3ff 	add	sp, sp, #0xb0
  404860:	d65f03c0 	ret
  404864:	f9401260 	ldr	x0, [x19, #32]
  404868:	b4fffe40 	cbz	x0, 404830 <_nl_find_domain+0xc0>
  40486c:	91008274 	add	x20, x19, #0x20
  404870:	14000006 	b	404888 <_nl_find_domain+0x118>
  404874:	f9400280 	ldr	x0, [x20]
  404878:	f9400800 	ldr	x0, [x0, #16]
  40487c:	b5fffda0 	cbnz	x0, 404830 <_nl_find_domain+0xc0>
  404880:	f8408e80 	ldr	x0, [x20, #8]!
  404884:	b4fffd60 	cbz	x0, 404830 <_nl_find_domain+0xc0>
  404888:	b9400801 	ldr	w1, [x0, #8]
  40488c:	7100003f 	cmp	w1, #0x0
  404890:	54ffff2c 	b.gt	404874 <_nl_find_domain+0x104>
  404894:	aa1603e1 	mov	x1, x22
  404898:	9400005a 	bl	404a00 <_nl_load_domain>
  40489c:	17fffff6 	b	404874 <_nl_find_domain+0x104>
  4048a0:	aa1603e1 	mov	x1, x22
  4048a4:	aa1303e0 	mov	x0, x19
  4048a8:	94000056 	bl	404a00 <_nl_load_domain>
  4048ac:	17ffffdf 	b	404828 <_nl_find_domain+0xb8>
  4048b0:	aa1903e0 	mov	x0, x25
  4048b4:	a90773fb 	stp	x27, x28, [sp, #112]
  4048b8:	94000608 	bl	4060d8 <_nl_expand_alias>
  4048bc:	aa0003fc 	mov	x28, x0
  4048c0:	b4000140 	cbz	x0, 4048e8 <_nl_find_domain+0x178>
  4048c4:	97ffee8f 	bl	400300 <.plt+0x60>
  4048c8:	9100041b 	add	x27, x0, #0x1
  4048cc:	aa1b03e0 	mov	x0, x27
  4048d0:	94004198 	bl	414f30 <__libc_malloc>
  4048d4:	aa0003f9 	mov	x25, x0
  4048d8:	b40005c0 	cbz	x0, 404990 <_nl_find_domain+0x220>
  4048dc:	aa1b03e2 	mov	x2, x27
  4048e0:	aa1c03e1 	mov	x1, x28
  4048e4:	97ffee73 	bl	4002b0 <.plt+0x10>
  4048e8:	910283e5 	add	x5, sp, #0xa0
  4048ec:	910263e4 	add	x4, sp, #0x98
  4048f0:	910243e3 	add	x3, sp, #0x90
  4048f4:	910223e2 	add	x2, sp, #0x88
  4048f8:	910203e1 	add	x1, sp, #0x80
  4048fc:	aa1903e0 	mov	x0, x25
  404900:	9400081a 	bl	406968 <_nl_explode_name>
  404904:	2a0003fb 	mov	w27, w0
  404908:	3100041f 	cmn	w0, #0x1
  40490c:	54000420 	b.eq	404990 <_nl_find_domain+0x220>  // b.none
  404910:	b0000280 	adrp	x0, 455000 <cpu_list+0xb8>
  404914:	f9407400 	ldr	x0, [x0, #232]
  404918:	b4000060 	cbz	x0, 404924 <_nl_find_domain+0x1b4>
  40491c:	aa1703e0 	mov	x0, x23
  404920:	d503201f 	nop
  404924:	aa1803e0 	mov	x0, x24
  404928:	97ffee76 	bl	400300 <.plt+0x60>
  40492c:	91000402 	add	x2, x0, #0x1
  404930:	52800021 	mov	w1, #0x1                   	// #1
  404934:	a94803e4 	ldp	x4, x0, [sp, #128]
  404938:	a9006be0 	stp	x0, x26, [sp]
  40493c:	2a1b03e3 	mov	w3, w27
  404940:	a9491be5 	ldp	x5, x6, [sp, #144]
  404944:	b90013e1 	str	w1, [sp, #16]
  404948:	f94053e7 	ldr	x7, [sp, #160]
  40494c:	aa1803e1 	mov	x1, x24
  404950:	9100e2e0 	add	x0, x23, #0x38
  404954:	94000659 	bl	4062b8 <_nl_make_l10nflist>
  404958:	aa0003f3 	mov	x19, x0
  40495c:	b4000074 	cbz	x20, 404968 <_nl_find_domain+0x1f8>
  404960:	aa1703e0 	mov	x0, x23
  404964:	d503201f 	nop
  404968:	b4000133 	cbz	x19, 40498c <_nl_find_domain+0x21c>
  40496c:	b9400a60 	ldr	w0, [x19, #8]
  404970:	7100001f 	cmp	w0, #0x0
  404974:	5400038d 	b.le	4049e4 <_nl_find_domain+0x274>
  404978:	f9400a60 	ldr	x0, [x19, #16]
  40497c:	b4000160 	cbz	x0, 4049a8 <_nl_find_domain+0x238>
  404980:	b400007c 	cbz	x28, 40498c <_nl_find_domain+0x21c>
  404984:	aa1903e0 	mov	x0, x25
  404988:	940042e2 	bl	415510 <__free>
  40498c:	3700007b 	tbnz	w27, #0, 404998 <_nl_find_domain+0x228>
  404990:	a94773fb 	ldp	x27, x28, [sp, #112]
  404994:	17ffffa7 	b	404830 <_nl_find_domain+0xc0>
  404998:	f94053e0 	ldr	x0, [sp, #160]
  40499c:	940042dd 	bl	415510 <__free>
  4049a0:	a94773fb 	ldp	x27, x28, [sp, #112]
  4049a4:	17ffffa3 	b	404830 <_nl_find_domain+0xc0>
  4049a8:	f9401260 	ldr	x0, [x19, #32]
  4049ac:	b4fffea0 	cbz	x0, 404980 <_nl_find_domain+0x210>
  4049b0:	91008274 	add	x20, x19, #0x20
  4049b4:	14000006 	b	4049cc <_nl_find_domain+0x25c>
  4049b8:	f9400280 	ldr	x0, [x20]
  4049bc:	f9400800 	ldr	x0, [x0, #16]
  4049c0:	b5fffe00 	cbnz	x0, 404980 <_nl_find_domain+0x210>
  4049c4:	f8408e80 	ldr	x0, [x20, #8]!
  4049c8:	b4fffdc0 	cbz	x0, 404980 <_nl_find_domain+0x210>
  4049cc:	b9400801 	ldr	w1, [x0, #8]
  4049d0:	7100003f 	cmp	w1, #0x0
  4049d4:	54ffff2c 	b.gt	4049b8 <_nl_find_domain+0x248>
  4049d8:	aa1603e1 	mov	x1, x22
  4049dc:	94000009 	bl	404a00 <_nl_load_domain>
  4049e0:	17fffff6 	b	4049b8 <_nl_find_domain+0x248>
  4049e4:	aa1603e1 	mov	x1, x22
  4049e8:	aa1303e0 	mov	x0, x19
  4049ec:	94000005 	bl	404a00 <_nl_load_domain>
  4049f0:	17ffffe2 	b	404978 <_nl_find_domain+0x208>
  4049f4:	a90773fb 	stp	x27, x28, [sp, #112]
  4049f8:	94005f02 	bl	41c600 <__stack_chk_fail>
  4049fc:	d503201f 	nop

0000000000404a00 <_nl_load_domain>:
  404a00:	a9a67bfd 	stp	x29, x30, [sp, #-416]!
  404a04:	b0000446 	adrp	x6, 48d000 <_dl_main_map+0xa0>
  404a08:	f0000422 	adrp	x2, 48b000 <__FRAME_END__+0xf85c>
  404a0c:	910003fd 	mov	x29, sp
  404a10:	a90573fb 	stp	x27, x28, [sp, #80]
  404a14:	913be0db 	add	x27, x6, #0xef8
  404a18:	a9046bf9 	stp	x25, x26, [sp, #64]
  404a1c:	9126805a 	add	x26, x2, #0x9a0
  404a20:	f9400342 	ldr	x2, [x26]
  404a24:	f900cfe2 	str	x2, [sp, #408]
  404a28:	d2800002 	mov	x2, #0x0                   	// #0
  404a2c:	f9400762 	ldr	x2, [x27, #8]
  404a30:	a90153f3 	stp	x19, x20, [sp, #16]
  404a34:	d53bd054 	mrs	x20, tpidr_el0
  404a38:	a9025bf5 	stp	x21, x22, [sp, #32]
  404a3c:	d11c0293 	sub	x19, x20, #0x700
  404a40:	aa0003f6 	mov	x22, x0
  404a44:	a90363f7 	stp	x23, x24, [sp, #48]
  404a48:	eb13005f 	cmp	x2, x19
  404a4c:	aa0103f7 	mov	x23, x1
  404a50:	54000120 	b.eq	404a74 <_nl_load_domain+0x74>  // b.none
  404a54:	52800020 	mov	w0, #0x1                   	// #1
  404a58:	885fff61 	ldaxr	w1, [x27]
  404a5c:	35000061 	cbnz	w1, 404a68 <_nl_load_domain+0x68>
  404a60:	88027f60 	stxr	w2, w0, [x27]
  404a64:	35ffffa2 	cbnz	w2, 404a58 <_nl_load_domain+0x58>
  404a68:	7100003f 	cmp	w1, #0x0
  404a6c:	540012e1 	b.ne	404cc8 <_nl_load_domain+0x2c8>  // b.any
  404a70:	f9000773 	str	x19, [x27, #8]
  404a74:	b9400761 	ldr	w1, [x27, #4]
  404a78:	b9400ac0 	ldr	w0, [x22, #8]
  404a7c:	11000422 	add	w2, w1, #0x1
  404a80:	b9000762 	str	w2, [x27, #4]
  404a84:	35000d60 	cbnz	w0, 404c30 <_nl_load_domain+0x230>
  404a88:	f94002c0 	ldr	x0, [x22]
  404a8c:	12800002 	mov	w2, #0xffffffff            	// #-1
  404a90:	b9000ac2 	str	w2, [x22, #8]
  404a94:	f9000adf 	str	xzr, [x22, #16]
  404a98:	b4000c80 	cbz	x0, 404c28 <_nl_load_domain+0x228>
  404a9c:	52800001 	mov	w1, #0x0                   	// #0
  404aa0:	940058e0 	bl	41ae20 <__open64_nocancel>
  404aa4:	2a0003f3 	mov	w19, w0
  404aa8:	3100041f 	cmn	w0, #0x1
  404aac:	54000ee0 	b.eq	404c88 <_nl_load_domain+0x288>  // b.none
  404ab0:	2a0003e1 	mov	w1, w0
  404ab4:	910463e2 	add	x2, sp, #0x118
  404ab8:	52800000 	mov	w0, #0x0                   	// #0
  404abc:	94005617 	bl	41a318 <__fxstat>
  404ac0:	b90067e0 	str	w0, [sp, #100]
  404ac4:	35000de0 	cbnz	w0, 404c80 <_nl_load_domain+0x280>
  404ac8:	f940a7f9 	ldr	x25, [sp, #328]
  404acc:	f100bf3f 	cmp	x25, #0x2f
  404ad0:	54000d89 	b.ls	404c80 <_nl_load_domain+0x280>  // b.plast
  404ad4:	2a1303e4 	mov	w4, w19
  404ad8:	aa1903e1 	mov	x1, x25
  404adc:	d2800005 	mov	x5, #0x0                   	// #0
  404ae0:	52800043 	mov	w3, #0x2                   	// #2
  404ae4:	52800022 	mov	w2, #0x1                   	// #1
  404ae8:	d2800000 	mov	x0, #0x0                   	// #0
  404aec:	940059ad 	bl	41b1a0 <__mmap64>
  404af0:	aa0003fc 	mov	x28, x0
  404af4:	b100041f 	cmn	x0, #0x1
  404af8:	54002da0 	b.eq	4050ac <_nl_load_domain+0x6ac>  // b.none
  404afc:	2a1303e0 	mov	w0, w19
  404b00:	94005870 	bl	41acc0 <__close_nocancel>
  404b04:	b9400398 	ldr	w24, [x28]
  404b08:	52825bc1 	mov	w1, #0x12de                	// #4830
  404b0c:	72b2a081 	movk	w1, #0x9504, lsl #16
  404b10:	528092a0 	mov	w0, #0x495                 	// #1173
  404b14:	6b01031f 	cmp	w24, w1
  404b18:	72bbc240 	movk	w0, #0xde12, lsl #16
  404b1c:	1a9f07f3 	cset	w19, ne  // ne = any
  404b20:	7100027f 	cmp	w19, #0x0
  404b24:	7a401304 	ccmp	w24, w0, #0x4, ne  // ne = any
  404b28:	54002561 	b.ne	404fd4 <_nl_load_domain+0x5d4>  // b.any
  404b2c:	52800020 	mov	w0, #0x1                   	// #1
  404b30:	b90067e0 	str	w0, [sp, #100]
  404b34:	d2801900 	mov	x0, #0xc8                  	// #200
  404b38:	940040fe 	bl	414f30 <__libc_malloc>
  404b3c:	aa0003f5 	mov	x21, x0
  404b40:	b4000a40 	cbz	x0, 404c88 <_nl_load_domain+0x288>
  404b44:	52825bc0 	mov	w0, #0x12de                	// #4830
  404b48:	b94067e1 	ldr	w1, [sp, #100]
  404b4c:	72b2a080 	movk	w0, #0x9504, lsl #16
  404b50:	6b00031f 	cmp	w24, w0
  404b54:	b9400780 	ldr	w0, [x28, #4]
  404b58:	f90002bc 	str	x28, [x21]
  404b5c:	b9000aa1 	str	w1, [x21, #8]
  404b60:	f9000ab9 	str	x25, [x21, #16]
  404b64:	f9000ad5 	str	x21, [x22, #16]
  404b68:	b9001ab3 	str	w19, [x21, #24]
  404b6c:	f90012bf 	str	xzr, [x21, #32]
  404b70:	54000ca0 	b.eq	404d04 <_nl_load_domain+0x304>  // b.none
  404b74:	5ac00800 	rev	w0, w0
  404b78:	13107c01 	asr	w1, w0, #16
  404b7c:	7100043f 	cmp	w1, #0x1
  404b80:	54000aa8 	b.hi	404cd4 <_nl_load_domain+0x2d4>  // b.pmore
  404b84:	29410b84 	ldp	w4, w2, [x28, #8]
  404b88:	12003c00 	and	w0, w0, #0xffff
  404b8c:	29422781 	ldp	w1, w9, [x28, #16]
  404b90:	5ac00842 	rev	w2, w2
  404b94:	8b020382 	add	x2, x28, x2
  404b98:	5ac00884 	rev	w4, w4
  404b9c:	5ac00821 	rev	w1, w1
  404ba0:	5ac00923 	rev	w3, w9
  404ba4:	8b010381 	add	x1, x28, x1
  404ba8:	b9002aa4 	str	w4, [x21, #40]
  404bac:	a90306a2 	stp	x2, x1, [x21, #48]
  404bb0:	7100087f 	cmp	w3, #0x2
  404bb4:	b9005aa3 	str	w3, [x21, #88]
  404bb8:	b9006be3 	str	w3, [sp, #104]
  404bbc:	54000de8 	b.hi	404d78 <_nl_load_domain+0x378>  // b.pmore
  404bc0:	f90032bf 	str	xzr, [x21, #96]
  404bc4:	b9006ab3 	str	w19, [x21, #104]
  404bc8:	35000860 	cbnz	w0, 404cd4 <_nl_load_domain+0x2d4>
  404bcc:	b90042bf 	str	wzr, [x21, #64]
  404bd0:	a904febf 	stp	xzr, xzr, [x21, #72]
  404bd4:	b0000280 	adrp	x0, 455000 <cpu_list+0xb8>
  404bd8:	a9077ebf 	stp	xzr, xzr, [x21, #112]
  404bdc:	f940a400 	ldr	x0, [x0, #328]
  404be0:	b4000080 	cbz	x0, 404bf0 <_nl_load_domain+0x1f0>
  404be4:	910202a0 	add	x0, x21, #0x80
  404be8:	d2800001 	mov	x1, #0x0                   	// #0
  404bec:	d503201f 	nop
  404bf0:	aa1703e1 	mov	x1, x23
  404bf4:	910403e4 	add	x4, sp, #0x100
  404bf8:	aa1603e0 	mov	x0, x22
  404bfc:	f0000302 	adrp	x2, 467000 <_nl_C_name>
  404c00:	52800003 	mov	w3, #0x0                   	// #0
  404c04:	910cc042 	add	x2, x2, #0x330
  404c08:	97fffa86 	bl	403620 <_nl_find_msg>
  404c0c:	b100041f 	cmn	x0, #0x1
  404c10:	54002de0 	b.eq	4051cc <_nl_load_domain+0x7cc>  // b.none
  404c14:	9102e2a1 	add	x1, x21, #0xb8
  404c18:	910302a2 	add	x2, x21, #0xc0
  404c1c:	940009fd 	bl	407410 <__gettext_extract_plural>
  404c20:	b9400761 	ldr	w1, [x27, #4]
  404c24:	51000421 	sub	w1, w1, #0x1
  404c28:	52800020 	mov	w0, #0x1                   	// #1
  404c2c:	b9000ac0 	str	w0, [x22, #8]
  404c30:	b9000761 	str	w1, [x27, #4]
  404c34:	34000301 	cbz	w1, 404c94 <_nl_load_domain+0x294>
  404c38:	f940cfe0 	ldr	x0, [sp, #408]
  404c3c:	f9400341 	ldr	x1, [x26]
  404c40:	eb010000 	subs	x0, x0, x1
  404c44:	d2800001 	mov	x1, #0x0                   	// #0
  404c48:	54006141 	b.ne	405870 <_nl_load_domain+0xe70>  // b.any
  404c4c:	a94153f3 	ldp	x19, x20, [sp, #16]
  404c50:	a9425bf5 	ldp	x21, x22, [sp, #32]
  404c54:	a94363f7 	ldp	x23, x24, [sp, #48]
  404c58:	a9446bf9 	ldp	x25, x26, [sp, #64]
  404c5c:	a94573fb 	ldp	x27, x28, [sp, #80]
  404c60:	a8da7bfd 	ldp	x29, x30, [sp], #416
  404c64:	d65f03c0 	ret
  404c68:	b100041f 	cmn	x0, #0x1
  404c6c:	540000a1 	b.ne	404c80 <_nl_load_domain+0x280>  // b.any
  404c70:	f94037e0 	ldr	x0, [sp, #104]
  404c74:	b8606a80 	ldr	w0, [x20, x0]
  404c78:	7100101f 	cmp	w0, #0x4
  404c7c:	540022a0 	b.eq	4050d0 <_nl_load_domain+0x6d0>  // b.none
  404c80:	2a1303e0 	mov	w0, w19
  404c84:	9400580f 	bl	41acc0 <__close_nocancel>
  404c88:	b9400761 	ldr	w1, [x27, #4]
  404c8c:	51000421 	sub	w1, w1, #0x1
  404c90:	17ffffe6 	b	404c28 <_nl_load_domain+0x228>
  404c94:	f900077f 	str	xzr, [x27, #8]
  404c98:	885f7f60 	ldxr	w0, [x27]
  404c9c:	8801ff7f 	stlxr	w1, wzr, [x27]
  404ca0:	35ffffc1 	cbnz	w1, 404c98 <_nl_load_domain+0x298>
  404ca4:	7100041f 	cmp	w0, #0x1
  404ca8:	54fffc8d 	b.le	404c38 <_nl_load_domain+0x238>
  404cac:	aa1b03e0 	mov	x0, x27
  404cb0:	d2801021 	mov	x1, #0x81                  	// #129
  404cb4:	d2800022 	mov	x2, #0x1                   	// #1
  404cb8:	d2800003 	mov	x3, #0x0                   	// #0
  404cbc:	d2800c48 	mov	x8, #0x62                  	// #98
  404cc0:	d4000001 	svc	#0x0
  404cc4:	17ffffdd 	b	404c38 <_nl_load_domain+0x238>
  404cc8:	aa1b03e0 	mov	x0, x27
  404ccc:	94002f31 	bl	410990 <__lll_lock_wait_private>
  404cd0:	17ffff68 	b	404a70 <_nl_load_domain+0x70>
  404cd4:	d2800000 	mov	x0, #0x0                   	// #0
  404cd8:	9400420e 	bl	415510 <__free>
  404cdc:	b94067e0 	ldr	w0, [sp, #100]
  404ce0:	35000440 	cbnz	w0, 404d68 <_nl_load_domain+0x368>
  404ce4:	aa1c03e0 	mov	x0, x28
  404ce8:	9400420a 	bl	415510 <__free>
  404cec:	aa1503e0 	mov	x0, x21
  404cf0:	94004208 	bl	415510 <__free>
  404cf4:	b9400761 	ldr	w1, [x27, #4]
  404cf8:	f9000adf 	str	xzr, [x22, #16]
  404cfc:	51000421 	sub	w1, w1, #0x1
  404d00:	17ffffca 	b	404c28 <_nl_load_domain+0x228>
  404d04:	13107c01 	asr	w1, w0, #16
  404d08:	7100043f 	cmp	w1, #0x1
  404d0c:	54fffe48 	b.hi	404cd4 <_nl_load_domain+0x2d4>  // b.pmore
  404d10:	29420f81 	ldp	w1, w3, [x28, #16]
  404d14:	b9006be3 	str	w3, [sp, #104]
  404d18:	29410b84 	ldp	w4, w2, [x28, #8]
  404d1c:	8b010381 	add	x1, x28, x1
  404d20:	b9002aa4 	str	w4, [x21, #40]
  404d24:	12003c00 	and	w0, w0, #0xffff
  404d28:	8b020382 	add	x2, x28, x2
  404d2c:	a90306a2 	stp	x2, x1, [x21, #48]
  404d30:	7100087f 	cmp	w3, #0x2
  404d34:	b9005aa3 	str	w3, [x21, #88]
  404d38:	54fff449 	b.ls	404bc0 <_nl_load_domain+0x1c0>  // b.plast
  404d3c:	b9401b81 	ldr	w1, [x28, #24]
  404d40:	b9006ab3 	str	w19, [x21, #104]
  404d44:	8b010381 	add	x1, x28, x1
  404d48:	f90032a1 	str	x1, [x21, #96]
  404d4c:	f90047e1 	str	x1, [sp, #136]
  404d50:	34fff3e0 	cbz	w0, 404bcc <_nl_load_domain+0x1cc>
  404d54:	b9402794 	ldr	w20, [x28, #36]
  404d58:	34fff3b4 	cbz	w20, 404bcc <_nl_load_domain+0x1cc>
  404d5c:	2943cf80 	ldp	w0, w19, [x28, #28]
  404d60:	b90073e0 	str	w0, [sp, #112]
  404d64:	14000013 	b	404db0 <_nl_load_domain+0x3b0>
  404d68:	aa1903e1 	mov	x1, x25
  404d6c:	aa1c03e0 	mov	x0, x28
  404d70:	94005924 	bl	41b200 <__munmap>
  404d74:	17ffffde 	b	404cec <_nl_load_domain+0x2ec>
  404d78:	b9401b81 	ldr	w1, [x28, #24]
  404d7c:	b9006ab3 	str	w19, [x21, #104]
  404d80:	5ac00821 	rev	w1, w1
  404d84:	8b010381 	add	x1, x28, x1
  404d88:	f90032a1 	str	x1, [x21, #96]
  404d8c:	f90047e1 	str	x1, [sp, #136]
  404d90:	34fff1e0 	cbz	w0, 404bcc <_nl_load_domain+0x1cc>
  404d94:	b9402780 	ldr	w0, [x28, #36]
  404d98:	5ac00814 	rev	w20, w0
  404d9c:	34fff180 	cbz	w0, 404bcc <_nl_load_domain+0x1cc>
  404da0:	2943cf80 	ldp	w0, w19, [x28, #28]
  404da4:	5ac00a73 	rev	w19, w19
  404da8:	5ac00800 	rev	w0, w0
  404dac:	b90073e0 	str	w0, [sp, #112]
  404db0:	b94073e0 	ldr	w0, [sp, #112]
  404db4:	d2800101 	mov	x1, #0x8                   	// #8
  404db8:	8b130393 	add	x19, x28, x19
  404dbc:	94004381 	bl	415bc0 <__calloc>
  404dc0:	f90043e0 	str	x0, [sp, #128]
  404dc4:	b4fff880 	cbz	x0, 404cd4 <_nl_load_domain+0x2d4>
  404dc8:	b94073e0 	ldr	w0, [sp, #112]
  404dcc:	340007a0 	cbz	w0, 404ec0 <_nl_load_domain+0x4c0>
  404dd0:	b94073e0 	ldr	w0, [sp, #112]
  404dd4:	b0000281 	adrp	x1, 455000 <cpu_list+0xb8>
  404dd8:	f94043ed 	ldr	x13, [sp, #128]
  404ddc:	51000409 	sub	w9, w0, #0x1
  404de0:	b0000280 	adrp	x0, 455000 <cpu_list+0xb8>
  404de4:	91040000 	add	x0, x0, #0x100
  404de8:	91000529 	add	x9, x9, #0x1
  404dec:	f9004be0 	str	x0, [sp, #144]
  404df0:	b0000280 	adrp	x0, 455000 <cpu_list+0xb8>
  404df4:	9104a007 	add	x7, x0, #0x128
  404df8:	b0000280 	adrp	x0, 455000 <cpu_list+0xb8>
  404dfc:	9104c028 	add	x8, x1, #0x130
  404e00:	9103e005 	add	x5, x0, #0xf8
  404e04:	b000028c 	adrp	x12, 455000 <cpu_list+0xb8>
  404e08:	b0000280 	adrp	x0, 455000 <cpu_list+0xb8>
  404e0c:	b0000290 	adrp	x16, 455000 <cpu_list+0xb8>
  404e10:	b000028f 	adrp	x15, 455000 <cpu_list+0xb8>
  404e14:	b000028e 	adrp	x14, 455000 <cpu_list+0xb8>
  404e18:	90000341 	adrp	x1, 46c000 <__PRETTY_FUNCTION__.16206+0xc28>
  404e1c:	b000029e 	adrp	x30, 455000 <cpu_list+0xb8>
  404e20:	52825bca 	mov	w10, #0x12de                	// #4830
  404e24:	9105018c 	add	x12, x12, #0x140
  404e28:	91042210 	add	x16, x16, #0x108
  404e2c:	910481ef 	add	x15, x15, #0x120
  404e30:	910461ce 	add	x14, x14, #0x118
  404e34:	9130e026 	add	x6, x1, #0xc38
  404e38:	910443de 	add	x30, x30, #0x110
  404e3c:	9100126b 	add	x11, x19, #0x4
  404e40:	d37df129 	lsl	x9, x9, #3
  404e44:	9103c004 	add	x4, x0, #0xf0
  404e48:	d2800002 	mov	x2, #0x0                   	// #0
  404e4c:	b0000280 	adrp	x0, 455000 <cpu_list+0xb8>
  404e50:	72b2a08a 	movk	w10, #0x9504, lsl #16
  404e54:	9104e000 	add	x0, x0, #0x138
  404e58:	b9007bf4 	str	w20, [sp, #120]
  404e5c:	f9004fe0 	str	x0, [sp, #152]
  404e60:	b8626960 	ldr	w0, [x11, x2]
  404e64:	6b0a031f 	cmp	w24, w10
  404e68:	b8626a61 	ldr	w1, [x19, x2]
  404e6c:	54000c00 	b.eq	404fec <_nl_load_domain+0x5ec>  // b.none
  404e70:	5ac00800 	rev	w0, w0
  404e74:	5ac00821 	rev	w1, w1
  404e78:	8b000380 	add	x0, x28, x0
  404e7c:	340016c1 	cbz	w1, 405154 <_nl_load_domain+0x754>
  404e80:	51000421 	sub	w1, w1, #0x1
  404e84:	38614801 	ldrb	w1, [x0, w1, uxtw]
  404e88:	35001661 	cbnz	w1, 405154 <_nl_load_domain+0x754>
  404e8c:	39400001 	ldrb	w1, [x0]
  404e90:	7101403f 	cmp	w1, #0x50
  404e94:	54000b00 	b.eq	404ff4 <_nl_load_domain+0x5f4>  // b.none
  404e98:	7101243f 	cmp	w1, #0x49
  404e9c:	54001641 	b.ne	405164 <_nl_load_domain+0x764>  // b.any
  404ea0:	39400400 	ldrb	w0, [x0, #1]
  404ea4:	7100001f 	cmp	w0, #0x0
  404ea8:	9a9f0181 	csel	x1, x12, xzr, eq  // eq = none
  404eac:	f82269a1 	str	x1, [x13, x2]
  404eb0:	91002042 	add	x2, x2, #0x8
  404eb4:	eb02013f 	cmp	x9, x2
  404eb8:	54fffd41 	b.ne	404e60 <_nl_load_domain+0x460>  // b.any
  404ebc:	b9407bf4 	ldr	w20, [sp, #120]
  404ec0:	52825bc0 	mov	w0, #0x12de                	// #4830
  404ec4:	72b2a080 	movk	w0, #0x9504, lsl #16
  404ec8:	6b00031f 	cmp	w24, w0
  404ecc:	29450780 	ldp	w0, w1, [x28, #40]
  404ed0:	540018c0 	b.eq	4051e8 <_nl_load_domain+0x7e8>  // b.none
  404ed4:	5ac00800 	rev	w0, w0
  404ed8:	5ac00821 	rev	w1, w1
  404edc:	8b000382 	add	x2, x28, x0
  404ee0:	f94037e3 	ldr	x3, [sp, #104]
  404ee4:	51000680 	sub	w0, w20, #0x1
  404ee8:	8b010381 	add	x1, x28, x1
  404eec:	91000400 	add	x0, x0, #0x1
  404ef0:	a90b5ff5 	stp	x21, x23, [sp, #176]
  404ef4:	aa0203f7 	mov	x23, x2
  404ef8:	d37e7c63 	ubfiz	x3, x3, #2, #32
  404efc:	f94043f5 	ldr	x21, [sp, #128]
  404f00:	a90a67e3 	stp	x3, x25, [sp, #160]
  404f04:	aa0103f9 	mov	x25, x1
  404f08:	b94073f4 	ldr	w20, [sp, #112]
  404f0c:	8b000840 	add	x0, x2, x0, lsl #2
  404f10:	a90773f6 	stp	x22, x28, [sp, #112]
  404f14:	f9004be0 	str	x0, [sp, #144]
  404f18:	b9009bff 	str	wzr, [sp, #152]
  404f1c:	a90c07e3 	stp	x3, x1, [sp, #192]
  404f20:	f9006be2 	str	x2, [sp, #208]
  404f24:	d503201f 	nop
  404f28:	d2800013 	mov	x19, #0x0                   	// #0
  404f2c:	52825bc0 	mov	w0, #0x12de                	// #4830
  404f30:	72b2a080 	movk	w0, #0x9504, lsl #16
  404f34:	6b00031f 	cmp	w24, w0
  404f38:	54001000 	b.eq	405138 <_nl_load_domain+0x738>  // b.none
  404f3c:	f100027f 	cmp	x19, #0x0
  404f40:	9a9902e0 	csel	x0, x23, x25, eq  // eq = none
  404f44:	b9400001 	ldr	w1, [x0]
  404f48:	5ac00821 	rev	w1, w1
  404f4c:	f9403fe0 	ldr	x0, [sp, #120]
  404f50:	d2800016 	mov	x22, #0x0                   	// #0
  404f54:	8b010001 	add	x1, x0, x1
  404f58:	b9400820 	ldr	w0, [x1, #8]
  404f5c:	3100041f 	cmn	w0, #0x1
  404f60:	1a9f07e0 	cset	w0, ne  // ne = any
  404f64:	35001040 	cbnz	w0, 40516c <_nl_load_domain+0x76c>
  404f68:	910423e0 	add	x0, sp, #0x108
  404f6c:	f8337816 	str	x22, [x0, x19, lsl #3]
  404f70:	b4000eb3 	cbz	x19, 405144 <_nl_load_domain+0x744>
  404f74:	b9409be1 	ldr	w1, [sp, #152]
  404f78:	f94087e0 	ldr	x0, [sp, #264]
  404f7c:	11000421 	add	w1, w1, #0x1
  404f80:	b9009be1 	str	w1, [sp, #152]
  404f84:	f9408be1 	ldr	x1, [sp, #272]
  404f88:	8b010000 	add	x0, x0, x1
  404f8c:	f94053e1 	ldr	x1, [sp, #160]
  404f90:	8b000020 	add	x0, x1, x0
  404f94:	f90053e0 	str	x0, [sp, #160]
  404f98:	f9404be0 	ldr	x0, [sp, #144]
  404f9c:	910012f7 	add	x23, x23, #0x4
  404fa0:	91001339 	add	x25, x25, #0x4
  404fa4:	eb17001f 	cmp	x0, x23
  404fa8:	54fffc01 	b.ne	404f28 <_nl_load_domain+0x528>  // b.any
  404fac:	b9409bf3 	ldr	w19, [sp, #152]
  404fb0:	a94773f6 	ldp	x22, x28, [sp, #112]
  404fb4:	a94ad7f9 	ldp	x25, x21, [sp, #168]
  404fb8:	f9405ff7 	ldr	x23, [sp, #184]
  404fbc:	350027b3 	cbnz	w19, 4054b0 <_nl_load_domain+0xab0>
  404fc0:	b90042bf 	str	wzr, [x21, #64]
  404fc4:	a904febf 	stp	xzr, xzr, [x21, #72]
  404fc8:	f94043e0 	ldr	x0, [sp, #128]
  404fcc:	94004151 	bl	415510 <__free>
  404fd0:	17ffff01 	b	404bd4 <_nl_load_domain+0x1d4>
  404fd4:	aa1903e1 	mov	x1, x25
  404fd8:	aa1c03e0 	mov	x0, x28
  404fdc:	94005889 	bl	41b200 <__munmap>
  404fe0:	b9400761 	ldr	w1, [x27, #4]
  404fe4:	51000421 	sub	w1, w1, #0x1
  404fe8:	17ffff10 	b	404c28 <_nl_load_domain+0x228>
  404fec:	8b204380 	add	x0, x28, w0, uxtw
  404ff0:	17ffffa3 	b	404e7c <_nl_load_domain+0x47c>
  404ff4:	39400411 	ldrb	w17, [x0, #1]
  404ff8:	d2800001 	mov	x1, #0x0                   	// #0
  404ffc:	71014a3f 	cmp	w17, #0x52
  405000:	54fff561 	b.ne	404eac <_nl_load_domain+0x4ac>  // b.any
  405004:	39400811 	ldrb	w17, [x0, #2]
  405008:	7101263f 	cmp	w17, #0x49
  40500c:	54fff501 	b.ne	404eac <_nl_load_domain+0x4ac>  // b.any
  405010:	39400c11 	ldrb	w17, [x0, #3]
  405014:	7101923f 	cmp	w17, #0x64
  405018:	121a7a32 	and	w18, w17, #0xffffffdf
  40501c:	1a9f17f4 	cset	w20, eq  // eq = none
  405020:	7101a63f 	cmp	w17, #0x69
  405024:	1a9f1694 	csinc	w20, w20, wzr, ne  // ne = any
  405028:	7101be3f 	cmp	w17, #0x6f
  40502c:	1a9f1683 	csinc	w3, w20, wzr, ne  // ne = any
  405030:	7101d63f 	cmp	w17, #0x75
  405034:	b900a3e3 	str	w3, [sp, #160]
  405038:	1a9f1463 	csinc	w3, w3, wzr, ne  // ne = any
  40503c:	7101625f 	cmp	w18, #0x58
  405040:	7a401860 	ccmp	w3, #0x0, #0x0, ne  // ne = any
  405044:	54fff340 	b.eq	404eac <_nl_load_domain+0x4ac>  // b.none
  405048:	39401012 	ldrb	w18, [x0, #4]
  40504c:	7100e25f 	cmp	w18, #0x38
  405050:	54001c00 	b.eq	4053d0 <_nl_load_domain+0x9d0>  // b.none
  405054:	7100c65f 	cmp	w18, #0x31
  405058:	54001da0 	b.eq	40540c <_nl_load_domain+0xa0c>  // b.none
  40505c:	7100ce5f 	cmp	w18, #0x33
  405060:	54000ca1 	b.ne	4051f4 <_nl_load_domain+0x7f4>  // b.any
  405064:	39401412 	ldrb	w18, [x0, #5]
  405068:	7100ca5f 	cmp	w18, #0x32
  40506c:	54fff201 	b.ne	404eac <_nl_load_domain+0x4ac>  // b.any
  405070:	39401800 	ldrb	w0, [x0, #6]
  405074:	35004000 	cbnz	w0, 405874 <_nl_load_domain+0xe74>
  405078:	7101923f 	cmp	w17, #0x64
  40507c:	540041c0 	b.eq	4058b4 <_nl_load_domain+0xeb4>  // b.none
  405080:	35004174 	cbnz	w20, 4058ac <_nl_load_domain+0xeac>
  405084:	b940a3e0 	ldr	w0, [sp, #160]
  405088:	350044a0 	cbnz	w0, 40591c <_nl_load_domain+0xf1c>
  40508c:	35004443 	cbnz	w3, 405914 <_nl_load_domain+0xf14>
  405090:	7101e23f 	cmp	w17, #0x78
  405094:	54004600 	b.eq	405954 <_nl_load_domain+0xf54>  // b.none
  405098:	7101623f 	cmp	w17, #0x58
  40509c:	54005f61 	b.ne	405c88 <_nl_load_domain+0x1288>  // b.any
  4050a0:	d0000301 	adrp	x1, 467000 <_nl_C_name>
  4050a4:	910c0021 	add	x1, x1, #0x300
  4050a8:	17ffff81 	b	404eac <_nl_load_domain+0x4ac>
  4050ac:	aa1903e0 	mov	x0, x25
  4050b0:	94003fa0 	bl	414f30 <__libc_malloc>
  4050b4:	aa0003fc 	mov	x28, x0
  4050b8:	b4ffde40 	cbz	x0, 404c80 <_nl_load_domain+0x280>
  4050bc:	aa0003f5 	mov	x21, x0
  4050c0:	aa1903f8 	mov	x24, x25
  4050c4:	d0000420 	adrp	x0, 48b000 <__FRAME_END__+0xf85c>
  4050c8:	f947c400 	ldr	x0, [x0, #3976]
  4050cc:	f90037e0 	str	x0, [sp, #104]
  4050d0:	aa1803e2 	mov	x2, x24
  4050d4:	aa1503e1 	mov	x1, x21
  4050d8:	2a1303e0 	mov	w0, w19
  4050dc:	940057b1 	bl	41afa0 <__read_nocancel>
  4050e0:	f100001f 	cmp	x0, #0x0
  4050e4:	54ffdc2d 	b.le	404c68 <_nl_load_domain+0x268>
  4050e8:	8b0002b5 	add	x21, x21, x0
  4050ec:	eb000318 	subs	x24, x24, x0
  4050f0:	54ffff01 	b.ne	4050d0 <_nl_load_domain+0x6d0>  // b.any
  4050f4:	2a1303e0 	mov	w0, w19
  4050f8:	940056f2 	bl	41acc0 <__close_nocancel>
  4050fc:	b9400398 	ldr	w24, [x28]
  405100:	52825bc1 	mov	w1, #0x12de                	// #4830
  405104:	72b2a081 	movk	w1, #0x9504, lsl #16
  405108:	528092a0 	mov	w0, #0x495                 	// #1173
  40510c:	6b01031f 	cmp	w24, w1
  405110:	72bbc240 	movk	w0, #0xde12, lsl #16
  405114:	1a9f07f3 	cset	w19, ne  // ne = any
  405118:	7100027f 	cmp	w19, #0x0
  40511c:	7a401304 	ccmp	w24, w0, #0x4, ne  // ne = any
  405120:	54ffd0a0 	b.eq	404b34 <_nl_load_domain+0x134>  // b.none
  405124:	aa1c03e0 	mov	x0, x28
  405128:	940040fa 	bl	415510 <__free>
  40512c:	b9400761 	ldr	w1, [x27, #4]
  405130:	51000421 	sub	w1, w1, #0x1
  405134:	17fffebd 	b	404c28 <_nl_load_domain+0x228>
  405138:	b4000473 	cbz	x19, 4051c4 <_nl_load_domain+0x7c4>
  40513c:	b9400321 	ldr	w1, [x25]
  405140:	17ffff83 	b	404f4c <_nl_load_domain+0x54c>
  405144:	d2800033 	mov	x19, #0x1                   	// #1
  405148:	17ffff79 	b	404f2c <_nl_load_domain+0x52c>
  40514c:	a94773f6 	ldp	x22, x28, [sp, #112]
  405150:	a94ad7f9 	ldp	x25, x21, [sp, #168]
  405154:	f94043e0 	ldr	x0, [sp, #128]
  405158:	940040ee 	bl	415510 <__free>
  40515c:	d2800000 	mov	x0, #0x0                   	// #0
  405160:	17fffede 	b	404cd8 <_nl_load_domain+0x2d8>
  405164:	d2800001 	mov	x1, #0x0                   	// #0
  405168:	17ffff51 	b	404eac <_nl_load_domain+0x4ac>
  40516c:	9100103c 	add	x28, x1, #0x4
  405170:	d2800003 	mov	x3, #0x0                   	// #0
  405174:	1400000d 	b	4051a8 <_nl_load_domain+0x7a8>
  405178:	5ac00800 	rev	w0, w0
  40517c:	5ac00842 	rev	w2, w2
  405180:	8b030016 	add	x22, x0, x3
  405184:	3100045f 	cmn	w2, #0x1
  405188:	54ffef00 	b.eq	404f68 <_nl_load_domain+0x568>  // b.none
  40518c:	6b14005f 	cmp	w2, w20
  405190:	54fffde2 	b.cs	40514c <_nl_load_domain+0x74c>  // b.hs, b.nlast
  405194:	f8625aa0 	ldr	x0, [x21, w2, uxtw #3]
  405198:	b4fff000 	cbz	x0, 404f98 <_nl_load_domain+0x598>
  40519c:	97ffec59 	bl	400300 <.plt+0x60>
  4051a0:	9100239c 	add	x28, x28, #0x8
  4051a4:	8b160003 	add	x3, x0, x22
  4051a8:	52825bc0 	mov	w0, #0x12de                	// #4830
  4051ac:	72b2a080 	movk	w0, #0x9504, lsl #16
  4051b0:	6b00031f 	cmp	w24, w0
  4051b4:	29400b80 	ldp	w0, w2, [x28]
  4051b8:	54fffe01 	b.ne	405178 <_nl_load_domain+0x778>  // b.any
  4051bc:	8b204076 	add	x22, x3, w0, uxtw
  4051c0:	17fffff1 	b	405184 <_nl_load_domain+0x784>
  4051c4:	b94002e1 	ldr	w1, [x23]
  4051c8:	17ffff61 	b	404f4c <_nl_load_domain+0x54c>
  4051cc:	90000280 	adrp	x0, 455000 <cpu_list+0xb8>
  4051d0:	f940a800 	ldr	x0, [x0, #336]
  4051d4:	b4000060 	cbz	x0, 4051e0 <_nl_load_domain+0x7e0>
  4051d8:	910202a0 	add	x0, x21, #0x80
  4051dc:	d503201f 	nop
  4051e0:	f94012a0 	ldr	x0, [x21, #32]
  4051e4:	17fffebd 	b	404cd8 <_nl_load_domain+0x2d8>
  4051e8:	8b204382 	add	x2, x28, w0, uxtw
  4051ec:	2a0103e1 	mov	w1, w1
  4051f0:	17ffff3c 	b	404ee0 <_nl_load_domain+0x4e0>
  4051f4:	7100da5f 	cmp	w18, #0x36
  4051f8:	54000261 	b.ne	405244 <_nl_load_domain+0x844>  // b.any
  4051fc:	39401412 	ldrb	w18, [x0, #5]
  405200:	d2800001 	mov	x1, #0x0                   	// #0
  405204:	7100d25f 	cmp	w18, #0x34
  405208:	54ffe521 	b.ne	404eac <_nl_load_domain+0x4ac>  // b.any
  40520c:	39401800 	ldrb	w0, [x0, #6]
  405210:	35ffe4e0 	cbnz	w0, 404eac <_nl_load_domain+0x4ac>
  405214:	7101923f 	cmp	w17, #0x64
  405218:	54003560 	b.eq	4058c4 <_nl_load_domain+0xec4>  // b.none
  40521c:	35003514 	cbnz	w20, 4058bc <_nl_load_domain+0xebc>
  405220:	b940a3e0 	ldr	w0, [sp, #160]
  405224:	35003840 	cbnz	w0, 40592c <_nl_load_domain+0xf2c>
  405228:	350037e3 	cbnz	w3, 405924 <_nl_load_domain+0xf24>
  40522c:	7101e23f 	cmp	w17, #0x78
  405230:	54003660 	b.eq	4058fc <_nl_load_domain+0xefc>  // b.none
  405234:	7101623f 	cmp	w17, #0x58
  405238:	54005281 	b.ne	405c88 <_nl_load_domain+0x1288>  // b.any
  40523c:	aa0703e1 	mov	x1, x7
  405240:	17ffff1b 	b	404eac <_nl_load_domain+0x4ac>
  405244:	7101325f 	cmp	w18, #0x4c
  405248:	540004e1 	b.ne	4052e4 <_nl_load_domain+0x8e4>  // b.any
  40524c:	39401412 	ldrb	w18, [x0, #5]
  405250:	d2800001 	mov	x1, #0x0                   	// #0
  405254:	7101165f 	cmp	w18, #0x45
  405258:	54ffe2a1 	b.ne	404eac <_nl_load_domain+0x4ac>  // b.any
  40525c:	39401812 	ldrb	w18, [x0, #6]
  405260:	7101065f 	cmp	w18, #0x41
  405264:	54ffe241 	b.ne	404eac <_nl_load_domain+0x4ac>  // b.any
  405268:	39401c12 	ldrb	w18, [x0, #7]
  40526c:	71014e5f 	cmp	w18, #0x53
  405270:	54ffe1e1 	b.ne	404eac <_nl_load_domain+0x4ac>  // b.any
  405274:	39402012 	ldrb	w18, [x0, #8]
  405278:	7101525f 	cmp	w18, #0x54
  40527c:	54ffe181 	b.ne	404eac <_nl_load_domain+0x4ac>  // b.any
  405280:	39402412 	ldrb	w18, [x0, #9]
  405284:	7100e25f 	cmp	w18, #0x38
  405288:	54003c80 	b.eq	405a18 <_nl_load_domain+0x1018>  // b.none
  40528c:	7100c65f 	cmp	w18, #0x31
  405290:	54003a00 	b.eq	4059d0 <_nl_load_domain+0xfd0>  // b.none
  405294:	7100ce5f 	cmp	w18, #0x33
  405298:	540038e1 	b.ne	4059b4 <_nl_load_domain+0xfb4>  // b.any
  40529c:	39402812 	ldrb	w18, [x0, #10]
  4052a0:	7100ca5f 	cmp	w18, #0x32
  4052a4:	54ffe041 	b.ne	404eac <_nl_load_domain+0x4ac>  // b.any
  4052a8:	39402c00 	ldrb	w0, [x0, #11]
  4052ac:	35003800 	cbnz	w0, 4059ac <_nl_load_domain+0xfac>
  4052b0:	7101923f 	cmp	w17, #0x64
  4052b4:	54003780 	b.eq	4059a4 <_nl_load_domain+0xfa4>  // b.none
  4052b8:	35003734 	cbnz	w20, 40599c <_nl_load_domain+0xf9c>
  4052bc:	b940a3e0 	ldr	w0, [sp, #160]
  4052c0:	350036a0 	cbnz	w0, 405994 <_nl_load_domain+0xf94>
  4052c4:	35003643 	cbnz	w3, 40598c <_nl_load_domain+0xf8c>
  4052c8:	7101e23f 	cmp	w17, #0x78
  4052cc:	540033c0 	b.eq	405944 <_nl_load_domain+0xf44>  // b.none
  4052d0:	7101623f 	cmp	w17, #0x58
  4052d4:	54004da1 	b.ne	405c88 <_nl_load_domain+0x1288>  // b.any
  4052d8:	d0000301 	adrp	x1, 467000 <_nl_C_name>
  4052dc:	910c0021 	add	x1, x1, #0x300
  4052e0:	17fffef3 	b	404eac <_nl_load_domain+0x4ac>
  4052e4:	71011a5f 	cmp	w18, #0x46
  4052e8:	54000461 	b.ne	405374 <_nl_load_domain+0x974>  // b.any
  4052ec:	39401412 	ldrb	w18, [x0, #5]
  4052f0:	d2800001 	mov	x1, #0x0                   	// #0
  4052f4:	7101065f 	cmp	w18, #0x41
  4052f8:	54ffdda1 	b.ne	404eac <_nl_load_domain+0x4ac>  // b.any
  4052fc:	39401812 	ldrb	w18, [x0, #6]
  405300:	71014e5f 	cmp	w18, #0x53
  405304:	54ffdd41 	b.ne	404eac <_nl_load_domain+0x4ac>  // b.any
  405308:	39401c12 	ldrb	w18, [x0, #7]
  40530c:	7101525f 	cmp	w18, #0x54
  405310:	54ffdce1 	b.ne	404eac <_nl_load_domain+0x4ac>  // b.any
  405314:	39402012 	ldrb	w18, [x0, #8]
  405318:	7100e25f 	cmp	w18, #0x38
  40531c:	540043c0 	b.eq	405b94 <_nl_load_domain+0x1194>  // b.none
  405320:	7100c65f 	cmp	w18, #0x31
  405324:	54004160 	b.eq	405b50 <_nl_load_domain+0x1150>  // b.none
  405328:	7100ce5f 	cmp	w18, #0x33
  40532c:	54004041 	b.ne	405b34 <_nl_load_domain+0x1134>  // b.any
  405330:	39402412 	ldrb	w18, [x0, #9]
  405334:	7100ca5f 	cmp	w18, #0x32
  405338:	54ffdba1 	b.ne	404eac <_nl_load_domain+0x4ac>  // b.any
  40533c:	39402800 	ldrb	w0, [x0, #10]
  405340:	35003f60 	cbnz	w0, 405b2c <_nl_load_domain+0x112c>
  405344:	7101923f 	cmp	w17, #0x64
  405348:	54003ee0 	b.eq	405b24 <_nl_load_domain+0x1124>  // b.none
  40534c:	35003e94 	cbnz	w20, 405b1c <_nl_load_domain+0x111c>
  405350:	b940a3e0 	ldr	w0, [sp, #160]
  405354:	35003e00 	cbnz	w0, 405b14 <_nl_load_domain+0x1114>
  405358:	35003da3 	cbnz	w3, 405b0c <_nl_load_domain+0x110c>
  40535c:	7101e23f 	cmp	w17, #0x78
  405360:	54002f60 	b.eq	40594c <_nl_load_domain+0xf4c>  // b.none
  405364:	7101623f 	cmp	w17, #0x58
  405368:	54004901 	b.ne	405c88 <_nl_load_domain+0x1288>  // b.any
  40536c:	aa0703e1 	mov	x1, x7
  405370:	17fffecf 	b	404eac <_nl_load_domain+0x4ac>
  405374:	7101365f 	cmp	w18, #0x4d
  405378:	540006e1 	b.ne	405454 <_nl_load_domain+0xa54>  // b.any
  40537c:	39401412 	ldrb	w18, [x0, #5]
  405380:	d2800001 	mov	x1, #0x0                   	// #0
  405384:	7101065f 	cmp	w18, #0x41
  405388:	54ffd921 	b.ne	404eac <_nl_load_domain+0x4ac>  // b.any
  40538c:	39401812 	ldrb	w18, [x0, #6]
  405390:	7101625f 	cmp	w18, #0x58
  405394:	54ffd8c1 	b.ne	404eac <_nl_load_domain+0x4ac>  // b.any
  405398:	39401c00 	ldrb	w0, [x0, #7]
  40539c:	35ffd880 	cbnz	w0, 404eac <_nl_load_domain+0x4ac>
  4053a0:	7101923f 	cmp	w17, #0x64
  4053a4:	54002a80 	b.eq	4058f4 <_nl_load_domain+0xef4>  // b.none
  4053a8:	35002b34 	cbnz	w20, 40590c <_nl_load_domain+0xf0c>
  4053ac:	b940a3e0 	ldr	w0, [sp, #160]
  4053b0:	35002aa0 	cbnz	w0, 405904 <_nl_load_domain+0xf04>
  4053b4:	35002c43 	cbnz	w3, 40593c <_nl_load_domain+0xf3c>
  4053b8:	7101e23f 	cmp	w17, #0x78
  4053bc:	54002bc0 	b.eq	405934 <_nl_load_domain+0xf34>  // b.none
  4053c0:	7101623f 	cmp	w17, #0x58
  4053c4:	54004621 	b.ne	405c88 <_nl_load_domain+0x1288>  // b.any
  4053c8:	aa0703e1 	mov	x1, x7
  4053cc:	17fffeb8 	b	404eac <_nl_load_domain+0x4ac>
  4053d0:	39401400 	ldrb	w0, [x0, #5]
  4053d4:	35ffd6c0 	cbnz	w0, 404eac <_nl_load_domain+0x4ac>
  4053d8:	7101923f 	cmp	w17, #0x64
  4053dc:	54002540 	b.eq	405884 <_nl_load_domain+0xe84>  // b.none
  4053e0:	35002574 	cbnz	w20, 40588c <_nl_load_domain+0xe8c>
  4053e4:	b940a3e0 	ldr	w0, [sp, #160]
  4053e8:	35002560 	cbnz	w0, 405894 <_nl_load_domain+0xe94>
  4053ec:	350025c3 	cbnz	w3, 4058a4 <_nl_load_domain+0xea4>
  4053f0:	7101e23f 	cmp	w17, #0x78
  4053f4:	54002540 	b.eq	40589c <_nl_load_domain+0xe9c>  // b.none
  4053f8:	7101623f 	cmp	w17, #0x58
  4053fc:	54004461 	b.ne	405c88 <_nl_load_domain+0x1288>  // b.any
  405400:	d0000301 	adrp	x1, 467000 <_nl_C_name>
  405404:	910c0021 	add	x1, x1, #0x300
  405408:	17fffea9 	b	404eac <_nl_load_domain+0x4ac>
  40540c:	39401412 	ldrb	w18, [x0, #5]
  405410:	7100da5f 	cmp	w18, #0x36
  405414:	54ffd4c1 	b.ne	404eac <_nl_load_domain+0x4ac>  // b.any
  405418:	39401800 	ldrb	w0, [x0, #6]
  40541c:	35002300 	cbnz	w0, 40587c <_nl_load_domain+0xe7c>
  405420:	7101923f 	cmp	w17, #0x64
  405424:	54002540 	b.eq	4058cc <_nl_load_domain+0xecc>  // b.none
  405428:	350025b4 	cbnz	w20, 4058dc <_nl_load_domain+0xedc>
  40542c:	b940a3e0 	ldr	w0, [sp, #160]
  405430:	35002520 	cbnz	w0, 4058d4 <_nl_load_domain+0xed4>
  405434:	350025c3 	cbnz	w3, 4058ec <_nl_load_domain+0xeec>
  405438:	7101e23f 	cmp	w17, #0x78
  40543c:	54002540 	b.eq	4058e4 <_nl_load_domain+0xee4>  // b.none
  405440:	7101623f 	cmp	w17, #0x58
  405444:	54004221 	b.ne	405c88 <_nl_load_domain+0x1288>  // b.any
  405448:	d0000301 	adrp	x1, 467000 <_nl_C_name>
  40544c:	910c0021 	add	x1, x1, #0x300
  405450:	17fffe97 	b	404eac <_nl_load_domain+0x4ac>
  405454:	7101425f 	cmp	w18, #0x50
  405458:	54002961 	b.ne	405984 <_nl_load_domain+0xf84>  // b.any
  40545c:	39401412 	ldrb	w18, [x0, #5]
  405460:	d2800001 	mov	x1, #0x0                   	// #0
  405464:	7101525f 	cmp	w18, #0x54
  405468:	54ffd221 	b.ne	404eac <_nl_load_domain+0x4ac>  // b.any
  40546c:	39401812 	ldrb	w18, [x0, #6]
  405470:	71014a5f 	cmp	w18, #0x52
  405474:	54ffd1c1 	b.ne	404eac <_nl_load_domain+0x4ac>  // b.any
  405478:	39401c00 	ldrb	w0, [x0, #7]
  40547c:	35ffd180 	cbnz	w0, 404eac <_nl_load_domain+0x4ac>
  405480:	7101923f 	cmp	w17, #0x64
  405484:	540027c0 	b.eq	40597c <_nl_load_domain+0xf7c>  // b.none
  405488:	35002774 	cbnz	w20, 405974 <_nl_load_domain+0xf74>
  40548c:	b940a3e0 	ldr	w0, [sp, #160]
  405490:	350026e0 	cbnz	w0, 40596c <_nl_load_domain+0xf6c>
  405494:	35002683 	cbnz	w3, 405964 <_nl_load_domain+0xf64>
  405498:	7101e23f 	cmp	w17, #0x78
  40549c:	54002600 	b.eq	40595c <_nl_load_domain+0xf5c>  // b.none
  4054a0:	7101623f 	cmp	w17, #0x58
  4054a4:	54003f21 	b.ne	405c88 <_nl_load_domain+0x1288>  // b.any
  4054a8:	aa0703e1 	mov	x1, x7
  4054ac:	17fffe80 	b	404eac <_nl_load_domain+0x4ac>
  4054b0:	f94053e1 	ldr	x1, [sp, #160]
  4054b4:	531f7a60 	lsl	w0, w19, #1
  4054b8:	8b205020 	add	x0, x1, w0, uxtw #4
  4054bc:	94003e9d 	bl	414f30 <__libc_malloc>
  4054c0:	f90053e0 	str	x0, [sp, #160]
  4054c4:	b4ffc080 	cbz	x0, 404cd4 <_nl_load_domain+0x2d4>
  4054c8:	d37c7e69 	ubfiz	x9, x19, #4, #32
  4054cc:	f90012a0 	str	x0, [x21, #32]
  4054d0:	8b090001 	add	x1, x0, x9
  4054d4:	f9007ff7 	str	x23, [sp, #248]
  4054d8:	8b090409 	add	x9, x0, x9, lsl #1
  4054dc:	a90ea7f5 	stp	x21, x9, [sp, #232]
  4054e0:	52825bca 	mov	w10, #0x12de                	// #4830
  4054e4:	f94063e0 	ldr	x0, [sp, #192]
  4054e8:	72b2a08a 	movk	w10, #0x9504, lsl #16
  4054ec:	b9007bff 	str	wzr, [sp, #120]
  4054f0:	8b000134 	add	x20, x9, x0
  4054f4:	aa1c03e0 	mov	x0, x28
  4054f8:	aa1403f7 	mov	x23, x20
  4054fc:	2a1803fc 	mov	w28, w24
  405500:	a94cd3f5 	ldp	x21, x20, [sp, #200]
  405504:	f90067f6 	str	x22, [sp, #200]
  405508:	f94043f6 	ldr	x22, [sp, #128]
  40550c:	aa0003f8 	mov	x24, x0
  405510:	a90de7e1 	stp	x1, x25, [sp, #216]
  405514:	52800009 	mov	w9, #0x0                   	// #0
  405518:	6b0a039f 	cmp	w28, w10
  40551c:	54001580 	b.eq	4057cc <_nl_load_domain+0xdcc>  // b.none
  405520:	7100013f 	cmp	w9, #0x0
  405524:	9a950280 	csel	x0, x20, x21, eq  // eq = none
  405528:	b9400001 	ldr	w1, [x0]
  40552c:	5ac00821 	rev	w1, w1
  405530:	8b010301 	add	x1, x24, x1
  405534:	b9400820 	ldr	w0, [x1, #8]
  405538:	3100041f 	cmn	w0, #0x1
  40553c:	1a9f07e0 	cset	w0, ne  // ne = any
  405540:	35000480 	cbnz	w0, 4055d0 <_nl_load_domain+0xbd0>
  405544:	34001549 	cbz	w9, 4057ec <_nl_load_domain+0xdec>
  405548:	f9403fe0 	ldr	x0, [sp, #120]
  40554c:	a90ad3f5 	stp	x21, x20, [sp, #168]
  405550:	aa1703f4 	mov	x20, x23
  405554:	b90073ff 	str	wzr, [sp, #112]
  405558:	d37c7c13 	ubfiz	x19, x0, #4, #32
  40555c:	f94053e0 	ldr	x0, [sp, #160]
  405560:	8b130000 	add	x0, x0, x19
  405564:	f90063e0 	str	x0, [sp, #192]
  405568:	f9406fe0 	ldr	x0, [sp, #216]
  40556c:	8b130000 	add	x0, x0, x19
  405570:	f9005fe0 	str	x0, [sp, #184]
  405574:	b94073e0 	ldr	w0, [sp, #112]
  405578:	6b0a039f 	cmp	w28, w10
  40557c:	54000420 	b.eq	405600 <_nl_load_domain+0xc00>  // b.none
  405580:	34001580 	cbz	w0, 405830 <_nl_load_domain+0xe30>
  405584:	f94057e0 	ldr	x0, [sp, #168]
  405588:	f9405ff9 	ldr	x25, [sp, #184]
  40558c:	b9400000 	ldr	w0, [x0]
  405590:	5ac00801 	rev	w1, w0
  405594:	5ac00800 	rev	w0, w0
  405598:	8b000300 	add	x0, x24, x0
  40559c:	b8614b13 	ldr	w19, [x24, w1, uxtw]
  4055a0:	5ac00a73 	rev	w19, w19
  4055a4:	8b130313 	add	x19, x24, x19
  4055a8:	29408801 	ldp	w1, w2, [x0, #4]
  4055ac:	3100045f 	cmn	w2, #0x1
  4055b0:	5ac00821 	rev	w1, w1
  4055b4:	540003a1 	b.ne	405628 <_nl_load_domain+0xc28>  // b.any
  4055b8:	a9004f21 	stp	x1, x19, [x25]
  4055bc:	b94073e0 	ldr	w0, [sp, #112]
  4055c0:	35000600 	cbnz	w0, 405680 <_nl_load_domain+0xc80>
  4055c4:	52800020 	mov	w0, #0x1                   	// #1
  4055c8:	b90073e0 	str	w0, [sp, #112]
  4055cc:	17ffffea 	b	405574 <_nl_load_domain+0xb74>
  4055d0:	91001021 	add	x1, x1, #0x4
  4055d4:	14000004 	b	4055e4 <_nl_load_domain+0xbe4>
  4055d8:	f8605ac0 	ldr	x0, [x22, w0, uxtw #3]
  4055dc:	b40005c0 	cbz	x0, 405694 <_nl_load_domain+0xc94>
  4055e0:	91002021 	add	x1, x1, #0x8
  4055e4:	b9400420 	ldr	w0, [x1, #4]
  4055e8:	6b0a039f 	cmp	w28, w10
  4055ec:	5ac00802 	rev	w2, w0
  4055f0:	1a801040 	csel	w0, w2, w0, ne  // ne = any
  4055f4:	3100041f 	cmn	w0, #0x1
  4055f8:	54ffff01 	b.ne	4055d8 <_nl_load_domain+0xbd8>  // b.any
  4055fc:	17ffffd2 	b	405544 <_nl_load_domain+0xb44>
  405600:	340012a0 	cbz	w0, 405854 <_nl_load_domain+0xe54>
  405604:	f94057e0 	ldr	x0, [sp, #168]
  405608:	f9405ff9 	ldr	x25, [sp, #184]
  40560c:	b9400001 	ldr	w1, [x0]
  405610:	8b010300 	add	x0, x24, x1
  405614:	b8616b13 	ldr	w19, [x24, x1]
  405618:	8b130313 	add	x19, x24, x19
  40561c:	29408801 	ldp	w1, w2, [x0, #4]
  405620:	3100045f 	cmn	w2, #0x1
  405624:	54fffca0 	b.eq	4055b8 <_nl_load_domain+0xbb8>  // b.none
  405628:	91001017 	add	x23, x0, #0x4
  40562c:	f9000734 	str	x20, [x25, #8]
  405630:	294056e0 	ldp	w0, w21, [x23]
  405634:	6b0a039f 	cmp	w28, w10
  405638:	54000060 	b.eq	405644 <_nl_load_domain+0xc44>  // b.none
  40563c:	5ac00800 	rev	w0, w0
  405640:	5ac00ab5 	rev	w21, w21
  405644:	35000d80 	cbnz	w0, 4057f4 <_nl_load_domain+0xdf4>
  405648:	310006bf 	cmn	w21, #0x1
  40564c:	54000ea0 	b.eq	405820 <_nl_load_domain+0xe20>  // b.none
  405650:	f8755ad5 	ldr	x21, [x22, w21, uxtw #3]
  405654:	910022f7 	add	x23, x23, #0x8
  405658:	aa1503e0 	mov	x0, x21
  40565c:	97ffeb29 	bl	400300 <.plt+0x60>
  405660:	aa0003e2 	mov	x2, x0
  405664:	aa1503e1 	mov	x1, x21
  405668:	aa1403e0 	mov	x0, x20
  40566c:	8b020294 	add	x20, x20, x2
  405670:	97ffeb10 	bl	4002b0 <.plt+0x10>
  405674:	52825bca 	mov	w10, #0x12de                	// #4830
  405678:	72b2a08a 	movk	w10, #0x9504, lsl #16
  40567c:	17ffffed 	b	405630 <_nl_load_domain+0xc30>
  405680:	aa1403f7 	mov	x23, x20
  405684:	b9407be0 	ldr	w0, [sp, #120]
  405688:	a94ad3f5 	ldp	x21, x20, [sp, #168]
  40568c:	11000400 	add	w0, w0, #0x1
  405690:	b9007be0 	str	w0, [sp, #120]
  405694:	f9404be0 	ldr	x0, [sp, #144]
  405698:	91001294 	add	x20, x20, #0x4
  40569c:	910012b5 	add	x21, x21, #0x4
  4056a0:	eb14001f 	cmp	x0, x20
  4056a4:	54fff381 	b.ne	405514 <_nl_load_domain+0xb14>  // b.any
  4056a8:	aa1803e0 	mov	x0, x24
  4056ac:	b9407be1 	ldr	w1, [sp, #120]
  4056b0:	2a1c03f8 	mov	w24, w28
  4056b4:	aa0003fc 	mov	x28, x0
  4056b8:	b9409be0 	ldr	w0, [sp, #152]
  4056bc:	f94067f6 	ldr	x22, [sp, #200]
  4056c0:	6b01001f 	cmp	w0, w1
  4056c4:	a94e57f9 	ldp	x25, x21, [sp, #224]
  4056c8:	a94f5fe9 	ldp	x9, x23, [sp, #240]
  4056cc:	54002de1 	b.ne	405c88 <_nl_load_domain+0x1288>  // b.any
  4056d0:	b9406be4 	ldr	w4, [sp, #104]
  4056d4:	52825bca 	mov	w10, #0x12de                	// #4830
  4056d8:	f94047e3 	ldr	x3, [sp, #136]
  4056dc:	d2800000 	mov	x0, #0x0                   	// #0
  4056e0:	72b2a08a 	movk	w10, #0x9504, lsl #16
  4056e4:	b8607861 	ldr	w1, [x3, x0, lsl #2]
  4056e8:	6b0a031f 	cmp	w24, w10
  4056ec:	5ac00822 	rev	w2, w1
  4056f0:	1a811041 	csel	w1, w2, w1, ne  // ne = any
  4056f4:	b8207921 	str	w1, [x9, x0, lsl #2]
  4056f8:	91000400 	add	x0, x0, #0x1
  4056fc:	6b00009f 	cmp	w4, w0
  405700:	54ffff28 	b.hi	4056e4 <_nl_load_domain+0xce4>  // b.pmore
  405704:	f94053e0 	ldr	x0, [sp, #160]
  405708:	52800013 	mov	w19, #0x0                   	// #0
  40570c:	b9409bf8 	ldr	w24, [sp, #152]
  405710:	91002014 	add	x20, x0, #0x8
  405714:	f90037f6 	str	x22, [sp, #104]
  405718:	aa1503f6 	mov	x22, x21
  40571c:	aa1403f5 	mov	x21, x20
  405720:	2a1303f4 	mov	w20, w19
  405724:	aa0903f3 	mov	x19, x9
  405728:	f94002a0 	ldr	x0, [x21]
  40572c:	94000783 	bl	407538 <__hash_string>
  405730:	b9405ac4 	ldr	w4, [x22, #88]
  405734:	51000882 	sub	w2, w4, #0x2
  405738:	1ac40801 	udiv	w1, w0, w4
  40573c:	1ac20803 	udiv	w3, w0, w2
  405740:	1b048021 	msub	w1, w1, w4, w0
  405744:	1b028063 	msub	w3, w3, w2, w0
  405748:	8b214a62 	add	x2, x19, w1, uxtw #2
  40574c:	b8615a60 	ldr	w0, [x19, w1, uxtw #2]
  405750:	11000463 	add	w3, w3, #0x1
  405754:	4b030085 	sub	w5, w4, w3
  405758:	4b040064 	sub	w4, w3, w4
  40575c:	34000120 	cbz	w0, 405780 <_nl_load_domain+0xd80>
  405760:	0b040022 	add	w2, w1, w4
  405764:	6b0100bf 	cmp	w5, w1
  405768:	0b030021 	add	w1, w1, w3
  40576c:	1a828020 	csel	w0, w1, w2, hi  // hi = pmore
  405770:	1a828021 	csel	w1, w1, w2, hi  // hi = pmore
  405774:	8b000a62 	add	x2, x19, x0, lsl #2
  405778:	b8607a60 	ldr	w0, [x19, x0, lsl #2]
  40577c:	35ffff20 	cbnz	w0, 405760 <_nl_load_domain+0xd60>
  405780:	b9402ac0 	ldr	w0, [x22, #40]
  405784:	910042b5 	add	x21, x21, #0x10
  405788:	11000400 	add	w0, w0, #0x1
  40578c:	0b140000 	add	w0, w0, w20
  405790:	b9000040 	str	w0, [x2]
  405794:	11000694 	add	w20, w20, #0x1
  405798:	6b14031f 	cmp	w24, w20
  40579c:	54fffc61 	b.ne	405728 <_nl_load_domain+0xd28>  // b.any
  4057a0:	aa1603f5 	mov	x21, x22
  4057a4:	b9409be0 	ldr	w0, [sp, #152]
  4057a8:	f94037f6 	ldr	x22, [sp, #104]
  4057ac:	b90042a0 	str	w0, [x21, #64]
  4057b0:	f94053e0 	ldr	x0, [sp, #160]
  4057b4:	f90026a0 	str	x0, [x21, #72]
  4057b8:	f9406fe0 	ldr	x0, [sp, #216]
  4057bc:	f9002aa0 	str	x0, [x21, #80]
  4057c0:	f90032b3 	str	x19, [x21, #96]
  4057c4:	b9006abf 	str	wzr, [x21, #104]
  4057c8:	17fffe00 	b	404fc8 <_nl_load_domain+0x5c8>
  4057cc:	34000269 	cbz	w9, 405818 <_nl_load_domain+0xe18>
  4057d0:	b94002a1 	ldr	w1, [x21]
  4057d4:	8b010301 	add	x1, x24, x1
  4057d8:	b9400820 	ldr	w0, [x1, #8]
  4057dc:	3100041f 	cmn	w0, #0x1
  4057e0:	1a9f07e0 	cset	w0, ne  // ne = any
  4057e4:	34ffeb00 	cbz	w0, 405544 <_nl_load_domain+0xb44>
  4057e8:	17ffff7a 	b	4055d0 <_nl_load_domain+0xbd0>
  4057ec:	52800029 	mov	w9, #0x1                   	// #1
  4057f0:	17ffff4a 	b	405518 <_nl_load_domain+0xb18>
  4057f4:	2a0003e2 	mov	w2, w0
  4057f8:	aa1303e1 	mov	x1, x19
  4057fc:	aa1403e0 	mov	x0, x20
  405800:	8b020273 	add	x19, x19, x2
  405804:	8b020294 	add	x20, x20, x2
  405808:	97ffeaaa 	bl	4002b0 <.plt+0x10>
  40580c:	52825bca 	mov	w10, #0x12de                	// #4830
  405810:	72b2a08a 	movk	w10, #0x9504, lsl #16
  405814:	17ffff8d 	b	405648 <_nl_load_domain+0xc48>
  405818:	b9400281 	ldr	w1, [x20]
  40581c:	17ffffee 	b	4057d4 <_nl_load_domain+0xdd4>
  405820:	f9400720 	ldr	x0, [x25, #8]
  405824:	cb000280 	sub	x0, x20, x0
  405828:	f9000320 	str	x0, [x25]
  40582c:	17ffff64 	b	4055bc <_nl_load_domain+0xbbc>
  405830:	f9405be0 	ldr	x0, [sp, #176]
  405834:	f94063f9 	ldr	x25, [sp, #192]
  405838:	b9400001 	ldr	w1, [x0]
  40583c:	5ac00821 	rev	w1, w1
  405840:	8b010300 	add	x0, x24, x1
  405844:	b8616b13 	ldr	w19, [x24, x1]
  405848:	5ac00a73 	rev	w19, w19
  40584c:	8b130313 	add	x19, x24, x19
  405850:	17ffff56 	b	4055a8 <_nl_load_domain+0xba8>
  405854:	f9405be0 	ldr	x0, [sp, #176]
  405858:	f94063f9 	ldr	x25, [sp, #192]
  40585c:	b9400001 	ldr	w1, [x0]
  405860:	8b010300 	add	x0, x24, x1
  405864:	b8616b13 	ldr	w19, [x24, x1]
  405868:	8b130313 	add	x19, x24, x19
  40586c:	17ffff6c 	b	40561c <_nl_load_domain+0xc1c>
  405870:	94005b64 	bl	41c600 <__stack_chk_fail>
  405874:	d2800001 	mov	x1, #0x0                   	// #0
  405878:	17fffd8d 	b	404eac <_nl_load_domain+0x4ac>
  40587c:	d2800001 	mov	x1, #0x0                   	// #0
  405880:	17fffd8b 	b	404eac <_nl_load_domain+0x4ac>
  405884:	aa0603e1 	mov	x1, x6
  405888:	17fffd89 	b	404eac <_nl_load_domain+0x4ac>
  40588c:	aa0503e1 	mov	x1, x5
  405890:	17fffd87 	b	404eac <_nl_load_domain+0x4ac>
  405894:	aa0403e1 	mov	x1, x4
  405898:	17fffd85 	b	404eac <_nl_load_domain+0x4ac>
  40589c:	f9404fe1 	ldr	x1, [sp, #152]
  4058a0:	17fffd83 	b	404eac <_nl_load_domain+0x4ac>
  4058a4:	aa1e03e1 	mov	x1, x30
  4058a8:	17fffd81 	b	404eac <_nl_load_domain+0x4ac>
  4058ac:	aa0503e1 	mov	x1, x5
  4058b0:	17fffd7f 	b	404eac <_nl_load_domain+0x4ac>
  4058b4:	aa0603e1 	mov	x1, x6
  4058b8:	17fffd7d 	b	404eac <_nl_load_domain+0x4ac>
  4058bc:	aa0f03e1 	mov	x1, x15
  4058c0:	17fffd7b 	b	404eac <_nl_load_domain+0x4ac>
  4058c4:	aa1003e1 	mov	x1, x16
  4058c8:	17fffd79 	b	404eac <_nl_load_domain+0x4ac>
  4058cc:	aa0603e1 	mov	x1, x6
  4058d0:	17fffd77 	b	404eac <_nl_load_domain+0x4ac>
  4058d4:	aa0403e1 	mov	x1, x4
  4058d8:	17fffd75 	b	404eac <_nl_load_domain+0x4ac>
  4058dc:	aa0503e1 	mov	x1, x5
  4058e0:	17fffd73 	b	404eac <_nl_load_domain+0x4ac>
  4058e4:	f9404fe1 	ldr	x1, [sp, #152]
  4058e8:	17fffd71 	b	404eac <_nl_load_domain+0x4ac>
  4058ec:	aa1e03e1 	mov	x1, x30
  4058f0:	17fffd6f 	b	404eac <_nl_load_domain+0x4ac>
  4058f4:	aa1003e1 	mov	x1, x16
  4058f8:	17fffd6d 	b	404eac <_nl_load_domain+0x4ac>
  4058fc:	aa0803e1 	mov	x1, x8
  405900:	17fffd6b 	b	404eac <_nl_load_domain+0x4ac>
  405904:	aa0e03e1 	mov	x1, x14
  405908:	17fffd69 	b	404eac <_nl_load_domain+0x4ac>
  40590c:	aa0f03e1 	mov	x1, x15
  405910:	17fffd67 	b	404eac <_nl_load_domain+0x4ac>
  405914:	aa1e03e1 	mov	x1, x30
  405918:	17fffd65 	b	404eac <_nl_load_domain+0x4ac>
  40591c:	aa0403e1 	mov	x1, x4
  405920:	17fffd63 	b	404eac <_nl_load_domain+0x4ac>
  405924:	f9404be1 	ldr	x1, [sp, #144]
  405928:	17fffd61 	b	404eac <_nl_load_domain+0x4ac>
  40592c:	aa0e03e1 	mov	x1, x14
  405930:	17fffd5f 	b	404eac <_nl_load_domain+0x4ac>
  405934:	aa0803e1 	mov	x1, x8
  405938:	17fffd5d 	b	404eac <_nl_load_domain+0x4ac>
  40593c:	f9404be1 	ldr	x1, [sp, #144]
  405940:	17fffd5b 	b	404eac <_nl_load_domain+0x4ac>
  405944:	f9404fe1 	ldr	x1, [sp, #152]
  405948:	17fffd59 	b	404eac <_nl_load_domain+0x4ac>
  40594c:	aa0803e1 	mov	x1, x8
  405950:	17fffd57 	b	404eac <_nl_load_domain+0x4ac>
  405954:	f9404fe1 	ldr	x1, [sp, #152]
  405958:	17fffd55 	b	404eac <_nl_load_domain+0x4ac>
  40595c:	aa0803e1 	mov	x1, x8
  405960:	17fffd53 	b	404eac <_nl_load_domain+0x4ac>
  405964:	f9404be1 	ldr	x1, [sp, #144]
  405968:	17fffd51 	b	404eac <_nl_load_domain+0x4ac>
  40596c:	aa0e03e1 	mov	x1, x14
  405970:	17fffd4f 	b	404eac <_nl_load_domain+0x4ac>
  405974:	aa0f03e1 	mov	x1, x15
  405978:	17fffd4d 	b	404eac <_nl_load_domain+0x4ac>
  40597c:	aa1003e1 	mov	x1, x16
  405980:	17fffd4b 	b	404eac <_nl_load_domain+0x4ac>
  405984:	d2800001 	mov	x1, #0x0                   	// #0
  405988:	17fffd49 	b	404eac <_nl_load_domain+0x4ac>
  40598c:	aa1e03e1 	mov	x1, x30
  405990:	17fffd47 	b	404eac <_nl_load_domain+0x4ac>
  405994:	aa0403e1 	mov	x1, x4
  405998:	17fffd45 	b	404eac <_nl_load_domain+0x4ac>
  40599c:	aa0503e1 	mov	x1, x5
  4059a0:	17fffd43 	b	404eac <_nl_load_domain+0x4ac>
  4059a4:	aa0603e1 	mov	x1, x6
  4059a8:	17fffd41 	b	404eac <_nl_load_domain+0x4ac>
  4059ac:	d2800001 	mov	x1, #0x0                   	// #0
  4059b0:	17fffd3f 	b	404eac <_nl_load_domain+0x4ac>
  4059b4:	7100da5f 	cmp	w18, #0x36
  4059b8:	54ffa7a1 	b.ne	404eac <_nl_load_domain+0x4ac>  // b.any
  4059bc:	39402801 	ldrb	w1, [x0, #10]
  4059c0:	7100d03f 	cmp	w1, #0x34
  4059c4:	54000480 	b.eq	405a54 <_nl_load_domain+0x1054>  // b.none
  4059c8:	d2800001 	mov	x1, #0x0                   	// #0
  4059cc:	17fffd38 	b	404eac <_nl_load_domain+0x4ac>
  4059d0:	39402812 	ldrb	w18, [x0, #10]
  4059d4:	7100da5f 	cmp	w18, #0x36
  4059d8:	54ffa6a1 	b.ne	404eac <_nl_load_domain+0x4ac>  // b.any
  4059dc:	39402c00 	ldrb	w0, [x0, #11]
  4059e0:	35ffa660 	cbnz	w0, 404eac <_nl_load_domain+0x4ac>
  4059e4:	7101923f 	cmp	w17, #0x64
  4059e8:	540008e0 	b.eq	405b04 <_nl_load_domain+0x1104>  // b.none
  4059ec:	35000894 	cbnz	w20, 405afc <_nl_load_domain+0x10fc>
  4059f0:	b940a3e0 	ldr	w0, [sp, #160]
  4059f4:	35000800 	cbnz	w0, 405af4 <_nl_load_domain+0x10f4>
  4059f8:	350007a3 	cbnz	w3, 405aec <_nl_load_domain+0x10ec>
  4059fc:	7101e23f 	cmp	w17, #0x78
  405a00:	54000460 	b.eq	405a8c <_nl_load_domain+0x108c>  // b.none
  405a04:	7101623f 	cmp	w17, #0x58
  405a08:	54001401 	b.ne	405c88 <_nl_load_domain+0x1288>  // b.any
  405a0c:	d0000301 	adrp	x1, 467000 <_nl_C_name>
  405a10:	910c0021 	add	x1, x1, #0x300
  405a14:	17fffd26 	b	404eac <_nl_load_domain+0x4ac>
  405a18:	39402800 	ldrb	w0, [x0, #10]
  405a1c:	35ffa480 	cbnz	w0, 404eac <_nl_load_domain+0x4ac>
  405a20:	7101923f 	cmp	w17, #0x64
  405a24:	54000600 	b.eq	405ae4 <_nl_load_domain+0x10e4>  // b.none
  405a28:	350005b4 	cbnz	w20, 405adc <_nl_load_domain+0x10dc>
  405a2c:	b940a3e0 	ldr	w0, [sp, #160]
  405a30:	35000520 	cbnz	w0, 405ad4 <_nl_load_domain+0x10d4>
  405a34:	350004c3 	cbnz	w3, 405acc <_nl_load_domain+0x10cc>
  405a38:	7101e23f 	cmp	w17, #0x78
  405a3c:	540002c0 	b.eq	405a94 <_nl_load_domain+0x1094>  // b.none
  405a40:	7101623f 	cmp	w17, #0x58
  405a44:	54001221 	b.ne	405c88 <_nl_load_domain+0x1288>  // b.any
  405a48:	d0000301 	adrp	x1, 467000 <_nl_C_name>
  405a4c:	910c0021 	add	x1, x1, #0x300
  405a50:	17fffd17 	b	404eac <_nl_load_domain+0x4ac>
  405a54:	39402c00 	ldrb	w0, [x0, #11]
  405a58:	35000360 	cbnz	w0, 405ac4 <_nl_load_domain+0x10c4>
  405a5c:	7101923f 	cmp	w17, #0x64
  405a60:	540002e0 	b.eq	405abc <_nl_load_domain+0x10bc>  // b.none
  405a64:	35000294 	cbnz	w20, 405ab4 <_nl_load_domain+0x10b4>
  405a68:	b940a3e0 	ldr	w0, [sp, #160]
  405a6c:	35000200 	cbnz	w0, 405aac <_nl_load_domain+0x10ac>
  405a70:	350001a3 	cbnz	w3, 405aa4 <_nl_load_domain+0x10a4>
  405a74:	7101e23f 	cmp	w17, #0x78
  405a78:	54000120 	b.eq	405a9c <_nl_load_domain+0x109c>  // b.none
  405a7c:	7101623f 	cmp	w17, #0x58
  405a80:	54001041 	b.ne	405c88 <_nl_load_domain+0x1288>  // b.any
  405a84:	aa0703e1 	mov	x1, x7
  405a88:	17fffd09 	b	404eac <_nl_load_domain+0x4ac>
  405a8c:	f9404fe1 	ldr	x1, [sp, #152]
  405a90:	17fffd07 	b	404eac <_nl_load_domain+0x4ac>
  405a94:	f9404fe1 	ldr	x1, [sp, #152]
  405a98:	17fffd05 	b	404eac <_nl_load_domain+0x4ac>
  405a9c:	aa0803e1 	mov	x1, x8
  405aa0:	17fffd03 	b	404eac <_nl_load_domain+0x4ac>
  405aa4:	f9404be1 	ldr	x1, [sp, #144]
  405aa8:	17fffd01 	b	404eac <_nl_load_domain+0x4ac>
  405aac:	aa0e03e1 	mov	x1, x14
  405ab0:	17fffcff 	b	404eac <_nl_load_domain+0x4ac>
  405ab4:	aa0f03e1 	mov	x1, x15
  405ab8:	17fffcfd 	b	404eac <_nl_load_domain+0x4ac>
  405abc:	aa1003e1 	mov	x1, x16
  405ac0:	17fffcfb 	b	404eac <_nl_load_domain+0x4ac>
  405ac4:	d2800001 	mov	x1, #0x0                   	// #0
  405ac8:	17fffcf9 	b	404eac <_nl_load_domain+0x4ac>
  405acc:	aa1e03e1 	mov	x1, x30
  405ad0:	17fffcf7 	b	404eac <_nl_load_domain+0x4ac>
  405ad4:	aa0403e1 	mov	x1, x4
  405ad8:	17fffcf5 	b	404eac <_nl_load_domain+0x4ac>
  405adc:	aa0503e1 	mov	x1, x5
  405ae0:	17fffcf3 	b	404eac <_nl_load_domain+0x4ac>
  405ae4:	aa0603e1 	mov	x1, x6
  405ae8:	17fffcf1 	b	404eac <_nl_load_domain+0x4ac>
  405aec:	aa1e03e1 	mov	x1, x30
  405af0:	17fffcef 	b	404eac <_nl_load_domain+0x4ac>
  405af4:	aa0403e1 	mov	x1, x4
  405af8:	17fffced 	b	404eac <_nl_load_domain+0x4ac>
  405afc:	aa0503e1 	mov	x1, x5
  405b00:	17fffceb 	b	404eac <_nl_load_domain+0x4ac>
  405b04:	aa0603e1 	mov	x1, x6
  405b08:	17fffce9 	b	404eac <_nl_load_domain+0x4ac>
  405b0c:	f9404be1 	ldr	x1, [sp, #144]
  405b10:	17fffce7 	b	404eac <_nl_load_domain+0x4ac>
  405b14:	aa0e03e1 	mov	x1, x14
  405b18:	17fffce5 	b	404eac <_nl_load_domain+0x4ac>
  405b1c:	aa0f03e1 	mov	x1, x15
  405b20:	17fffce3 	b	404eac <_nl_load_domain+0x4ac>
  405b24:	aa1003e1 	mov	x1, x16
  405b28:	17fffce1 	b	404eac <_nl_load_domain+0x4ac>
  405b2c:	d2800001 	mov	x1, #0x0                   	// #0
  405b30:	17fffcdf 	b	404eac <_nl_load_domain+0x4ac>
  405b34:	7100da5f 	cmp	w18, #0x36
  405b38:	54ff9ba1 	b.ne	404eac <_nl_load_domain+0x4ac>  // b.any
  405b3c:	39402401 	ldrb	w1, [x0, #9]
  405b40:	7100d03f 	cmp	w1, #0x34
  405b44:	54000460 	b.eq	405bd0 <_nl_load_domain+0x11d0>  // b.none
  405b48:	d2800001 	mov	x1, #0x0                   	// #0
  405b4c:	17fffcd8 	b	404eac <_nl_load_domain+0x4ac>
  405b50:	39402412 	ldrb	w18, [x0, #9]
  405b54:	7100da5f 	cmp	w18, #0x36
  405b58:	54ff9aa1 	b.ne	404eac <_nl_load_domain+0x4ac>  // b.any
  405b5c:	39402800 	ldrb	w0, [x0, #10]
  405b60:	35ff9a60 	cbnz	w0, 404eac <_nl_load_domain+0x4ac>
  405b64:	7101923f 	cmp	w17, #0x64
  405b68:	540008c0 	b.eq	405c80 <_nl_load_domain+0x1280>  // b.none
  405b6c:	35000874 	cbnz	w20, 405c78 <_nl_load_domain+0x1278>
  405b70:	b940a3e0 	ldr	w0, [sp, #160]
  405b74:	350007e0 	cbnz	w0, 405c70 <_nl_load_domain+0x1270>
  405b78:	35000783 	cbnz	w3, 405c68 <_nl_load_domain+0x1268>
  405b7c:	7101e23f 	cmp	w17, #0x78
  405b80:	54000440 	b.eq	405c08 <_nl_load_domain+0x1208>  // b.none
  405b84:	7101623f 	cmp	w17, #0x58
  405b88:	54000801 	b.ne	405c88 <_nl_load_domain+0x1288>  // b.any
  405b8c:	aa0703e1 	mov	x1, x7
  405b90:	17fffcc7 	b	404eac <_nl_load_domain+0x4ac>
  405b94:	39402400 	ldrb	w0, [x0, #9]
  405b98:	35ff98a0 	cbnz	w0, 404eac <_nl_load_domain+0x4ac>
  405b9c:	7101923f 	cmp	w17, #0x64
  405ba0:	54000600 	b.eq	405c60 <_nl_load_domain+0x1260>  // b.none
  405ba4:	350005b4 	cbnz	w20, 405c58 <_nl_load_domain+0x1258>
  405ba8:	b940a3e0 	ldr	w0, [sp, #160]
  405bac:	35000520 	cbnz	w0, 405c50 <_nl_load_domain+0x1250>
  405bb0:	350004c3 	cbnz	w3, 405c48 <_nl_load_domain+0x1248>
  405bb4:	7101e23f 	cmp	w17, #0x78
  405bb8:	540002c0 	b.eq	405c10 <_nl_load_domain+0x1210>  // b.none
  405bbc:	7101623f 	cmp	w17, #0x58
  405bc0:	54000641 	b.ne	405c88 <_nl_load_domain+0x1288>  // b.any
  405bc4:	d0000301 	adrp	x1, 467000 <_nl_C_name>
  405bc8:	910c0021 	add	x1, x1, #0x300
